
/home/hzb/test/am-kernels/tests/cpu-tests/build/div-riscv64-mycpu.elf:     file format elf64-littleriscv


Disassembly of section .text:

0000000080000000 <_start>:
    80000000:	00000413          	li	s0,0
    80000004:	00009117          	auipc	sp,0x9
    80000008:	ffc10113          	addi	sp,sp,-4 # 80009000 <_end>
    8000000c:	138000ef          	jal	ra,80000144 <_trm_init>

0000000080000010 <check>:
    80000010:	00050463          	beqz	a0,80000018 <check+0x8>
    80000014:	00008067          	ret
    80000018:	ff010113          	addi	sp,sp,-16
    8000001c:	00100513          	li	a0,1
    80000020:	00113423          	sd	ra,8(sp)
    80000024:	0fc000ef          	jal	ra,80000120 <halt>

0000000080000028 <main>:
    80000028:	fd010113          	addi	sp,sp,-48
    8000002c:	01313423          	sd	s3,8(sp)
    80000030:	00000997          	auipc	s3,0x0
    80000034:	49098993          	addi	s3,s3,1168 # 800004c0 <a>
    80000038:	02113423          	sd	ra,40(sp)
    8000003c:	02813023          	sd	s0,32(sp)
    80000040:	00913c23          	sd	s1,24(sp)
    80000044:	01213823          	sd	s2,16(sp)
    80000048:	01413023          	sd	s4,0(sp)
    8000004c:	00098713          	mv	a4,s3
    80000050:	00000793          	li	a5,0
    80000054:	00a00693          	li	a3,10
    80000058:	00f72023          	sw	a5,0(a4)
    8000005c:	0017879b          	addiw	a5,a5,1
    80000060:	00470713          	addi	a4,a4,4
    80000064:	fed79ae3          	bne	a5,a3,80000058 <main+0x30>
    80000068:	00000a17          	auipc	s4,0x0
    8000006c:	480a0a13          	addi	s4,s4,1152 # 800004e8 <a+0x28>
    80000070:	00000917          	auipc	s2,0x0
    80000074:	45090913          	addi	s2,s2,1104 # 800004c0 <a>
    80000078:	00b00493          	li	s1,11
    8000007c:	00092503          	lw	a0,0(s2)
    80000080:	00100413          	li	s0,1
    80000084:	00040593          	mv	a1,s0
    80000088:	0e0000ef          	jal	ra,80000168 <__muldi3>
    8000008c:	0014041b          	addiw	s0,s0,1
    80000090:	0005051b          	sext.w	a0,a0
    80000094:	fe9418e3          	bne	s0,s1,80000084 <main+0x5c>
    80000098:	00a92023          	sw	a0,0(s2)
    8000009c:	00490913          	addi	s2,s2,4
    800000a0:	fd491ee3          	bne	s2,s4,8000007c <main+0x54>
    800000a4:	00000917          	auipc	s2,0x0
    800000a8:	41c90913          	addi	s2,s2,1052 # 800004c0 <a>
    800000ac:	00b00493          	li	s1,11
    800000b0:	00092503          	lw	a0,0(s2)
    800000b4:	00100413          	li	s0,1
    800000b8:	00040593          	mv	a1,s0
    800000bc:	110000ef          	jal	ra,800001cc <__divdi3>
    800000c0:	0014041b          	addiw	s0,s0,1
    800000c4:	0005051b          	sext.w	a0,a0
    800000c8:	fe9418e3          	bne	s0,s1,800000b8 <main+0x90>
    800000cc:	00a92023          	sw	a0,0(s2)
    800000d0:	00490913          	addi	s2,s2,4
    800000d4:	fd491ee3          	bne	s2,s4,800000b0 <main+0x88>
    800000d8:	00000413          	li	s0,0
    800000dc:	00a00493          	li	s1,10
    800000e0:	0009a503          	lw	a0,0(s3)
    800000e4:	00498993          	addi	s3,s3,4
    800000e8:	40850533          	sub	a0,a0,s0
    800000ec:	00153513          	seqz	a0,a0
    800000f0:	0014041b          	addiw	s0,s0,1
    800000f4:	f1dff0ef          	jal	ra,80000010 <check>
    800000f8:	fe9414e3          	bne	s0,s1,800000e0 <main+0xb8>
    800000fc:	02813083          	ld	ra,40(sp)
    80000100:	02013403          	ld	s0,32(sp)
    80000104:	01813483          	ld	s1,24(sp)
    80000108:	01013903          	ld	s2,16(sp)
    8000010c:	00813983          	ld	s3,8(sp)
    80000110:	00013a03          	ld	s4,0(sp)
    80000114:	00000513          	li	a0,0
    80000118:	03010113          	addi	sp,sp,48
    8000011c:	00008067          	ret

0000000080000120 <halt>:
    80000120:	00050513          	mv	a0,a0
    80000124:	0000006b          	0x6b
    80000128:	0000006f          	j	80000128 <halt+0x8>

000000008000012c <_assert>:
    8000012c:	00051a63          	bnez	a0,80000140 <_assert+0x14>
    80000130:	00100793          	li	a5,1
    80000134:	00078513          	mv	a0,a5
    80000138:	0000006b          	0x6b
    8000013c:	0000006f          	j	8000013c <_assert+0x10>
    80000140:	00008067          	ret

0000000080000144 <_trm_init>:
    80000144:	ff010113          	addi	sp,sp,-16
    80000148:	00113423          	sd	ra,8(sp)
    8000014c:	140000ef          	jal	ra,8000028c <heap_init>
    80000150:	00000517          	auipc	a0,0x0
    80000154:	35050513          	addi	a0,a0,848 # 800004a0 <mainargs>
    80000158:	ed1ff0ef          	jal	ra,80000028 <main>
    8000015c:	00050513          	mv	a0,a0
    80000160:	0000006b          	0x6b
    80000164:	0000006f          	j	80000164 <_trm_init+0x20>

0000000080000168 <__muldi3>:
    80000168:	00050613          	mv	a2,a0
    8000016c:	00000513          	li	a0,0
    80000170:	0015f693          	andi	a3,a1,1
    80000174:	00068463          	beqz	a3,8000017c <__muldi3+0x14>
    80000178:	00c50533          	add	a0,a0,a2
    8000017c:	0015d593          	srli	a1,a1,0x1
    80000180:	00161613          	slli	a2,a2,0x1
    80000184:	fe0596e3          	bnez	a1,80000170 <__muldi3+0x8>
    80000188:	00008067          	ret

000000008000018c <__udivsi3>:
    8000018c:	02051513          	slli	a0,a0,0x20
    80000190:	02059593          	slli	a1,a1,0x20
    80000194:	00008293          	mv	t0,ra
    80000198:	03c000ef          	jal	ra,800001d4 <__udivdi3>
    8000019c:	0005051b          	sext.w	a0,a0
    800001a0:	00028067          	jr	t0

00000000800001a4 <__umodsi3>:
    800001a4:	02051513          	slli	a0,a0,0x20
    800001a8:	02059593          	slli	a1,a1,0x20
    800001ac:	02055513          	srli	a0,a0,0x20
    800001b0:	0205d593          	srli	a1,a1,0x20
    800001b4:	00008293          	mv	t0,ra
    800001b8:	01c000ef          	jal	ra,800001d4 <__udivdi3>
    800001bc:	0005851b          	sext.w	a0,a1
    800001c0:	00028067          	jr	t0

00000000800001c4 <__divsi3>:
    800001c4:	fff00293          	li	t0,-1
    800001c8:	0a558c63          	beq	a1,t0,80000280 <__moddi3+0x30>

00000000800001cc <__divdi3>:
    800001cc:	06054063          	bltz	a0,8000022c <__umoddi3+0x10>
    800001d0:	0605c663          	bltz	a1,8000023c <__umoddi3+0x20>

00000000800001d4 <__udivdi3>:
    800001d4:	00058613          	mv	a2,a1
    800001d8:	00050593          	mv	a1,a0
    800001dc:	fff00513          	li	a0,-1
    800001e0:	02060c63          	beqz	a2,80000218 <__udivdi3+0x44>
    800001e4:	00100693          	li	a3,1
    800001e8:	00b67a63          	bgeu	a2,a1,800001fc <__udivdi3+0x28>
    800001ec:	00c05863          	blez	a2,800001fc <__udivdi3+0x28>
    800001f0:	00161613          	slli	a2,a2,0x1
    800001f4:	00169693          	slli	a3,a3,0x1
    800001f8:	feb66ae3          	bltu	a2,a1,800001ec <__udivdi3+0x18>
    800001fc:	00000513          	li	a0,0
    80000200:	00c5e663          	bltu	a1,a2,8000020c <__udivdi3+0x38>
    80000204:	40c585b3          	sub	a1,a1,a2
    80000208:	00d56533          	or	a0,a0,a3
    8000020c:	0016d693          	srli	a3,a3,0x1
    80000210:	00165613          	srli	a2,a2,0x1
    80000214:	fe0696e3          	bnez	a3,80000200 <__udivdi3+0x2c>
    80000218:	00008067          	ret

000000008000021c <__umoddi3>:
    8000021c:	00008293          	mv	t0,ra
    80000220:	fb5ff0ef          	jal	ra,800001d4 <__udivdi3>
    80000224:	00058513          	mv	a0,a1
    80000228:	00028067          	jr	t0
    8000022c:	40a00533          	neg	a0,a0
    80000230:	00b04863          	bgtz	a1,80000240 <__umoddi3+0x24>
    80000234:	40b005b3          	neg	a1,a1
    80000238:	f9dff06f          	j	800001d4 <__udivdi3>
    8000023c:	40b005b3          	neg	a1,a1
    80000240:	00008293          	mv	t0,ra
    80000244:	f91ff0ef          	jal	ra,800001d4 <__udivdi3>
    80000248:	40a00533          	neg	a0,a0
    8000024c:	00028067          	jr	t0

0000000080000250 <__moddi3>:
    80000250:	00008293          	mv	t0,ra
    80000254:	0005ca63          	bltz	a1,80000268 <__moddi3+0x18>
    80000258:	00054c63          	bltz	a0,80000270 <__moddi3+0x20>
    8000025c:	f79ff0ef          	jal	ra,800001d4 <__udivdi3>
    80000260:	00058513          	mv	a0,a1
    80000264:	00028067          	jr	t0
    80000268:	40b005b3          	neg	a1,a1
    8000026c:	fe0558e3          	bgez	a0,8000025c <__moddi3+0xc>
    80000270:	40a00533          	neg	a0,a0
    80000274:	f61ff0ef          	jal	ra,800001d4 <__udivdi3>
    80000278:	40b00533          	neg	a0,a1
    8000027c:	00028067          	jr	t0
    80000280:	01f29293          	slli	t0,t0,0x1f
    80000284:	f45514e3          	bne	a0,t0,800001cc <__divdi3>
    80000288:	00008067          	ret

000000008000028c <heap_init>:
    8000028c:	00000797          	auipc	a5,0x0
    80000290:	21c78793          	addi	a5,a5,540 # 800004a8 <heap>
    80000294:	0007b503          	ld	a0,0(a5)
    80000298:	0087b583          	ld	a1,8(a5)
    8000029c:	ff010113          	addi	sp,sp,-16
    800002a0:	00000693          	li	a3,0
    800002a4:	00000613          	li	a2,0
    800002a8:	40a585b3          	sub	a1,a1,a0
    800002ac:	00113423          	sd	ra,8(sp)
    800002b0:	018000ef          	jal	ra,800002c8 <o1heapInit>
    800002b4:	00813083          	ld	ra,8(sp)
    800002b8:	00000797          	auipc	a5,0x0
    800002bc:	20a7b023          	sd	a0,512(a5) # 800004b8 <heap_inst>
    800002c0:	01010113          	addi	sp,sp,16
    800002c4:	00008067          	ret

00000000800002c8 <o1heapInit>:
    800002c8:	1a050e63          	beqz	a0,80000484 <o1heapInit+0x1bc>
    800002cc:	fd010113          	addi	sp,sp,-48
    800002d0:	02813023          	sd	s0,32(sp)
    800002d4:	00913c23          	sd	s1,24(sp)
    800002d8:	01f57793          	andi	a5,a0,31
    800002dc:	02113423          	sd	ra,40(sp)
    800002e0:	01213823          	sd	s2,16(sp)
    800002e4:	01313423          	sd	s3,8(sp)
    800002e8:	01413023          	sd	s4,0(sp)
    800002ec:	00050493          	mv	s1,a0
    800002f0:	00050413          	mv	s0,a0
    800002f4:	00000513          	li	a0,0
    800002f8:	14079a63          	bnez	a5,8000044c <o1heapInit+0x184>
    800002fc:	27f00713          	li	a4,639
    80000300:	00058913          	mv	s2,a1
    80000304:	00078513          	mv	a0,a5
    80000308:	14b77263          	bgeu	a4,a1,8000044c <o1heapInit+0x184>
    8000030c:	0074f513          	andi	a0,s1,7
    80000310:	00153513          	seqz	a0,a0
    80000314:	00060a13          	mv	s4,a2
    80000318:	00068993          	mv	s3,a3
    8000031c:	e11ff0ef          	jal	ra,8000012c <_assert>
    80000320:	20048793          	addi	a5,s1,512
    80000324:	2004b023          	sd	zero,512(s1)
    80000328:	2144b423          	sd	s4,520(s1)
    8000032c:	2134b823          	sd	s3,528(s1)
    80000330:	00043023          	sd	zero,0(s0)
    80000334:	00840413          	addi	s0,s0,8
    80000338:	fe879ce3          	bne	a5,s0,80000330 <o1heapInit+0x68>
    8000033c:	fff00793          	li	a5,-1
    80000340:	dc090413          	addi	s0,s2,-576
    80000344:	03f79793          	slli	a5,a5,0x3f
    80000348:	1287f863          	bgeu	a5,s0,80000478 <o1heapInit+0x1b0>
    8000034c:	00078413          	mv	s0,a5
    80000350:	00100513          	li	a0,1
    80000354:	dd9ff0ef          	jal	ra,8000012c <_assert>
    80000358:	f8300793          	li	a5,-125
    8000035c:	0017d793          	srli	a5,a5,0x1
    80000360:	fc040513          	addi	a0,s0,-64
    80000364:	00f53533          	sltu	a0,a0,a5
    80000368:	dc5ff0ef          	jal	ra,8000012c <_assert>
    8000036c:	01f4f513          	andi	a0,s1,31
    80000370:	00153513          	seqz	a0,a0
    80000374:	db9ff0ef          	jal	ra,8000012c <_assert>
    80000378:	00100513          	li	a0,1
    8000037c:	2404b023          	sd	zero,576(s1)
    80000380:	2404b423          	sd	zero,584(s1)
    80000384:	2484b823          	sd	s0,592(s1)
    80000388:	24048c23          	sb	zero,600(s1)
    8000038c:	2604b023          	sd	zero,608(s1)
    80000390:	2604b423          	sd	zero,616(s1)
    80000394:	d99ff0ef          	jal	ra,8000012c <_assert>
    80000398:	00100513          	li	a0,1
    8000039c:	d91ff0ef          	jal	ra,8000012c <_assert>
    800003a0:	2504b503          	ld	a0,592(s1)
    800003a4:	24048a13          	addi	s4,s1,576
    800003a8:	04053513          	sltiu	a0,a0,64
    800003ac:	00154513          	xori	a0,a0,1
    800003b0:	00157513          	andi	a0,a0,1
    800003b4:	d79ff0ef          	jal	ra,8000012c <_assert>
    800003b8:	2504b503          	ld	a0,592(s1)
    800003bc:	03f57513          	andi	a0,a0,63
    800003c0:	00153513          	seqz	a0,a0
    800003c4:	d69ff0ef          	jal	ra,8000012c <_assert>
    800003c8:	2504b703          	ld	a4,592(s1)
    800003cc:	00100793          	li	a5,1
    800003d0:	00675713          	srli	a4,a4,0x6
    800003d4:	0ae7fc63          	bgeu	a5,a4,8000048c <o1heapInit+0x1c4>
    800003d8:	00000793          	li	a5,0
    800003dc:	00100693          	li	a3,1
    800003e0:	0017879b          	addiw	a5,a5,1
    800003e4:	00175713          	srli	a4,a4,0x1
    800003e8:	0ff7f793          	andi	a5,a5,255
    800003ec:	fed71ae3          	bne	a4,a3,800003e0 <o1heapInit+0x118>
    800003f0:	00078993          	mv	s3,a5
    800003f4:	0407b513          	sltiu	a0,a5,64
    800003f8:	00f71933          	sll	s2,a4,a5
    800003fc:	d31ff0ef          	jal	ra,8000012c <_assert>
    80000400:	00399793          	slli	a5,s3,0x3
    80000404:	00f487b3          	add	a5,s1,a5
    80000408:	0007b703          	ld	a4,0(a5)
    8000040c:	2604b423          	sd	zero,616(s1)
    80000410:	26e4b023          	sd	a4,608(s1)
    80000414:	00070463          	beqz	a4,8000041c <o1heapInit+0x154>
    80000418:	03473423          	sd	s4,40(a4)
    8000041c:	0147b023          	sd	s4,0(a5)
    80000420:	2004b503          	ld	a0,512(s1)
    80000424:	00a96533          	or	a0,s2,a0
    80000428:	20a4b023          	sd	a0,512(s1)
    8000042c:	00a03533          	snez	a0,a0
    80000430:	cfdff0ef          	jal	ra,8000012c <_assert>
    80000434:	00048513          	mv	a0,s1
    80000438:	2084bc23          	sd	s0,536(s1)
    8000043c:	2204b023          	sd	zero,544(s1)
    80000440:	2204b423          	sd	zero,552(s1)
    80000444:	2204b823          	sd	zero,560(s1)
    80000448:	2204bc23          	sd	zero,568(s1)
    8000044c:	02813083          	ld	ra,40(sp)
    80000450:	02013403          	ld	s0,32(sp)
    80000454:	01813483          	ld	s1,24(sp)
    80000458:	01013903          	ld	s2,16(sp)
    8000045c:	00813983          	ld	s3,8(sp)
    80000460:	00013a03          	ld	s4,0(sp)
    80000464:	03010113          	addi	sp,sp,48
    80000468:	00008067          	ret
    8000046c:	00100513          	li	a0,1
    80000470:	fff40413          	addi	s0,s0,-1
    80000474:	cb9ff0ef          	jal	ra,8000012c <_assert>
    80000478:	03f47793          	andi	a5,s0,63
    8000047c:	fe0798e3          	bnez	a5,8000046c <o1heapInit+0x1a4>
    80000480:	ed1ff06f          	j	80000350 <o1heapInit+0x88>
    80000484:	00000513          	li	a0,0
    80000488:	00008067          	ret
    8000048c:	00100913          	li	s2,1
    80000490:	00000993          	li	s3,0
    80000494:	00100513          	li	a0,1
    80000498:	f65ff06f          	j	800003fc <o1heapInit+0x134>
