
/home/hzb/test/am-kernels/tests/cpu-tests/build/string-riscv64-mycpu.elf:     file format elf64-littleriscv


Disassembly of section .text:

0000000080000000 <_start>:
    80000000:	00000413          	li	s0,0
    80000004:	00009117          	auipc	sp,0x9
    80000008:	ffc10113          	addi	sp,sp,-4 # 80009000 <_end>
    8000000c:	138000ef          	jal	ra,80000144 <_trm_init>

0000000080000010 <check>:
    80000010:	00050463          	beqz	a0,80000018 <check+0x8>
    80000014:	00008067          	ret
    80000018:	ff010113          	addi	sp,sp,-16
    8000001c:	00100513          	li	a0,1
    80000020:	00113423          	sd	ra,8(sp)
    80000024:	0fc000ef          	jal	ra,80000120 <halt>

0000000080000028 <main>:
    80000028:	ff010113          	addi	sp,sp,-16
    8000002c:	00813023          	sd	s0,0(sp)
    80000030:	00001417          	auipc	s0,0x1
    80000034:	95840413          	addi	s0,s0,-1704 # 80000988 <s>
    80000038:	01043583          	ld	a1,16(s0)
    8000003c:	00043503          	ld	a0,0(s0)
    80000040:	00113423          	sd	ra,8(sp)
    80000044:	124000ef          	jal	ra,80000168 <strcmp>
    80000048:	00153513          	seqz	a0,a0
    8000004c:	fc5ff0ef          	jal	ra,80000010 <check>
    80000050:	00843583          	ld	a1,8(s0)
    80000054:	00043503          	ld	a0,0(s0)
    80000058:	110000ef          	jal	ra,80000168 <strcmp>
    8000005c:	01f5551b          	srliw	a0,a0,0x1f
    80000060:	fb1ff0ef          	jal	ra,80000010 <check>
    80000064:	00843583          	ld	a1,8(s0)
    80000068:	00043503          	ld	a0,0(s0)
    8000006c:	00158593          	addi	a1,a1,1
    80000070:	00150513          	addi	a0,a0,1
    80000074:	0f4000ef          	jal	ra,80000168 <strcmp>
    80000078:	01f5551b          	srliw	a0,a0,0x1f
    8000007c:	f95ff0ef          	jal	ra,80000010 <check>
    80000080:	00843583          	ld	a1,8(s0)
    80000084:	00043503          	ld	a0,0(s0)
    80000088:	00258593          	addi	a1,a1,2
    8000008c:	00250513          	addi	a0,a0,2
    80000090:	0d8000ef          	jal	ra,80000168 <strcmp>
    80000094:	01f5551b          	srliw	a0,a0,0x1f
    80000098:	f79ff0ef          	jal	ra,80000010 <check>
    8000009c:	00843583          	ld	a1,8(s0)
    800000a0:	00043503          	ld	a0,0(s0)
    800000a4:	00358593          	addi	a1,a1,3
    800000a8:	00350513          	addi	a0,a0,3
    800000ac:	0bc000ef          	jal	ra,80000168 <strcmp>
    800000b0:	01f5551b          	srliw	a0,a0,0x1f
    800000b4:	f5dff0ef          	jal	ra,80000010 <check>
    800000b8:	00001597          	auipc	a1,0x1
    800000bc:	90058593          	addi	a1,a1,-1792 # 800009b8 <str1>
    800000c0:	00001517          	auipc	a0,0x1
    800000c4:	91850513          	addi	a0,a0,-1768 # 800009d8 <str>
    800000c8:	620000ef          	jal	ra,800006e8 <strcpy>
    800000cc:	01843583          	ld	a1,24(s0)
    800000d0:	634000ef          	jal	ra,80000704 <strcat>
    800000d4:	02043583          	ld	a1,32(s0)
    800000d8:	090000ef          	jal	ra,80000168 <strcmp>
    800000dc:	00153513          	seqz	a0,a0
    800000e0:	f31ff0ef          	jal	ra,80000010 <check>
    800000e4:	00500613          	li	a2,5
    800000e8:	02300593          	li	a1,35
    800000ec:	00001517          	auipc	a0,0x1
    800000f0:	8ec50513          	addi	a0,a0,-1812 # 800009d8 <str>
    800000f4:	514000ef          	jal	ra,80000608 <memset>
    800000f8:	02843583          	ld	a1,40(s0)
    800000fc:	00500613          	li	a2,5
    80000100:	0cc000ef          	jal	ra,800001cc <memcmp>
    80000104:	00153513          	seqz	a0,a0
    80000108:	f09ff0ef          	jal	ra,80000010 <check>
    8000010c:	00813083          	ld	ra,8(sp)
    80000110:	00013403          	ld	s0,0(sp)
    80000114:	00000513          	li	a0,0
    80000118:	01010113          	addi	sp,sp,16
    8000011c:	00008067          	ret

0000000080000120 <halt>:
    80000120:	00050513          	mv	a0,a0
    80000124:	0000006b          	0x6b
    80000128:	0000006f          	j	80000128 <halt+0x8>

000000008000012c <_assert>:
    8000012c:	00051a63          	bnez	a0,80000140 <_assert+0x14>
    80000130:	00100793          	li	a5,1
    80000134:	00078513          	mv	a0,a5
    80000138:	0000006b          	0x6b
    8000013c:	0000006f          	j	8000013c <_assert+0x10>
    80000140:	00008067          	ret

0000000080000144 <_trm_init>:
    80000144:	ff010113          	addi	sp,sp,-16
    80000148:	00113423          	sd	ra,8(sp)
    8000014c:	044000ef          	jal	ra,80000190 <heap_init>
    80000150:	00001517          	auipc	a0,0x1
    80000154:	83050513          	addi	a0,a0,-2000 # 80000980 <mainargs>
    80000158:	ed1ff0ef          	jal	ra,80000028 <main>
    8000015c:	00050513          	mv	a0,a0
    80000160:	0000006b          	0x6b
    80000164:	0000006f          	j	80000164 <_trm_init+0x20>

0000000080000168 <strcmp>:
    80000168:	00054783          	lbu	a5,0(a0)
    8000016c:	00158593          	addi	a1,a1,1
    80000170:	00150513          	addi	a0,a0,1
    80000174:	fff5c703          	lbu	a4,-1(a1)
    80000178:	00078863          	beqz	a5,80000188 <strcmp+0x20>
    8000017c:	fee786e3          	beq	a5,a4,80000168 <strcmp>
    80000180:	40e7853b          	subw	a0,a5,a4
    80000184:	00008067          	ret
    80000188:	40e0053b          	negw	a0,a4
    8000018c:	00008067          	ret

0000000080000190 <heap_init>:
    80000190:	00001797          	auipc	a5,0x1
    80000194:	83078793          	addi	a5,a5,-2000 # 800009c0 <heap>
    80000198:	0007b503          	ld	a0,0(a5)
    8000019c:	0087b583          	ld	a1,8(a5)
    800001a0:	ff010113          	addi	sp,sp,-16
    800001a4:	00000693          	li	a3,0
    800001a8:	00000613          	li	a2,0
    800001ac:	40a585b3          	sub	a1,a1,a0
    800001b0:	00113423          	sd	ra,8(sp)
    800001b4:	580000ef          	jal	ra,80000734 <o1heapInit>
    800001b8:	00813083          	ld	ra,8(sp)
    800001bc:	00001797          	auipc	a5,0x1
    800001c0:	80a7ba23          	sd	a0,-2028(a5) # 800009d0 <heap_inst>
    800001c4:	01010113          	addi	sp,sp,16
    800001c8:	00008067          	ret

00000000800001cc <memcmp>:
    800001cc:	00f00793          	li	a5,15
    800001d0:	02c7ea63          	bltu	a5,a2,80000204 <memcmp+0x38>
    800001d4:	02060463          	beqz	a2,800001fc <memcmp+0x30>
    800001d8:	00a60633          	add	a2,a2,a0
    800001dc:	40a585b3          	sub	a1,a1,a0
    800001e0:	00a587b3          	add	a5,a1,a0
    800001e4:	00054703          	lbu	a4,0(a0)
    800001e8:	0007c783          	lbu	a5,0(a5)
    800001ec:	00150513          	addi	a0,a0,1
    800001f0:	40f706b3          	sub	a3,a4,a5
    800001f4:	04f71663          	bne	a4,a5,80000240 <memcmp+0x74>
    800001f8:	fec514e3          	bne	a0,a2,800001e0 <memcmp+0x14>
    800001fc:	00000513          	li	a0,0
    80000200:	00008067          	ret
    80000204:	0075f793          	andi	a5,a1,7
    80000208:	00058713          	mv	a4,a1
    8000020c:	02078e63          	beqz	a5,80000248 <memcmp+0x7c>
    80000210:	00c50633          	add	a2,a0,a2
    80000214:	0100006f          	j	80000224 <memcmp+0x58>
    80000218:	40a606b3          	sub	a3,a2,a0
    8000021c:	00058713          	mv	a4,a1
    80000220:	02080663          	beqz	a6,8000024c <memcmp+0x80>
    80000224:	0005c783          	lbu	a5,0(a1)
    80000228:	00054703          	lbu	a4,0(a0)
    8000022c:	00158593          	addi	a1,a1,1
    80000230:	0075f813          	andi	a6,a1,7
    80000234:	00150513          	addi	a0,a0,1
    80000238:	40f706b3          	sub	a3,a4,a5
    8000023c:	fcf70ee3          	beq	a4,a5,80000218 <memcmp+0x4c>
    80000240:	0006851b          	sext.w	a0,a3
    80000244:	00008067          	ret
    80000248:	00060693          	mv	a3,a2
    8000024c:	0036d793          	srli	a5,a3,0x3
    80000250:	00757813          	andi	a6,a0,7
    80000254:	ff010113          	addi	sp,sp,-16
    80000258:	0037f613          	andi	a2,a5,3
    8000025c:	0a081663          	bnez	a6,80000308 <memcmp+0x13c>
    80000260:	00100813          	li	a6,1
    80000264:	1d060263          	beq	a2,a6,80000428 <memcmp+0x25c>
    80000268:	00300813          	li	a6,3
    8000026c:	17060a63          	beq	a2,a6,800003e0 <memcmp+0x214>
    80000270:	12060663          	beqz	a2,8000039c <memcmp+0x1d0>
    80000274:	00053e03          	ld	t3,0(a0)
    80000278:	0005b303          	ld	t1,0(a1)
    8000027c:	ff050613          	addi	a2,a0,-16
    80000280:	ff070593          	addi	a1,a4,-16
    80000284:	00278793          	addi	a5,a5,2
    80000288:	01863883          	ld	a7,24(a2)
    8000028c:	0185b803          	ld	a6,24(a1)
    80000290:	346e0863          	beq	t3,t1,800005e0 <memcmp+0x414>
    80000294:	01c13423          	sd	t3,8(sp)
    80000298:	00613023          	sd	t1,0(sp)
    8000029c:	00810593          	addi	a1,sp,8
    800002a0:	00010613          	mv	a2,sp
    800002a4:	0005c783          	lbu	a5,0(a1)
    800002a8:	00064803          	lbu	a6,0(a2)
    800002ac:	00158593          	addi	a1,a1,1
    800002b0:	00160613          	addi	a2,a2,1
    800002b4:	ff0788e3          	beq	a5,a6,800002a4 <memcmp+0xd8>
    800002b8:	410787bb          	subw	a5,a5,a6
    800002bc:	0c079c63          	bnez	a5,80000394 <memcmp+0x1c8>
    800002c0:	ff86f593          	andi	a1,a3,-8
    800002c4:	0076f613          	andi	a2,a3,7
    800002c8:	00b50533          	add	a0,a0,a1
    800002cc:	00e585b3          	add	a1,a1,a4
    800002d0:	0a060c63          	beqz	a2,80000388 <memcmp+0x1bc>
    800002d4:	00a60633          	add	a2,a2,a0
    800002d8:	40a585b3          	sub	a1,a1,a0
    800002dc:	0080006f          	j	800002e4 <memcmp+0x118>
    800002e0:	0ac50463          	beq	a0,a2,80000388 <memcmp+0x1bc>
    800002e4:	00a587b3          	add	a5,a1,a0
    800002e8:	00054703          	lbu	a4,0(a0)
    800002ec:	0007c783          	lbu	a5,0(a5)
    800002f0:	00150513          	addi	a0,a0,1
    800002f4:	40f706b3          	sub	a3,a4,a5
    800002f8:	fef704e3          	beq	a4,a5,800002e0 <memcmp+0x114>
    800002fc:	0006851b          	sext.w	a0,a3
    80000300:	01010113          	addi	sp,sp,16
    80000304:	00008067          	ret
    80000308:	0038189b          	slliw	a7,a6,0x3
    8000030c:	04000313          	li	t1,64
    80000310:	00100e13          	li	t3,1
    80000314:	411308bb          	subw	a7,t1,a7
    80000318:	00381813          	slli	a6,a6,0x3
    8000031c:	ff857313          	andi	t1,a0,-8
    80000320:	21c60063          	beq	a2,t3,80000520 <memcmp+0x354>
    80000324:	00300e13          	li	t3,3
    80000328:	1bc60063          	beq	a2,t3,800004c8 <memcmp+0x2fc>
    8000032c:	14060463          	beqz	a2,80000474 <memcmp+0x2a8>
    80000330:	00033e83          	ld	t4,0(t1)
    80000334:	00833603          	ld	a2,8(t1)
    80000338:	0005b283          	ld	t0,0(a1)
    8000033c:	ff830f13          	addi	t5,t1,-8
    80000340:	ff070593          	addi	a1,a4,-16
    80000344:	00278793          	addi	a5,a5,2
    80000348:	010ede33          	srl	t3,t4,a6
    8000034c:	01161333          	sll	t1,a2,a7
    80000350:	006e6e33          	or	t3,t3,t1
    80000354:	018f3e83          	ld	t4,24(t5)
    80000358:	0185bf83          	ld	t6,24(a1)
    8000035c:	285e0c63          	beq	t3,t0,800005f4 <memcmp+0x428>
    80000360:	01c13423          	sd	t3,8(sp)
    80000364:	00513023          	sd	t0,0(sp)
    80000368:	00810593          	addi	a1,sp,8
    8000036c:	00010613          	mv	a2,sp
    80000370:	0005c783          	lbu	a5,0(a1)
    80000374:	00064803          	lbu	a6,0(a2)
    80000378:	00158593          	addi	a1,a1,1
    8000037c:	00160613          	addi	a2,a2,1
    80000380:	ff0788e3          	beq	a5,a6,80000370 <memcmp+0x1a4>
    80000384:	f35ff06f          	j	800002b8 <memcmp+0xec>
    80000388:	00000513          	li	a0,0
    8000038c:	01010113          	addi	sp,sp,16
    80000390:	00008067          	ret
    80000394:	0007851b          	sext.w	a0,a5
    80000398:	f69ff06f          	j	80000300 <memcmp+0x134>
    8000039c:	f20782e3          	beqz	a5,800002c0 <memcmp+0xf4>
    800003a0:	00053e03          	ld	t3,0(a0)
    800003a4:	0005b303          	ld	t1,0(a1)
    800003a8:	00050613          	mv	a2,a0
    800003ac:	00863883          	ld	a7,8(a2)
    800003b0:	0085b803          	ld	a6,8(a1)
    800003b4:	046e0063          	beq	t3,t1,800003f4 <memcmp+0x228>
    800003b8:	01c13423          	sd	t3,8(sp)
    800003bc:	00613023          	sd	t1,0(sp)
    800003c0:	00810593          	addi	a1,sp,8
    800003c4:	00010613          	mv	a2,sp
    800003c8:	0005c783          	lbu	a5,0(a1)
    800003cc:	00064803          	lbu	a6,0(a2)
    800003d0:	00158593          	addi	a1,a1,1
    800003d4:	00160613          	addi	a2,a2,1
    800003d8:	ff0788e3          	beq	a5,a6,800003c8 <memcmp+0x1fc>
    800003dc:	eddff06f          	j	800002b8 <memcmp+0xec>
    800003e0:	00053883          	ld	a7,0(a0)
    800003e4:	0005b803          	ld	a6,0(a1)
    800003e8:	ff850613          	addi	a2,a0,-8
    800003ec:	ff870593          	addi	a1,a4,-8
    800003f0:	00178793          	addi	a5,a5,1
    800003f4:	01063e03          	ld	t3,16(a2)
    800003f8:	0105b303          	ld	t1,16(a1)
    800003fc:	e90886e3          	beq	a7,a6,80000288 <memcmp+0xbc>
    80000400:	01113423          	sd	a7,8(sp)
    80000404:	01013023          	sd	a6,0(sp)
    80000408:	00810593          	addi	a1,sp,8
    8000040c:	00010613          	mv	a2,sp
    80000410:	0005c783          	lbu	a5,0(a1)
    80000414:	00064803          	lbu	a6,0(a2)
    80000418:	00158593          	addi	a1,a1,1
    8000041c:	00160613          	addi	a2,a2,1
    80000420:	ff0788e3          	beq	a5,a6,80000410 <memcmp+0x244>
    80000424:	e95ff06f          	j	800002b8 <memcmp+0xec>
    80000428:	fff78793          	addi	a5,a5,-1
    8000042c:	00053883          	ld	a7,0(a0)
    80000430:	0005b803          	ld	a6,0(a1)
    80000434:	14078463          	beqz	a5,8000057c <memcmp+0x3b0>
    80000438:	00850613          	addi	a2,a0,8
    8000043c:	00870593          	addi	a1,a4,8
    80000440:	00063e03          	ld	t3,0(a2)
    80000444:	0005b303          	ld	t1,0(a1)
    80000448:	f70882e3          	beq	a7,a6,800003ac <memcmp+0x1e0>
    8000044c:	01113423          	sd	a7,8(sp)
    80000450:	01013023          	sd	a6,0(sp)
    80000454:	00810593          	addi	a1,sp,8
    80000458:	00010613          	mv	a2,sp
    8000045c:	0005c783          	lbu	a5,0(a1)
    80000460:	00064803          	lbu	a6,0(a2)
    80000464:	00158593          	addi	a1,a1,1
    80000468:	00160613          	addi	a2,a2,1
    8000046c:	ff0788e3          	beq	a5,a6,8000045c <memcmp+0x290>
    80000470:	e49ff06f          	j	800002b8 <memcmp+0xec>
    80000474:	e40786e3          	beqz	a5,800002c0 <memcmp+0xf4>
    80000478:	00033e83          	ld	t4,0(t1)
    8000047c:	00833e03          	ld	t3,8(t1)
    80000480:	0005b283          	ld	t0,0(a1)
    80000484:	00830f13          	addi	t5,t1,8
    80000488:	010ed633          	srl	a2,t4,a6
    8000048c:	011e1333          	sll	t1,t3,a7
    80000490:	00666633          	or	a2,a2,t1
    80000494:	008f3e83          	ld	t4,8(t5)
    80000498:	0085b303          	ld	t1,8(a1)
    8000049c:	04560263          	beq	a2,t0,800004e0 <memcmp+0x314>
    800004a0:	00c13423          	sd	a2,8(sp)
    800004a4:	00513023          	sd	t0,0(sp)
    800004a8:	00810593          	addi	a1,sp,8
    800004ac:	00010613          	mv	a2,sp
    800004b0:	0005c783          	lbu	a5,0(a1)
    800004b4:	00064803          	lbu	a6,0(a2)
    800004b8:	00158593          	addi	a1,a1,1
    800004bc:	00160613          	addi	a2,a2,1
    800004c0:	ff0788e3          	beq	a5,a6,800004b0 <memcmp+0x2e4>
    800004c4:	df5ff06f          	j	800002b8 <memcmp+0xec>
    800004c8:	00033e03          	ld	t3,0(t1)
    800004cc:	00833e83          	ld	t4,8(t1)
    800004d0:	00030f13          	mv	t5,t1
    800004d4:	00178793          	addi	a5,a5,1
    800004d8:	0005b303          	ld	t1,0(a1)
    800004dc:	ff870593          	addi	a1,a4,-8
    800004e0:	011e9633          	sll	a2,t4,a7
    800004e4:	010e5e33          	srl	t3,t3,a6
    800004e8:	00ce6e33          	or	t3,t3,a2
    800004ec:	0105b283          	ld	t0,16(a1)
    800004f0:	010f3603          	ld	a2,16(t5)
    800004f4:	e46e0ae3          	beq	t3,t1,80000348 <memcmp+0x17c>
    800004f8:	01c13423          	sd	t3,8(sp)
    800004fc:	00613023          	sd	t1,0(sp)
    80000500:	00810593          	addi	a1,sp,8
    80000504:	00010613          	mv	a2,sp
    80000508:	0005c783          	lbu	a5,0(a1)
    8000050c:	00064803          	lbu	a6,0(a2)
    80000510:	00158593          	addi	a1,a1,1
    80000514:	00160613          	addi	a2,a2,1
    80000518:	ff0788e3          	beq	a5,a6,80000508 <memcmp+0x33c>
    8000051c:	d9dff06f          	j	800002b8 <memcmp+0xec>
    80000520:	fff78793          	addi	a5,a5,-1
    80000524:	00033603          	ld	a2,0(t1)
    80000528:	00833e83          	ld	t4,8(t1)
    8000052c:	0005bf83          	ld	t6,0(a1)
    80000530:	06078c63          	beqz	a5,800005a8 <memcmp+0x3dc>
    80000534:	01030f13          	addi	t5,t1,16
    80000538:	00870593          	addi	a1,a4,8
    8000053c:	01065633          	srl	a2,a2,a6
    80000540:	011e9333          	sll	t1,t4,a7
    80000544:	00666633          	or	a2,a2,t1
    80000548:	000f3e03          	ld	t3,0(t5)
    8000054c:	0005b283          	ld	t0,0(a1)
    80000550:	f3f60ce3          	beq	a2,t6,80000488 <memcmp+0x2bc>
    80000554:	00c13423          	sd	a2,8(sp)
    80000558:	01f13023          	sd	t6,0(sp)
    8000055c:	00810593          	addi	a1,sp,8
    80000560:	00010613          	mv	a2,sp
    80000564:	0005c783          	lbu	a5,0(a1)
    80000568:	00064803          	lbu	a6,0(a2)
    8000056c:	00158593          	addi	a1,a1,1
    80000570:	00160613          	addi	a2,a2,1
    80000574:	ff0788e3          	beq	a5,a6,80000564 <memcmp+0x398>
    80000578:	d41ff06f          	j	800002b8 <memcmp+0xec>
    8000057c:	d50882e3          	beq	a7,a6,800002c0 <memcmp+0xf4>
    80000580:	01113423          	sd	a7,8(sp)
    80000584:	01013023          	sd	a6,0(sp)
    80000588:	00810593          	addi	a1,sp,8
    8000058c:	00010613          	mv	a2,sp
    80000590:	0005c783          	lbu	a5,0(a1)
    80000594:	00064803          	lbu	a6,0(a2)
    80000598:	00158593          	addi	a1,a1,1
    8000059c:	00160613          	addi	a2,a2,1
    800005a0:	ff0788e3          	beq	a5,a6,80000590 <memcmp+0x3c4>
    800005a4:	d15ff06f          	j	800002b8 <memcmp+0xec>
    800005a8:	01065833          	srl	a6,a2,a6
    800005ac:	011e97b3          	sll	a5,t4,a7
    800005b0:	00f867b3          	or	a5,a6,a5
    800005b4:	d1f786e3          	beq	a5,t6,800002c0 <memcmp+0xf4>
    800005b8:	00f13423          	sd	a5,8(sp)
    800005bc:	01f13023          	sd	t6,0(sp)
    800005c0:	00810593          	addi	a1,sp,8
    800005c4:	00010613          	mv	a2,sp
    800005c8:	0005c783          	lbu	a5,0(a1)
    800005cc:	00064803          	lbu	a6,0(a2)
    800005d0:	00158593          	addi	a1,a1,1
    800005d4:	00160613          	addi	a2,a2,1
    800005d8:	ff0788e3          	beq	a5,a6,800005c8 <memcmp+0x3fc>
    800005dc:	cddff06f          	j	800002b8 <memcmp+0xec>
    800005e0:	ffc78793          	addi	a5,a5,-4
    800005e4:	f8078ce3          	beqz	a5,8000057c <memcmp+0x3b0>
    800005e8:	02060613          	addi	a2,a2,32
    800005ec:	02058593          	addi	a1,a1,32
    800005f0:	e51ff06f          	j	80000440 <memcmp+0x274>
    800005f4:	ffc78793          	addi	a5,a5,-4
    800005f8:	fa0788e3          	beqz	a5,800005a8 <memcmp+0x3dc>
    800005fc:	020f0f13          	addi	t5,t5,32
    80000600:	02058593          	addi	a1,a1,32
    80000604:	f39ff06f          	j	8000053c <memcmp+0x370>

0000000080000608 <memset>:
    80000608:	00700713          	li	a4,7
    8000060c:	00050793          	mv	a5,a0
    80000610:	0ac77a63          	bgeu	a4,a2,800006c4 <memset+0xbc>
    80000614:	0ff5f893          	andi	a7,a1,255
    80000618:	00889693          	slli	a3,a7,0x8
    8000061c:	0116e6b3          	or	a3,a3,a7
    80000620:	01069713          	slli	a4,a3,0x10
    80000624:	00d766b3          	or	a3,a4,a3
    80000628:	02069713          	slli	a4,a3,0x20
    8000062c:	00757813          	andi	a6,a0,7
    80000630:	00d76733          	or	a4,a4,a3
    80000634:	0a080663          	beqz	a6,800006e0 <memset+0xd8>
    80000638:	00c50633          	add	a2,a0,a2
    8000063c:	01178023          	sb	a7,0(a5)
    80000640:	00178793          	addi	a5,a5,1
    80000644:	0077f813          	andi	a6,a5,7
    80000648:	40f606b3          	sub	a3,a2,a5
    8000064c:	fe0818e3          	bnez	a6,8000063c <memset+0x34>
    80000650:	0066d813          	srli	a6,a3,0x6
    80000654:	04080063          	beqz	a6,80000694 <memset+0x8c>
    80000658:	00681613          	slli	a2,a6,0x6
    8000065c:	00078893          	mv	a7,a5
    80000660:	00f60633          	add	a2,a2,a5
    80000664:	00e7b023          	sd	a4,0(a5)
    80000668:	00e7b423          	sd	a4,8(a5)
    8000066c:	00e7b823          	sd	a4,16(a5)
    80000670:	00e7bc23          	sd	a4,24(a5)
    80000674:	02e7b023          	sd	a4,32(a5)
    80000678:	02e7b423          	sd	a4,40(a5)
    8000067c:	02e7b823          	sd	a4,48(a5)
    80000680:	02e7bc23          	sd	a4,56(a5)
    80000684:	04078793          	addi	a5,a5,64
    80000688:	fcf61ee3          	bne	a2,a5,80000664 <memset+0x5c>
    8000068c:	00681793          	slli	a5,a6,0x6
    80000690:	011787b3          	add	a5,a5,a7
    80000694:	0036d813          	srli	a6,a3,0x3
    80000698:	00787813          	andi	a6,a6,7
    8000069c:	02080263          	beqz	a6,800006c0 <memset+0xb8>
    800006a0:	00381613          	slli	a2,a6,0x3
    800006a4:	00078893          	mv	a7,a5
    800006a8:	00f60633          	add	a2,a2,a5
    800006ac:	00e7b023          	sd	a4,0(a5)
    800006b0:	00878793          	addi	a5,a5,8
    800006b4:	fef61ce3          	bne	a2,a5,800006ac <memset+0xa4>
    800006b8:	00381793          	slli	a5,a6,0x3
    800006bc:	011787b3          	add	a5,a5,a7
    800006c0:	0076f613          	andi	a2,a3,7
    800006c4:	0ff5f593          	andi	a1,a1,255
    800006c8:	00c78733          	add	a4,a5,a2
    800006cc:	00060863          	beqz	a2,800006dc <memset+0xd4>
    800006d0:	00b78023          	sb	a1,0(a5)
    800006d4:	00178793          	addi	a5,a5,1
    800006d8:	fef71ce3          	bne	a4,a5,800006d0 <memset+0xc8>
    800006dc:	00008067          	ret
    800006e0:	00060693          	mv	a3,a2
    800006e4:	f6dff06f          	j	80000650 <memset+0x48>

00000000800006e8 <strcpy>:
    800006e8:	40b506b3          	sub	a3,a0,a1
    800006ec:	0005c703          	lbu	a4,0(a1)
    800006f0:	00d587b3          	add	a5,a1,a3
    800006f4:	00158593          	addi	a1,a1,1
    800006f8:	00e78023          	sb	a4,0(a5)
    800006fc:	fe0718e3          	bnez	a4,800006ec <strcpy+0x4>
    80000700:	00008067          	ret

0000000080000704 <strcat>:
    80000704:	00050713          	mv	a4,a0
    80000708:	00074683          	lbu	a3,0(a4)
    8000070c:	00070793          	mv	a5,a4
    80000710:	00170713          	addi	a4,a4,1
    80000714:	fe069ae3          	bnez	a3,80000708 <strcat+0x4>
    80000718:	fff78793          	addi	a5,a5,-1
    8000071c:	0005c703          	lbu	a4,0(a1)
    80000720:	00178793          	addi	a5,a5,1
    80000724:	00158593          	addi	a1,a1,1
    80000728:	00e78023          	sb	a4,0(a5)
    8000072c:	fe0718e3          	bnez	a4,8000071c <strcat+0x18>
    80000730:	00008067          	ret

0000000080000734 <o1heapInit>:
    80000734:	1a050e63          	beqz	a0,800008f0 <o1heapInit+0x1bc>
    80000738:	fd010113          	addi	sp,sp,-48
    8000073c:	02813023          	sd	s0,32(sp)
    80000740:	00913c23          	sd	s1,24(sp)
    80000744:	01f57793          	andi	a5,a0,31
    80000748:	02113423          	sd	ra,40(sp)
    8000074c:	01213823          	sd	s2,16(sp)
    80000750:	01313423          	sd	s3,8(sp)
    80000754:	01413023          	sd	s4,0(sp)
    80000758:	00050493          	mv	s1,a0
    8000075c:	00050413          	mv	s0,a0
    80000760:	00000513          	li	a0,0
    80000764:	14079a63          	bnez	a5,800008b8 <o1heapInit+0x184>
    80000768:	27f00713          	li	a4,639
    8000076c:	00058913          	mv	s2,a1
    80000770:	00078513          	mv	a0,a5
    80000774:	14b77263          	bgeu	a4,a1,800008b8 <o1heapInit+0x184>
    80000778:	0074f513          	andi	a0,s1,7
    8000077c:	00153513          	seqz	a0,a0
    80000780:	00060a13          	mv	s4,a2
    80000784:	00068993          	mv	s3,a3
    80000788:	9a5ff0ef          	jal	ra,8000012c <_assert>
    8000078c:	20048793          	addi	a5,s1,512
    80000790:	2004b023          	sd	zero,512(s1)
    80000794:	2144b423          	sd	s4,520(s1)
    80000798:	2134b823          	sd	s3,528(s1)
    8000079c:	00043023          	sd	zero,0(s0)
    800007a0:	00840413          	addi	s0,s0,8
    800007a4:	fe879ce3          	bne	a5,s0,8000079c <o1heapInit+0x68>
    800007a8:	fff00793          	li	a5,-1
    800007ac:	dc090413          	addi	s0,s2,-576
    800007b0:	03f79793          	slli	a5,a5,0x3f
    800007b4:	1287f863          	bgeu	a5,s0,800008e4 <o1heapInit+0x1b0>
    800007b8:	00078413          	mv	s0,a5
    800007bc:	00100513          	li	a0,1
    800007c0:	96dff0ef          	jal	ra,8000012c <_assert>
    800007c4:	f8300793          	li	a5,-125
    800007c8:	0017d793          	srli	a5,a5,0x1
    800007cc:	fc040513          	addi	a0,s0,-64
    800007d0:	00f53533          	sltu	a0,a0,a5
    800007d4:	959ff0ef          	jal	ra,8000012c <_assert>
    800007d8:	01f4f513          	andi	a0,s1,31
    800007dc:	00153513          	seqz	a0,a0
    800007e0:	94dff0ef          	jal	ra,8000012c <_assert>
    800007e4:	00100513          	li	a0,1
    800007e8:	2404b023          	sd	zero,576(s1)
    800007ec:	2404b423          	sd	zero,584(s1)
    800007f0:	2484b823          	sd	s0,592(s1)
    800007f4:	24048c23          	sb	zero,600(s1)
    800007f8:	2604b023          	sd	zero,608(s1)
    800007fc:	2604b423          	sd	zero,616(s1)
    80000800:	92dff0ef          	jal	ra,8000012c <_assert>
    80000804:	00100513          	li	a0,1
    80000808:	925ff0ef          	jal	ra,8000012c <_assert>
    8000080c:	2504b503          	ld	a0,592(s1)
    80000810:	24048a13          	addi	s4,s1,576
    80000814:	04053513          	sltiu	a0,a0,64
    80000818:	00154513          	xori	a0,a0,1
    8000081c:	00157513          	andi	a0,a0,1
    80000820:	90dff0ef          	jal	ra,8000012c <_assert>
    80000824:	2504b503          	ld	a0,592(s1)
    80000828:	03f57513          	andi	a0,a0,63
    8000082c:	00153513          	seqz	a0,a0
    80000830:	8fdff0ef          	jal	ra,8000012c <_assert>
    80000834:	2504b703          	ld	a4,592(s1)
    80000838:	00100793          	li	a5,1
    8000083c:	00675713          	srli	a4,a4,0x6
    80000840:	0ae7fc63          	bgeu	a5,a4,800008f8 <o1heapInit+0x1c4>
    80000844:	00000793          	li	a5,0
    80000848:	00100693          	li	a3,1
    8000084c:	0017879b          	addiw	a5,a5,1
    80000850:	00175713          	srli	a4,a4,0x1
    80000854:	0ff7f793          	andi	a5,a5,255
    80000858:	fed71ae3          	bne	a4,a3,8000084c <o1heapInit+0x118>
    8000085c:	00078993          	mv	s3,a5
    80000860:	0407b513          	sltiu	a0,a5,64
    80000864:	00f71933          	sll	s2,a4,a5
    80000868:	8c5ff0ef          	jal	ra,8000012c <_assert>
    8000086c:	00399793          	slli	a5,s3,0x3
    80000870:	00f487b3          	add	a5,s1,a5
    80000874:	0007b703          	ld	a4,0(a5)
    80000878:	2604b423          	sd	zero,616(s1)
    8000087c:	26e4b023          	sd	a4,608(s1)
    80000880:	00070463          	beqz	a4,80000888 <o1heapInit+0x154>
    80000884:	03473423          	sd	s4,40(a4)
    80000888:	0147b023          	sd	s4,0(a5)
    8000088c:	2004b503          	ld	a0,512(s1)
    80000890:	00a96533          	or	a0,s2,a0
    80000894:	20a4b023          	sd	a0,512(s1)
    80000898:	00a03533          	snez	a0,a0
    8000089c:	891ff0ef          	jal	ra,8000012c <_assert>
    800008a0:	00048513          	mv	a0,s1
    800008a4:	2084bc23          	sd	s0,536(s1)
    800008a8:	2204b023          	sd	zero,544(s1)
    800008ac:	2204b423          	sd	zero,552(s1)
    800008b0:	2204b823          	sd	zero,560(s1)
    800008b4:	2204bc23          	sd	zero,568(s1)
    800008b8:	02813083          	ld	ra,40(sp)
    800008bc:	02013403          	ld	s0,32(sp)
    800008c0:	01813483          	ld	s1,24(sp)
    800008c4:	01013903          	ld	s2,16(sp)
    800008c8:	00813983          	ld	s3,8(sp)
    800008cc:	00013a03          	ld	s4,0(sp)
    800008d0:	03010113          	addi	sp,sp,48
    800008d4:	00008067          	ret
    800008d8:	00100513          	li	a0,1
    800008dc:	fff40413          	addi	s0,s0,-1
    800008e0:	84dff0ef          	jal	ra,8000012c <_assert>
    800008e4:	03f47793          	andi	a5,s0,63
    800008e8:	fe0798e3          	bnez	a5,800008d8 <o1heapInit+0x1a4>
    800008ec:	ed1ff06f          	j	800007bc <o1heapInit+0x88>
    800008f0:	00000513          	li	a0,0
    800008f4:	00008067          	ret
    800008f8:	00100913          	li	s2,1
    800008fc:	00000993          	li	s3,0
    80000900:	00100513          	li	a0,1
    80000904:	f65ff06f          	j	80000868 <o1heapInit+0x134>
