
/home/hzb/test/am-kernels/tests/cpu-tests/build/sum-riscv64-mycpu.elf:     file format elf64-littleriscv


Disassembly of section .text:

0000000080000000 <_start>:
    80000000:	00000413          	li	s0,0
    80000004:	00009117          	auipc	sp,0x9
    80000008:	ffc10113          	addi	sp,sp,-4 # 80009000 <_end>
    8000000c:	094000ef          	jal	ra,800000a0 <_trm_init>

0000000080000010 <check>:
    80000010:	00050463          	beqz	a0,80000018 <check+0x8>
    80000014:	00008067          	ret
    80000018:	ff010113          	addi	sp,sp,-16
    8000001c:	00100513          	li	a0,1
    80000020:	00113423          	sd	ra,8(sp)
    80000024:	058000ef          	jal	ra,8000007c <halt>

0000000080000028 <main>:
    80000028:	fe010113          	addi	sp,sp,-32
    8000002c:	00113c23          	sd	ra,24(sp)
    80000030:	00012623          	sw	zero,12(sp)
    80000034:	00100793          	li	a5,1
    80000038:	06500693          	li	a3,101
    8000003c:	00c12703          	lw	a4,12(sp)
    80000040:	00f7073b          	addw	a4,a4,a5
    80000044:	00e12623          	sw	a4,12(sp)
    80000048:	0017879b          	addiw	a5,a5,1
    8000004c:	fed798e3          	bne	a5,a3,8000003c <main+0x14>
    80000050:	00c12503          	lw	a0,12(sp)
    80000054:	000017b7          	lui	a5,0x1
    80000058:	3ba78793          	addi	a5,a5,954 # 13ba <_entry_offset+0x13ba>
    8000005c:	0005051b          	sext.w	a0,a0
    80000060:	40f50533          	sub	a0,a0,a5
    80000064:	00153513          	seqz	a0,a0
    80000068:	fa9ff0ef          	jal	ra,80000010 <check>
    8000006c:	01813083          	ld	ra,24(sp)
    80000070:	00000513          	li	a0,0
    80000074:	02010113          	addi	sp,sp,32
    80000078:	00008067          	ret

000000008000007c <halt>:
    8000007c:	00050513          	mv	a0,a0
    80000080:	0000006b          	0x6b
    80000084:	0000006f          	j	80000084 <halt+0x8>

0000000080000088 <_assert>:
    80000088:	00051a63          	bnez	a0,8000009c <_assert+0x14>
    8000008c:	00100793          	li	a5,1
    80000090:	00078513          	mv	a0,a5
    80000094:	0000006b          	0x6b
    80000098:	0000006f          	j	80000098 <_assert+0x10>
    8000009c:	00008067          	ret

00000000800000a0 <_trm_init>:
    800000a0:	ff010113          	addi	sp,sp,-16
    800000a4:	00113423          	sd	ra,8(sp)
    800000a8:	01c000ef          	jal	ra,800000c4 <heap_init>
    800000ac:	00000517          	auipc	a0,0x0
    800000b0:	22c50513          	addi	a0,a0,556 # 800002d8 <mainargs>
    800000b4:	f75ff0ef          	jal	ra,80000028 <main>
    800000b8:	00050513          	mv	a0,a0
    800000bc:	0000006b          	0x6b
    800000c0:	0000006f          	j	800000c0 <_trm_init+0x20>

00000000800000c4 <heap_init>:
    800000c4:	00000797          	auipc	a5,0x0
    800000c8:	21c78793          	addi	a5,a5,540 # 800002e0 <heap>
    800000cc:	0007b503          	ld	a0,0(a5)
    800000d0:	0087b583          	ld	a1,8(a5)
    800000d4:	ff010113          	addi	sp,sp,-16
    800000d8:	00000693          	li	a3,0
    800000dc:	00000613          	li	a2,0
    800000e0:	40a585b3          	sub	a1,a1,a0
    800000e4:	00113423          	sd	ra,8(sp)
    800000e8:	018000ef          	jal	ra,80000100 <o1heapInit>
    800000ec:	00813083          	ld	ra,8(sp)
    800000f0:	00000797          	auipc	a5,0x0
    800000f4:	20a7b023          	sd	a0,512(a5) # 800002f0 <heap_inst>
    800000f8:	01010113          	addi	sp,sp,16
    800000fc:	00008067          	ret

0000000080000100 <o1heapInit>:
    80000100:	1a050e63          	beqz	a0,800002bc <o1heapInit+0x1bc>
    80000104:	fd010113          	addi	sp,sp,-48
    80000108:	02813023          	sd	s0,32(sp)
    8000010c:	00913c23          	sd	s1,24(sp)
    80000110:	01f57793          	andi	a5,a0,31
    80000114:	02113423          	sd	ra,40(sp)
    80000118:	01213823          	sd	s2,16(sp)
    8000011c:	01313423          	sd	s3,8(sp)
    80000120:	01413023          	sd	s4,0(sp)
    80000124:	00050493          	mv	s1,a0
    80000128:	00050413          	mv	s0,a0
    8000012c:	00000513          	li	a0,0
    80000130:	14079a63          	bnez	a5,80000284 <o1heapInit+0x184>
    80000134:	27f00713          	li	a4,639
    80000138:	00058913          	mv	s2,a1
    8000013c:	00078513          	mv	a0,a5
    80000140:	14b77263          	bgeu	a4,a1,80000284 <o1heapInit+0x184>
    80000144:	0074f513          	andi	a0,s1,7
    80000148:	00153513          	seqz	a0,a0
    8000014c:	00060a13          	mv	s4,a2
    80000150:	00068993          	mv	s3,a3
    80000154:	f35ff0ef          	jal	ra,80000088 <_assert>
    80000158:	20048793          	addi	a5,s1,512
    8000015c:	2004b023          	sd	zero,512(s1)
    80000160:	2144b423          	sd	s4,520(s1)
    80000164:	2134b823          	sd	s3,528(s1)
    80000168:	00043023          	sd	zero,0(s0)
    8000016c:	00840413          	addi	s0,s0,8
    80000170:	fe879ce3          	bne	a5,s0,80000168 <o1heapInit+0x68>
    80000174:	fff00793          	li	a5,-1
    80000178:	dc090413          	addi	s0,s2,-576
    8000017c:	03f79793          	slli	a5,a5,0x3f
    80000180:	1287f863          	bgeu	a5,s0,800002b0 <o1heapInit+0x1b0>
    80000184:	00078413          	mv	s0,a5
    80000188:	00100513          	li	a0,1
    8000018c:	efdff0ef          	jal	ra,80000088 <_assert>
    80000190:	f8300793          	li	a5,-125
    80000194:	0017d793          	srli	a5,a5,0x1
    80000198:	fc040513          	addi	a0,s0,-64
    8000019c:	00f53533          	sltu	a0,a0,a5
    800001a0:	ee9ff0ef          	jal	ra,80000088 <_assert>
    800001a4:	01f4f513          	andi	a0,s1,31
    800001a8:	00153513          	seqz	a0,a0
    800001ac:	eddff0ef          	jal	ra,80000088 <_assert>
    800001b0:	00100513          	li	a0,1
    800001b4:	2404b023          	sd	zero,576(s1)
    800001b8:	2404b423          	sd	zero,584(s1)
    800001bc:	2484b823          	sd	s0,592(s1)
    800001c0:	24048c23          	sb	zero,600(s1)
    800001c4:	2604b023          	sd	zero,608(s1)
    800001c8:	2604b423          	sd	zero,616(s1)
    800001cc:	ebdff0ef          	jal	ra,80000088 <_assert>
    800001d0:	00100513          	li	a0,1
    800001d4:	eb5ff0ef          	jal	ra,80000088 <_assert>
    800001d8:	2504b503          	ld	a0,592(s1)
    800001dc:	24048a13          	addi	s4,s1,576
    800001e0:	04053513          	sltiu	a0,a0,64
    800001e4:	00154513          	xori	a0,a0,1
    800001e8:	00157513          	andi	a0,a0,1
    800001ec:	e9dff0ef          	jal	ra,80000088 <_assert>
    800001f0:	2504b503          	ld	a0,592(s1)
    800001f4:	03f57513          	andi	a0,a0,63
    800001f8:	00153513          	seqz	a0,a0
    800001fc:	e8dff0ef          	jal	ra,80000088 <_assert>
    80000200:	2504b703          	ld	a4,592(s1)
    80000204:	00100793          	li	a5,1
    80000208:	00675713          	srli	a4,a4,0x6
    8000020c:	0ae7fc63          	bgeu	a5,a4,800002c4 <o1heapInit+0x1c4>
    80000210:	00000793          	li	a5,0
    80000214:	00100693          	li	a3,1
    80000218:	0017879b          	addiw	a5,a5,1
    8000021c:	00175713          	srli	a4,a4,0x1
    80000220:	0ff7f793          	andi	a5,a5,255
    80000224:	fed71ae3          	bne	a4,a3,80000218 <o1heapInit+0x118>
    80000228:	00078993          	mv	s3,a5
    8000022c:	0407b513          	sltiu	a0,a5,64
    80000230:	00f71933          	sll	s2,a4,a5
    80000234:	e55ff0ef          	jal	ra,80000088 <_assert>
    80000238:	00399793          	slli	a5,s3,0x3
    8000023c:	00f487b3          	add	a5,s1,a5
    80000240:	0007b703          	ld	a4,0(a5)
    80000244:	2604b423          	sd	zero,616(s1)
    80000248:	26e4b023          	sd	a4,608(s1)
    8000024c:	00070463          	beqz	a4,80000254 <o1heapInit+0x154>
    80000250:	03473423          	sd	s4,40(a4)
    80000254:	0147b023          	sd	s4,0(a5)
    80000258:	2004b503          	ld	a0,512(s1)
    8000025c:	00a96533          	or	a0,s2,a0
    80000260:	20a4b023          	sd	a0,512(s1)
    80000264:	00a03533          	snez	a0,a0
    80000268:	e21ff0ef          	jal	ra,80000088 <_assert>
    8000026c:	00048513          	mv	a0,s1
    80000270:	2084bc23          	sd	s0,536(s1)
    80000274:	2204b023          	sd	zero,544(s1)
    80000278:	2204b423          	sd	zero,552(s1)
    8000027c:	2204b823          	sd	zero,560(s1)
    80000280:	2204bc23          	sd	zero,568(s1)
    80000284:	02813083          	ld	ra,40(sp)
    80000288:	02013403          	ld	s0,32(sp)
    8000028c:	01813483          	ld	s1,24(sp)
    80000290:	01013903          	ld	s2,16(sp)
    80000294:	00813983          	ld	s3,8(sp)
    80000298:	00013a03          	ld	s4,0(sp)
    8000029c:	03010113          	addi	sp,sp,48
    800002a0:	00008067          	ret
    800002a4:	00100513          	li	a0,1
    800002a8:	fff40413          	addi	s0,s0,-1
    800002ac:	dddff0ef          	jal	ra,80000088 <_assert>
    800002b0:	03f47793          	andi	a5,s0,63
    800002b4:	fe0798e3          	bnez	a5,800002a4 <o1heapInit+0x1a4>
    800002b8:	ed1ff06f          	j	80000188 <o1heapInit+0x88>
    800002bc:	00000513          	li	a0,0
    800002c0:	00008067          	ret
    800002c4:	00100913          	li	s2,1
    800002c8:	00000993          	li	s3,0
    800002cc:	00100513          	li	a0,1
    800002d0:	f65ff06f          	j	80000234 <o1heapInit+0x134>
