
/home/hzb/test/am-kernels/benchmarks/coremark/build/coremark-riscv64-mycpu.elf:     file format elf64-littleriscv


Disassembly of section .text:

0000000080000000 <_start>:
    80000000:	00000413          	li	s0,0
    80000004:	0000d117          	auipc	sp,0xd
    80000008:	ffc10113          	addi	sp,sp,-4 # 8000d000 <_end>
    8000000c:	25c020ef          	jal	ra,80002268 <_trm_init>

0000000080000010 <cmp_idx>:
    80000010:	00060a63          	beqz	a2,80000024 <cmp_idx+0x14>
    80000014:	00251503          	lh	a0,2(a0)
    80000018:	00259783          	lh	a5,2(a1)
    8000001c:	40f5053b          	subw	a0,a0,a5
    80000020:	00008067          	ret
    80000024:	00051783          	lh	a5,0(a0)
    80000028:	0087d713          	srli	a4,a5,0x8
    8000002c:	0ff77713          	andi	a4,a4,255
    80000030:	f007f793          	andi	a5,a5,-256
    80000034:	00e7e7b3          	or	a5,a5,a4
    80000038:	00f51023          	sh	a5,0(a0)
    8000003c:	00059783          	lh	a5,0(a1)
    80000040:	00251503          	lh	a0,2(a0)
    80000044:	0087d713          	srli	a4,a5,0x8
    80000048:	0ff77713          	andi	a4,a4,255
    8000004c:	f007f793          	andi	a5,a5,-256
    80000050:	00e7e7b3          	or	a5,a5,a4
    80000054:	00f59023          	sh	a5,0(a1)
    80000058:	00259783          	lh	a5,2(a1)
    8000005c:	40f5053b          	subw	a0,a0,a5
    80000060:	00008067          	ret

0000000080000064 <calc_func>:
    80000064:	fd010113          	addi	sp,sp,-48
    80000068:	02813023          	sd	s0,32(sp)
    8000006c:	00051403          	lh	s0,0(a0)
    80000070:	02113423          	sd	ra,40(sp)
    80000074:	00913c23          	sd	s1,24(sp)
    80000078:	4074579b          	sraiw	a5,s0,0x7
    8000007c:	01213823          	sd	s2,16(sp)
    80000080:	01313423          	sd	s3,8(sp)
    80000084:	0017f793          	andi	a5,a5,1
    80000088:	02078263          	beqz	a5,800000ac <calc_func+0x48>
    8000008c:	02813083          	ld	ra,40(sp)
    80000090:	07f47513          	andi	a0,s0,127
    80000094:	02013403          	ld	s0,32(sp)
    80000098:	01813483          	ld	s1,24(sp)
    8000009c:	01013903          	ld	s2,16(sp)
    800000a0:	00813983          	ld	s3,8(sp)
    800000a4:	03010113          	addi	sp,sp,48
    800000a8:	00008067          	ret
    800000ac:	00058493          	mv	s1,a1
    800000b0:	4034559b          	sraiw	a1,s0,0x3
    800000b4:	00f5f593          	andi	a1,a1,15
    800000b8:	00459713          	slli	a4,a1,0x4
    800000bc:	00747693          	andi	a3,s0,7
    800000c0:	0604d783          	lhu	a5,96(s1)
    800000c4:	00050993          	mv	s3,a0
    800000c8:	00b765b3          	or	a1,a4,a1
    800000cc:	08068063          	beqz	a3,8000014c <calc_func+0xe8>
    800000d0:	00100713          	li	a4,1
    800000d4:	04e68863          	beq	a3,a4,80000124 <calc_func+0xc0>
    800000d8:	03041513          	slli	a0,s0,0x30
    800000dc:	03055513          	srli	a0,a0,0x30
    800000e0:	00040913          	mv	s2,s0
    800000e4:	00078593          	mv	a1,a5
    800000e8:	730000ef          	jal	ra,80000818 <crcu16>
    800000ec:	00050793          	mv	a5,a0
    800000f0:	f0047413          	andi	s0,s0,-256
    800000f4:	07f97513          	andi	a0,s2,127
    800000f8:	00856433          	or	s0,a0,s0
    800000fc:	06f49023          	sh	a5,96(s1)
    80000100:	08046413          	ori	s0,s0,128
    80000104:	00899023          	sh	s0,0(s3)
    80000108:	02813083          	ld	ra,40(sp)
    8000010c:	02013403          	ld	s0,32(sp)
    80000110:	01813483          	ld	s1,24(sp)
    80000114:	01013903          	ld	s2,16(sp)
    80000118:	00813983          	ld	s3,8(sp)
    8000011c:	03010113          	addi	sp,sp,48
    80000120:	00008067          	ret
    80000124:	00078613          	mv	a2,a5
    80000128:	04048513          	addi	a0,s1,64
    8000012c:	158010ef          	jal	ra,80001284 <core_bench_matrix>
    80000130:	0644d783          	lhu	a5,100(s1)
    80000134:	0105191b          	slliw	s2,a0,0x10
    80000138:	4109591b          	sraiw	s2,s2,0x10
    8000013c:	04079a63          	bnez	a5,80000190 <calc_func+0x12c>
    80000140:	0604d783          	lhu	a5,96(s1)
    80000144:	06a49223          	sh	a0,100(s1)
    80000148:	f9dff06f          	j	800000e4 <calc_func+0x80>
    8000014c:	02200693          	li	a3,34
    80000150:	00058713          	mv	a4,a1
    80000154:	00d5d463          	bge	a1,a3,8000015c <calc_func+0xf8>
    80000158:	02200713          	li	a4,34
    8000015c:	00249683          	lh	a3,2(s1)
    80000160:	00049603          	lh	a2,0(s1)
    80000164:	0204b583          	ld	a1,32(s1)
    80000168:	0284a503          	lw	a0,40(s1)
    8000016c:	0ff77713          	andi	a4,a4,255
    80000170:	608010ef          	jal	ra,80001778 <core_bench_state>
    80000174:	0664d783          	lhu	a5,102(s1)
    80000178:	0105191b          	slliw	s2,a0,0x10
    8000017c:	4109591b          	sraiw	s2,s2,0x10
    80000180:	00079863          	bnez	a5,80000190 <calc_func+0x12c>
    80000184:	0604d783          	lhu	a5,96(s1)
    80000188:	06a49323          	sh	a0,102(s1)
    8000018c:	f59ff06f          	j	800000e4 <calc_func+0x80>
    80000190:	0604d783          	lhu	a5,96(s1)
    80000194:	f51ff06f          	j	800000e4 <calc_func+0x80>

0000000080000198 <cmp_complex>:
    80000198:	fe010113          	addi	sp,sp,-32
    8000019c:	00913423          	sd	s1,8(sp)
    800001a0:	00058493          	mv	s1,a1
    800001a4:	00060593          	mv	a1,a2
    800001a8:	00113c23          	sd	ra,24(sp)
    800001ac:	00813823          	sd	s0,16(sp)
    800001b0:	00060413          	mv	s0,a2
    800001b4:	eb1ff0ef          	jal	ra,80000064 <calc_func>
    800001b8:	00050793          	mv	a5,a0
    800001bc:	00040593          	mv	a1,s0
    800001c0:	00048513          	mv	a0,s1
    800001c4:	00078413          	mv	s0,a5
    800001c8:	e9dff0ef          	jal	ra,80000064 <calc_func>
    800001cc:	01813083          	ld	ra,24(sp)
    800001d0:	40a4053b          	subw	a0,s0,a0
    800001d4:	01013403          	ld	s0,16(sp)
    800001d8:	00813483          	ld	s1,8(sp)
    800001dc:	02010113          	addi	sp,sp,32
    800001e0:	00008067          	ret

00000000800001e4 <core_list_find>:
    800001e4:	00259703          	lh	a4,2(a1)
    800001e8:	02074263          	bltz	a4,8000020c <core_list_find+0x28>
    800001ec:	00051863          	bnez	a0,800001fc <core_list_find+0x18>
    800001f0:	0480006f          	j	80000238 <core_list_find+0x54>
    800001f4:	00053503          	ld	a0,0(a0)
    800001f8:	02050c63          	beqz	a0,80000230 <core_list_find+0x4c>
    800001fc:	00853783          	ld	a5,8(a0)
    80000200:	00279783          	lh	a5,2(a5)
    80000204:	fee798e3          	bne	a5,a4,800001f4 <core_list_find+0x10>
    80000208:	00008067          	ret
    8000020c:	02050263          	beqz	a0,80000230 <core_list_find+0x4c>
    80000210:	00059703          	lh	a4,0(a1)
    80000214:	00c0006f          	j	80000220 <core_list_find+0x3c>
    80000218:	00053503          	ld	a0,0(a0)
    8000021c:	00050c63          	beqz	a0,80000234 <core_list_find+0x50>
    80000220:	00853783          	ld	a5,8(a0)
    80000224:	0007c783          	lbu	a5,0(a5)
    80000228:	fee798e3          	bne	a5,a4,80000218 <core_list_find+0x34>
    8000022c:	00008067          	ret
    80000230:	00000513          	li	a0,0
    80000234:	00008067          	ret
    80000238:	00008067          	ret

000000008000023c <core_list_mergesort>:
    8000023c:	fa010113          	addi	sp,sp,-96
    80000240:	04913423          	sd	s1,72(sp)
    80000244:	03513423          	sd	s5,40(sp)
    80000248:	01713c23          	sd	s7,24(sp)
    8000024c:	01913423          	sd	s9,8(sp)
    80000250:	01a13023          	sd	s10,0(sp)
    80000254:	04113c23          	sd	ra,88(sp)
    80000258:	04813823          	sd	s0,80(sp)
    8000025c:	05213023          	sd	s2,64(sp)
    80000260:	03313c23          	sd	s3,56(sp)
    80000264:	03413823          	sd	s4,48(sp)
    80000268:	03613023          	sd	s6,32(sp)
    8000026c:	01813823          	sd	s8,16(sp)
    80000270:	00050493          	mv	s1,a0
    80000274:	00058b93          	mv	s7,a1
    80000278:	00060d13          	mv	s10,a2
    8000027c:	00100a93          	li	s5,1
    80000280:	00100c93          	li	s9,1
    80000284:	0c048063          	beqz	s1,80000344 <core_list_mergesort+0x108>
    80000288:	00000c13          	li	s8,0
    8000028c:	00000913          	li	s2,0
    80000290:	00000b13          	li	s6,0
    80000294:	001c0c1b          	addiw	s8,s8,1
    80000298:	00048793          	mv	a5,s1
    8000029c:	00000413          	li	s0,0
    800002a0:	0007b783          	ld	a5,0(a5)
    800002a4:	0014041b          	addiw	s0,s0,1
    800002a8:	00078463          	beqz	a5,800002b0 <core_list_mergesort+0x74>
    800002ac:	fe8a9ae3          	bne	s5,s0,800002a0 <core_list_mergesort+0x64>
    800002b0:	00048a13          	mv	s4,s1
    800002b4:	000a8993          	mv	s3,s5
    800002b8:	00078493          	mv	s1,a5
    800002bc:	02040e63          	beqz	s0,800002f8 <core_list_mergesort+0xbc>
    800002c0:	04098e63          	beqz	s3,8000031c <core_list_mergesort+0xe0>
    800002c4:	04048c63          	beqz	s1,8000031c <core_list_mergesort+0xe0>
    800002c8:	0084b583          	ld	a1,8(s1)
    800002cc:	008a3503          	ld	a0,8(s4)
    800002d0:	000d0613          	mv	a2,s10
    800002d4:	000b80e7          	jalr	s7
    800002d8:	04a05263          	blez	a0,8000031c <core_list_mergesort+0xe0>
    800002dc:	00048793          	mv	a5,s1
    800002e0:	0004b483          	ld	s1,0(s1)
    800002e4:	fff9899b          	addiw	s3,s3,-1
    800002e8:	02090463          	beqz	s2,80000310 <core_list_mergesort+0xd4>
    800002ec:	00f93023          	sd	a5,0(s2)
    800002f0:	00078913          	mv	s2,a5
    800002f4:	fc0416e3          	bnez	s0,800002c0 <core_list_mergesort+0x84>
    800002f8:	02098a63          	beqz	s3,8000032c <core_list_mergesort+0xf0>
    800002fc:	02048a63          	beqz	s1,80000330 <core_list_mergesort+0xf4>
    80000300:	00048793          	mv	a5,s1
    80000304:	fff9899b          	addiw	s3,s3,-1
    80000308:	0004b483          	ld	s1,0(s1)
    8000030c:	fe0910e3          	bnez	s2,800002ec <core_list_mergesort+0xb0>
    80000310:	00078b13          	mv	s6,a5
    80000314:	00078913          	mv	s2,a5
    80000318:	fddff06f          	j	800002f4 <core_list_mergesort+0xb8>
    8000031c:	000a0793          	mv	a5,s4
    80000320:	fff4041b          	addiw	s0,s0,-1
    80000324:	000a3a03          	ld	s4,0(s4)
    80000328:	fc1ff06f          	j	800002e8 <core_list_mergesort+0xac>
    8000032c:	f60494e3          	bnez	s1,80000294 <core_list_mergesort+0x58>
    80000330:	00093023          	sd	zero,0(s2)
    80000334:	019c0c63          	beq	s8,s9,8000034c <core_list_mergesort+0x110>
    80000338:	001a9a9b          	slliw	s5,s5,0x1
    8000033c:	000b0493          	mv	s1,s6
    80000340:	f45ff06f          	j	80000284 <core_list_mergesort+0x48>
    80000344:	00003023          	sd	zero,0(zero) # 0 <_entry_offset>
    80000348:	00100073          	ebreak
    8000034c:	05813083          	ld	ra,88(sp)
    80000350:	05013403          	ld	s0,80(sp)
    80000354:	04813483          	ld	s1,72(sp)
    80000358:	04013903          	ld	s2,64(sp)
    8000035c:	03813983          	ld	s3,56(sp)
    80000360:	03013a03          	ld	s4,48(sp)
    80000364:	02813a83          	ld	s5,40(sp)
    80000368:	01813b83          	ld	s7,24(sp)
    8000036c:	01013c03          	ld	s8,16(sp)
    80000370:	00813c83          	ld	s9,8(sp)
    80000374:	00013d03          	ld	s10,0(sp)
    80000378:	000b0513          	mv	a0,s6
    8000037c:	02013b03          	ld	s6,32(sp)
    80000380:	06010113          	addi	sp,sp,96
    80000384:	00008067          	ret

0000000080000388 <core_bench_list>:
    80000388:	f9010113          	addi	sp,sp,-112
    8000038c:	03813023          	sd	s8,32(sp)
    80000390:	00451c03          	lh	s8,4(a0)
    80000394:	06813023          	sd	s0,96(sp)
    80000398:	05413023          	sd	s4,64(sp)
    8000039c:	03513c23          	sd	s5,56(sp)
    800003a0:	06113423          	sd	ra,104(sp)
    800003a4:	04913c23          	sd	s1,88(sp)
    800003a8:	05213823          	sd	s2,80(sp)
    800003ac:	05313423          	sd	s3,72(sp)
    800003b0:	03613823          	sd	s6,48(sp)
    800003b4:	03713423          	sd	s7,40(sp)
    800003b8:	01913c23          	sd	s9,24(sp)
    800003bc:	00011423          	sh	zero,8(sp)
    800003c0:	00b11523          	sh	a1,10(sp)
    800003c4:	03853403          	ld	s0,56(a0)
    800003c8:	00050a93          	mv	s5,a0
    800003cc:	00058a13          	mv	s4,a1
    800003d0:	21805a63          	blez	s8,800005e4 <core_bench_list+0x25c>
    800003d4:	00058c93          	mv	s9,a1
    800003d8:	00000913          	li	s2,0
    800003dc:	00000b93          	li	s7,0
    800003e0:	00000493          	li	s1,0
    800003e4:	00000b13          	li	s6,0
    800003e8:	00810993          	addi	s3,sp,8
    800003ec:	0ff97793          	andi	a5,s2,255
    800003f0:	00098593          	mv	a1,s3
    800003f4:	00040513          	mv	a0,s0
    800003f8:	00f11423          	sh	a5,8(sp)
    800003fc:	de9ff0ef          	jal	ra,800001e4 <core_list_find>
    80000400:	02040063          	beqz	s0,80000420 <core_bench_list+0x98>
    80000404:	00000713          	li	a4,0
    80000408:	0080006f          	j	80000410 <core_bench_list+0x88>
    8000040c:	00078413          	mv	s0,a5
    80000410:	00043783          	ld	a5,0(s0)
    80000414:	00e43023          	sd	a4,0(s0)
    80000418:	00040713          	mv	a4,s0
    8000041c:	fe0798e3          	bnez	a5,8000040c <core_bench_list+0x84>
    80000420:	06050a63          	beqz	a0,80000494 <core_bench_list+0x10c>
    80000424:	00853783          	ld	a5,8(a0)
    80000428:	0014849b          	addiw	s1,s1,1
    8000042c:	03049493          	slli	s1,s1,0x30
    80000430:	00079783          	lh	a5,0(a5)
    80000434:	0304d493          	srli	s1,s1,0x30
    80000438:	0017f713          	andi	a4,a5,1
    8000043c:	00070c63          	beqz	a4,80000454 <core_bench_list+0xcc>
    80000440:	4097d79b          	sraiw	a5,a5,0x9
    80000444:	0017f793          	andi	a5,a5,1
    80000448:	01678b3b          	addw	s6,a5,s6
    8000044c:	030b1b13          	slli	s6,s6,0x30
    80000450:	030b5b13          	srli	s6,s6,0x30
    80000454:	00053783          	ld	a5,0(a0)
    80000458:	00078c63          	beqz	a5,80000470 <core_bench_list+0xe8>
    8000045c:	0007b703          	ld	a4,0(a5)
    80000460:	00e53023          	sd	a4,0(a0)
    80000464:	00043703          	ld	a4,0(s0)
    80000468:	00e7b023          	sd	a4,0(a5)
    8000046c:	00f43023          	sd	a5,0(s0)
    80000470:	000cc663          	bltz	s9,8000047c <core_bench_list+0xf4>
    80000474:	001c8c9b          	addiw	s9,s9,1
    80000478:	01911523          	sh	s9,10(sp)
    8000047c:	0019091b          	addiw	s2,s2,1
    80000480:	0109191b          	slliw	s2,s2,0x10
    80000484:	4109591b          	sraiw	s2,s2,0x10
    80000488:	032c0c63          	beq	s8,s2,800004c0 <core_bench_list+0x138>
    8000048c:	00a11c83          	lh	s9,10(sp)
    80000490:	f5dff06f          	j	800003ec <core_bench_list+0x64>
    80000494:	00043783          	ld	a5,0(s0)
    80000498:	001b8b9b          	addiw	s7,s7,1
    8000049c:	030b9b93          	slli	s7,s7,0x30
    800004a0:	0087b783          	ld	a5,8(a5)
    800004a4:	030bdb93          	srli	s7,s7,0x30
    800004a8:	00178783          	lb	a5,1(a5)
    800004ac:	0017f793          	andi	a5,a5,1
    800004b0:	01678b3b          	addw	s6,a5,s6
    800004b4:	030b1b13          	slli	s6,s6,0x30
    800004b8:	030b5b13          	srli	s6,s6,0x30
    800004bc:	fb5ff06f          	j	80000470 <core_bench_list+0xe8>
    800004c0:	0024949b          	slliw	s1,s1,0x2
    800004c4:	417484bb          	subw	s1,s1,s7
    800004c8:	016484bb          	addw	s1,s1,s6
    800004cc:	03049493          	slli	s1,s1,0x30
    800004d0:	0304d493          	srli	s1,s1,0x30
    800004d4:	01405e63          	blez	s4,800004f0 <core_bench_list+0x168>
    800004d8:	00040513          	mv	a0,s0
    800004dc:	000a8613          	mv	a2,s5
    800004e0:	00000597          	auipc	a1,0x0
    800004e4:	cb858593          	addi	a1,a1,-840 # 80000198 <cmp_complex>
    800004e8:	d55ff0ef          	jal	ra,8000023c <core_list_mergesort>
    800004ec:	00050413          	mv	s0,a0
    800004f0:	00043783          	ld	a5,0(s0)
    800004f4:	00098593          	mv	a1,s3
    800004f8:	00040513          	mv	a0,s0
    800004fc:	0007b983          	ld	s3,0(a5)
    80000500:	0087ba03          	ld	s4,8(a5)
    80000504:	0089b683          	ld	a3,8(s3)
    80000508:	0009b703          	ld	a4,0(s3)
    8000050c:	00d7b423          	sd	a3,8(a5)
    80000510:	0149b423          	sd	s4,8(s3)
    80000514:	00e7b023          	sd	a4,0(a5)
    80000518:	0009b023          	sd	zero,0(s3)
    8000051c:	cc9ff0ef          	jal	ra,800001e4 <core_list_find>
    80000520:	00050913          	mv	s2,a0
    80000524:	0a050a63          	beqz	a0,800005d8 <core_bench_list+0x250>
    80000528:	00843783          	ld	a5,8(s0)
    8000052c:	00048593          	mv	a1,s1
    80000530:	00079503          	lh	a0,0(a5)
    80000534:	39c000ef          	jal	ra,800008d0 <crc16>
    80000538:	00093903          	ld	s2,0(s2)
    8000053c:	00050493          	mv	s1,a0
    80000540:	fe0914e3          	bnez	s2,80000528 <core_bench_list+0x1a0>
    80000544:	00043903          	ld	s2,0(s0)
    80000548:	0089ba03          	ld	s4,8(s3)
    8000054c:	00893703          	ld	a4,8(s2)
    80000550:	00093783          	ld	a5,0(s2)
    80000554:	00040513          	mv	a0,s0
    80000558:	00e9b423          	sd	a4,8(s3)
    8000055c:	01493423          	sd	s4,8(s2)
    80000560:	00f9b023          	sd	a5,0(s3)
    80000564:	01393023          	sd	s3,0(s2)
    80000568:	00000613          	li	a2,0
    8000056c:	00000597          	auipc	a1,0x0
    80000570:	aa458593          	addi	a1,a1,-1372 # 80000010 <cmp_idx>
    80000574:	cc9ff0ef          	jal	ra,8000023c <core_list_mergesort>
    80000578:	00053403          	ld	s0,0(a0)
    8000057c:	00050913          	mv	s2,a0
    80000580:	02040063          	beqz	s0,800005a0 <core_bench_list+0x218>
    80000584:	00893783          	ld	a5,8(s2)
    80000588:	00048593          	mv	a1,s1
    8000058c:	00079503          	lh	a0,0(a5)
    80000590:	340000ef          	jal	ra,800008d0 <crc16>
    80000594:	00043403          	ld	s0,0(s0)
    80000598:	00050493          	mv	s1,a0
    8000059c:	fe0414e3          	bnez	s0,80000584 <core_bench_list+0x1fc>
    800005a0:	06813083          	ld	ra,104(sp)
    800005a4:	06013403          	ld	s0,96(sp)
    800005a8:	05013903          	ld	s2,80(sp)
    800005ac:	04813983          	ld	s3,72(sp)
    800005b0:	04013a03          	ld	s4,64(sp)
    800005b4:	03813a83          	ld	s5,56(sp)
    800005b8:	03013b03          	ld	s6,48(sp)
    800005bc:	02813b83          	ld	s7,40(sp)
    800005c0:	02013c03          	ld	s8,32(sp)
    800005c4:	01813c83          	ld	s9,24(sp)
    800005c8:	00048513          	mv	a0,s1
    800005cc:	05813483          	ld	s1,88(sp)
    800005d0:	07010113          	addi	sp,sp,112
    800005d4:	00008067          	ret
    800005d8:	00043903          	ld	s2,0(s0)
    800005dc:	f40916e3          	bnez	s2,80000528 <core_bench_list+0x1a0>
    800005e0:	f6dff06f          	j	8000054c <core_bench_list+0x1c4>
    800005e4:	00000493          	li	s1,0
    800005e8:	00810993          	addi	s3,sp,8
    800005ec:	ee9ff06f          	j	800004d4 <core_bench_list+0x14c>

00000000800005f0 <core_list_init>:
    800005f0:	fd010113          	addi	sp,sp,-48
    800005f4:	02051513          	slli	a0,a0,0x20
    800005f8:	01213823          	sd	s2,16(sp)
    800005fc:	02055513          	srli	a0,a0,0x20
    80000600:	00058913          	mv	s2,a1
    80000604:	01400593          	li	a1,20
    80000608:	02813023          	sd	s0,32(sp)
    8000060c:	01313423          	sd	s3,8(sp)
    80000610:	02113423          	sd	ra,40(sp)
    80000614:	00060993          	mv	s3,a2
    80000618:	00913c23          	sd	s1,24(sp)
    8000061c:	4dd010ef          	jal	ra,800022f8 <__udivdi3>
    80000620:	ffe50e1b          	addiw	t3,a0,-2
    80000624:	020e1513          	slli	a0,t3,0x20
    80000628:	02055513          	srli	a0,a0,0x20
    8000062c:	00451613          	slli	a2,a0,0x4
    80000630:	00c90633          	add	a2,s2,a2
    80000634:	ffff87b7          	lui	a5,0xffff8
    80000638:	00093023          	sd	zero,0(s2)
    8000063c:	00c93423          	sd	a2,8(s2)
    80000640:	0807871b          	addiw	a4,a5,128
    80000644:	00251e93          	slli	t4,a0,0x2
    80000648:	00e61023          	sh	a4,0(a2)
    8000064c:	00061123          	sh	zero,2(a2)
    80000650:	02090693          	addi	a3,s2,32
    80000654:	01d60eb3          	add	t4,a2,t4
    80000658:	01090413          	addi	s0,s2,16
    8000065c:	00460713          	addi	a4,a2,4
    80000660:	14c6f063          	bgeu	a3,a2,800007a0 <core_list_init+0x1b0>
    80000664:	00860893          	addi	a7,a2,8
    80000668:	13d8fc63          	bgeu	a7,t4,800007a0 <core_list_init+0x1b0>
    8000066c:	00e93c23          	sd	a4,24(s2)
    80000670:	00093823          	sd	zero,16(s2)
    80000674:	00893023          	sd	s0,0(s2)
    80000678:	fff7c793          	not	a5,a5
    8000067c:	fff00713          	li	a4,-1
    80000680:	00e61223          	sh	a4,4(a2)
    80000684:	00f61323          	sh	a5,6(a2)
    80000688:	060e0a63          	beqz	t3,800006fc <core_list_init+0x10c>
    8000068c:	03099f13          	slli	t5,s3,0x30
    80000690:	ffff8fb7          	lui	t6,0xffff8
    80000694:	030f5f13          	srli	t5,t5,0x30
    80000698:	00000813          	li	a6,0
    8000069c:	ffffcf93          	not	t6,t6
    800006a0:	03081713          	slli	a4,a6,0x30
    800006a4:	03075713          	srli	a4,a4,0x30
    800006a8:	00ef47b3          	xor	a5,t5,a4
    800006ac:	00379793          	slli	a5,a5,0x3
    800006b0:	00777713          	andi	a4,a4,7
    800006b4:	0787f793          	andi	a5,a5,120
    800006b8:	00e7e7b3          	or	a5,a5,a4
    800006bc:	00879593          	slli	a1,a5,0x8
    800006c0:	01068713          	addi	a4,a3,16
    800006c4:	0018081b          	addiw	a6,a6,1
    800006c8:	00488313          	addi	t1,a7,4
    800006cc:	00b7e7b3          	or	a5,a5,a1
    800006d0:	02c77463          	bgeu	a4,a2,800006f8 <core_list_init+0x108>
    800006d4:	03d37263          	bgeu	t1,t4,800006f8 <core_list_init+0x108>
    800006d8:	0086b023          	sd	s0,0(a3)
    800006dc:	00d93023          	sd	a3,0(s2)
    800006e0:	0116b423          	sd	a7,8(a3)
    800006e4:	00f89023          	sh	a5,0(a7)
    800006e8:	01f89123          	sh	t6,2(a7)
    800006ec:	00068413          	mv	s0,a3
    800006f0:	00030893          	mv	a7,t1
    800006f4:	00070693          	mv	a3,a4
    800006f8:	fb0e14e3          	bne	t3,a6,800006a0 <core_list_init+0xb0>
    800006fc:	00043483          	ld	s1,0(s0)
    80000700:	06048a63          	beqz	s1,80000774 <core_list_init+0x184>
    80000704:	00500593          	li	a1,5
    80000708:	3f1010ef          	jal	ra,800022f8 <__udivdi3>
    8000070c:	00004637          	lui	a2,0x4
    80000710:	0005051b          	sext.w	a0,a0
    80000714:	00100693          	li	a3,1
    80000718:	fff60613          	addi	a2,a2,-1 # 3fff <_entry_offset+0x3fff>
    8000071c:	01c0006f          	j	80000738 <core_list_init+0x148>
    80000720:	0004b783          	ld	a5,0(s1)
    80000724:	00d71123          	sh	a3,2(a4)
    80000728:	00048413          	mv	s0,s1
    8000072c:	0016869b          	addiw	a3,a3,1
    80000730:	04078263          	beqz	a5,80000774 <core_list_init+0x184>
    80000734:	00078493          	mv	s1,a5
    80000738:	03069713          	slli	a4,a3,0x30
    8000073c:	03075713          	srli	a4,a4,0x30
    80000740:	0017079b          	addiw	a5,a4,1
    80000744:	0087979b          	slliw	a5,a5,0x8
    80000748:	01374733          	xor	a4,a4,s3
    8000074c:	7007f793          	andi	a5,a5,1792
    80000750:	00e7e7b3          	or	a5,a5,a4
    80000754:	00c7f7b3          	and	a5,a5,a2
    80000758:	00843703          	ld	a4,8(s0)
    8000075c:	fca6e2e3          	bltu	a3,a0,80000720 <core_list_init+0x130>
    80000760:	00f71123          	sh	a5,2(a4)
    80000764:	0004b783          	ld	a5,0(s1)
    80000768:	00048413          	mv	s0,s1
    8000076c:	0016869b          	addiw	a3,a3,1
    80000770:	fc0792e3          	bnez	a5,80000734 <core_list_init+0x144>
    80000774:	02013403          	ld	s0,32(sp)
    80000778:	02813083          	ld	ra,40(sp)
    8000077c:	01813483          	ld	s1,24(sp)
    80000780:	00813983          	ld	s3,8(sp)
    80000784:	00090513          	mv	a0,s2
    80000788:	01013903          	ld	s2,16(sp)
    8000078c:	00000613          	li	a2,0
    80000790:	00000597          	auipc	a1,0x0
    80000794:	88058593          	addi	a1,a1,-1920 # 80000010 <cmp_idx>
    80000798:	03010113          	addi	sp,sp,48
    8000079c:	aa1ff06f          	j	8000023c <core_list_mergesort>
    800007a0:	00040693          	mv	a3,s0
    800007a4:	00070893          	mv	a7,a4
    800007a8:	00000413          	li	s0,0
    800007ac:	eddff06f          	j	80000688 <core_list_init+0x98>

00000000800007b0 <get_seed_32>:
    800007b0:	00500793          	li	a5,5
    800007b4:	04a7ee63          	bltu	a5,a0,80000810 <get_seed_32+0x60>
    800007b8:	00003717          	auipc	a4,0x3
    800007bc:	35870713          	addi	a4,a4,856 # 80003b10 <_etext>
    800007c0:	00251513          	slli	a0,a0,0x2
    800007c4:	00e50533          	add	a0,a0,a4
    800007c8:	00052783          	lw	a5,0(a0)
    800007cc:	00e787b3          	add	a5,a5,a4
    800007d0:	00078067          	jr	a5 # ffffffffffff8000 <_end+0xffffffff7ffeb000>
    800007d4:	00004517          	auipc	a0,0x4
    800007d8:	fec52503          	lw	a0,-20(a0) # 800047c0 <seed5_volatile>
    800007dc:	00008067          	ret
    800007e0:	00004517          	auipc	a0,0x4
    800007e4:	fd852503          	lw	a0,-40(a0) # 800047b8 <seed1_volatile>
    800007e8:	00008067          	ret
    800007ec:	00004517          	auipc	a0,0x4
    800007f0:	fd052503          	lw	a0,-48(a0) # 800047bc <seed2_volatile>
    800007f4:	00008067          	ret
    800007f8:	00004517          	auipc	a0,0x4
    800007fc:	ba452503          	lw	a0,-1116(a0) # 8000439c <seed3_volatile>
    80000800:	00008067          	ret
    80000804:	00004517          	auipc	a0,0x4
    80000808:	b9c52503          	lw	a0,-1124(a0) # 800043a0 <seed4_volatile>
    8000080c:	00008067          	ret
    80000810:	00000513          	li	a0,0
    80000814:	00008067          	ret

0000000080000818 <crcu16>:
    80000818:	00050693          	mv	a3,a0
    8000081c:	ffffa837          	lui	a6,0xffffa
    80000820:	00058513          	mv	a0,a1
    80000824:	0ff6f613          	andi	a2,a3,255
    80000828:	00800793          	li	a5,8
    8000082c:	00180813          	addi	a6,a6,1 # ffffffffffffa001 <_end+0xffffffff7ffed001>
    80000830:	00c54733          	xor	a4,a0,a2
    80000834:	fff7879b          	addiw	a5,a5,-1
    80000838:	00155513          	srli	a0,a0,0x1
    8000083c:	00177713          	andi	a4,a4,1
    80000840:	0ff7f793          	andi	a5,a5,255
    80000844:	010545b3          	xor	a1,a0,a6
    80000848:	00165613          	srli	a2,a2,0x1
    8000084c:	00070663          	beqz	a4,80000858 <crcu16+0x40>
    80000850:	03059513          	slli	a0,a1,0x30
    80000854:	03055513          	srli	a0,a0,0x30
    80000858:	fc079ce3          	bnez	a5,80000830 <crcu16+0x18>
    8000085c:	ffffa5b7          	lui	a1,0xffffa
    80000860:	0086d693          	srli	a3,a3,0x8
    80000864:	00800793          	li	a5,8
    80000868:	00158593          	addi	a1,a1,1 # ffffffffffffa001 <_end+0xffffffff7ffed001>
    8000086c:	00d54733          	xor	a4,a0,a3
    80000870:	fff7879b          	addiw	a5,a5,-1
    80000874:	00155513          	srli	a0,a0,0x1
    80000878:	00177713          	andi	a4,a4,1
    8000087c:	0ff7f793          	andi	a5,a5,255
    80000880:	00b54633          	xor	a2,a0,a1
    80000884:	0016d693          	srli	a3,a3,0x1
    80000888:	00070663          	beqz	a4,80000894 <crcu16+0x7c>
    8000088c:	03061513          	slli	a0,a2,0x30
    80000890:	03055513          	srli	a0,a0,0x30
    80000894:	fc079ce3          	bnez	a5,8000086c <crcu16+0x54>
    80000898:	00008067          	ret

000000008000089c <crcu32>:
    8000089c:	ff010113          	addi	sp,sp,-16
    800008a0:	00813023          	sd	s0,0(sp)
    800008a4:	00050413          	mv	s0,a0
    800008a8:	03051513          	slli	a0,a0,0x30
    800008ac:	03055513          	srli	a0,a0,0x30
    800008b0:	00113423          	sd	ra,8(sp)
    800008b4:	f65ff0ef          	jal	ra,80000818 <crcu16>
    800008b8:	00050593          	mv	a1,a0
    800008bc:	0104551b          	srliw	a0,s0,0x10
    800008c0:	00013403          	ld	s0,0(sp)
    800008c4:	00813083          	ld	ra,8(sp)
    800008c8:	01010113          	addi	sp,sp,16
    800008cc:	f4dff06f          	j	80000818 <crcu16>

00000000800008d0 <crc16>:
    800008d0:	03051513          	slli	a0,a0,0x30
    800008d4:	03055513          	srli	a0,a0,0x30
    800008d8:	f41ff06f          	j	80000818 <crcu16>

00000000800008dc <check_data_types>:
    800008dc:	00000513          	li	a0,0
    800008e0:	00008067          	ret

00000000800008e4 <core_init_matrix>:
    800008e4:	f7010113          	addi	sp,sp,-144
    800008e8:	07413023          	sd	s4,96(sp)
    800008ec:	03b13423          	sd	s11,40(sp)
    800008f0:	08113423          	sd	ra,136(sp)
    800008f4:	08813023          	sd	s0,128(sp)
    800008f8:	06913c23          	sd	s1,120(sp)
    800008fc:	07213823          	sd	s2,112(sp)
    80000900:	07313423          	sd	s3,104(sp)
    80000904:	05513c23          	sd	s5,88(sp)
    80000908:	05613823          	sd	s6,80(sp)
    8000090c:	05713423          	sd	s7,72(sp)
    80000910:	05813023          	sd	s8,64(sp)
    80000914:	03913c23          	sd	s9,56(sp)
    80000918:	03a13823          	sd	s10,48(sp)
    8000091c:	00d13c23          	sd	a3,24(sp)
    80000920:	00050a13          	mv	s4,a0
    80000924:	00100d93          	li	s11,1
    80000928:	00060463          	beqz	a2,80000930 <core_init_matrix+0x4c>
    8000092c:	00060d93          	mv	s11,a2
    80000930:	fff58593          	addi	a1,a1,-1
    80000934:	ffc5f493          	andi	s1,a1,-4
    80000938:	00448993          	addi	s3,s1,4
    8000093c:	00000913          	li	s2,0
    80000940:	160a0663          	beqz	s4,80000aac <core_init_matrix+0x1c8>
    80000944:	0019079b          	addiw	a5,s2,1
    80000948:	00078593          	mv	a1,a5
    8000094c:	00078513          	mv	a0,a5
    80000950:	0009041b          	sext.w	s0,s2
    80000954:	0007891b          	sext.w	s2,a5
    80000958:	135010ef          	jal	ra,8000228c <__muldi3>
    8000095c:	0035179b          	slliw	a5,a0,0x3
    80000960:	ff47e2e3          	bltu	a5,s4,80000944 <core_init_matrix+0x60>
    80000964:	00040593          	mv	a1,s0
    80000968:	00040513          	mv	a0,s0
    8000096c:	121010ef          	jal	ra,8000228c <__muldi3>
    80000970:	02051c13          	slli	s8,a0,0x20
    80000974:	01fc5793          	srli	a5,s8,0x1f
    80000978:	00f13823          	sd	a5,16(sp)
    8000097c:	00f984b3          	add	s1,s3,a5
    80000980:	0004079b          	sext.w	a5,s0
    80000984:	00f13423          	sd	a5,8(sp)
    80000988:	14040063          	beqz	s0,80000ac8 <core_init_matrix+0x1e4>
    8000098c:	00010a37          	lui	s4,0x10
    80000990:	00000b93          	li	s7,0
    80000994:	00000b13          	li	s6,0
    80000998:	00100a93          	li	s5,1
    8000099c:	fffa0a13          	addi	s4,s4,-1 # ffff <_entry_offset+0xffff>
    800009a0:	fff40d1b          	addiw	s10,s0,-1
    800009a4:	000a8c93          	mv	s9,s5
    800009a8:	00000c13          	li	s8,0
    800009ac:	415b893b          	subw	s2,s7,s5
    800009b0:	000c8593          	mv	a1,s9
    800009b4:	000d8513          	mv	a0,s11
    800009b8:	0d5010ef          	jal	ra,8000228c <__muldi3>
    800009bc:	0005051b          	sext.w	a0,a0
    800009c0:	41f5561b          	sraiw	a2,a0,0x1f
    800009c4:	0106561b          	srliw	a2,a2,0x10
    800009c8:	00a6053b          	addw	a0,a2,a0
    800009cc:	030c9713          	slli	a4,s9,0x30
    800009d0:	01457533          	and	a0,a0,s4
    800009d4:	03075713          	srli	a4,a4,0x30
    800009d8:	019907bb          	addw	a5,s2,s9
    800009dc:	40c50dbb          	subw	s11,a0,a2
    800009e0:	00ed863b          	addw	a2,s11,a4
    800009e4:	02079793          	slli	a5,a5,0x20
    800009e8:	0207d793          	srli	a5,a5,0x20
    800009ec:	03061613          	slli	a2,a2,0x30
    800009f0:	03065613          	srli	a2,a2,0x30
    800009f4:	00179793          	slli	a5,a5,0x1
    800009f8:	00f48833          	add	a6,s1,a5
    800009fc:	00e6073b          	addw	a4,a2,a4
    80000a00:	00c81023          	sh	a2,0(a6)
    80000a04:	00f987b3          	add	a5,s3,a5
    80000a08:	0ff77713          	andi	a4,a4,255
    80000a0c:	00e79023          	sh	a4,0(a5)
    80000a10:	001c0c1b          	addiw	s8,s8,1
    80000a14:	001c8c9b          	addiw	s9,s9,1
    80000a18:	f88c6ce3          	bltu	s8,s0,800009b0 <core_init_matrix+0xcc>
    80000a1c:	001a8a9b          	addiw	s5,s5,1
    80000a20:	00000793          	li	a5,0
    80000a24:	00040463          	beqz	s0,80000a2c <core_init_matrix+0x148>
    80000a28:	000d0793          	mv	a5,s10
    80000a2c:	001b0b1b          	addiw	s6,s6,1
    80000a30:	01578abb          	addw	s5,a5,s5
    80000a34:	01740bbb          	addw	s7,s0,s7
    80000a38:	f68b66e3          	bltu	s6,s0,800009a4 <core_init_matrix+0xc0>
    80000a3c:	01013783          	ld	a5,16(sp)
    80000a40:	01813703          	ld	a4,24(sp)
    80000a44:	08813083          	ld	ra,136(sp)
    80000a48:	00f487b3          	add	a5,s1,a5
    80000a4c:	fff78793          	addi	a5,a5,-1
    80000a50:	ffc7f793          	andi	a5,a5,-4
    80000a54:	00478793          	addi	a5,a5,4
    80000a58:	01373423          	sd	s3,8(a4)
    80000a5c:	00973823          	sd	s1,16(a4)
    80000a60:	00f73c23          	sd	a5,24(a4)
    80000a64:	00070793          	mv	a5,a4
    80000a68:	00813703          	ld	a4,8(sp)
    80000a6c:	00040513          	mv	a0,s0
    80000a70:	08013403          	ld	s0,128(sp)
    80000a74:	00e7a023          	sw	a4,0(a5)
    80000a78:	07813483          	ld	s1,120(sp)
    80000a7c:	07013903          	ld	s2,112(sp)
    80000a80:	06813983          	ld	s3,104(sp)
    80000a84:	06013a03          	ld	s4,96(sp)
    80000a88:	05813a83          	ld	s5,88(sp)
    80000a8c:	05013b03          	ld	s6,80(sp)
    80000a90:	04813b83          	ld	s7,72(sp)
    80000a94:	04013c03          	ld	s8,64(sp)
    80000a98:	03813c83          	ld	s9,56(sp)
    80000a9c:	03013d03          	ld	s10,48(sp)
    80000aa0:	02813d83          	ld	s11,40(sp)
    80000aa4:	09010113          	addi	sp,sp,144
    80000aa8:	00008067          	ret
    80000aac:	fff00793          	li	a5,-1
    80000ab0:	00f13423          	sd	a5,8(sp)
    80000ab4:	00200793          	li	a5,2
    80000ab8:	00648493          	addi	s1,s1,6
    80000abc:	fff00413          	li	s0,-1
    80000ac0:	00f13823          	sd	a5,16(sp)
    80000ac4:	ec9ff06f          	j	8000098c <core_init_matrix+0xa8>
    80000ac8:	00013423          	sd	zero,8(sp)
    80000acc:	f71ff06f          	j	80000a3c <core_init_matrix+0x158>

0000000080000ad0 <matrix_mul_vect>:
    80000ad0:	0c050e63          	beqz	a0,80000bac <matrix_mul_vect+0xdc>
    80000ad4:	fa010113          	addi	sp,sp,-96
    80000ad8:	01713c23          	sd	s7,24(sp)
    80000adc:	fff50b9b          	addiw	s7,a0,-1
    80000ae0:	020b9b93          	slli	s7,s7,0x20
    80000ae4:	01ebdb93          	srli	s7,s7,0x1e
    80000ae8:	00458793          	addi	a5,a1,4
    80000aec:	05213023          	sd	s2,64(sp)
    80000af0:	03313c23          	sd	s3,56(sp)
    80000af4:	03413823          	sd	s4,48(sp)
    80000af8:	03513423          	sd	s5,40(sp)
    80000afc:	03613023          	sd	s6,32(sp)
    80000b00:	01813823          	sd	s8,16(sp)
    80000b04:	04113c23          	sd	ra,88(sp)
    80000b08:	04813823          	sd	s0,80(sp)
    80000b0c:	04913423          	sd	s1,72(sp)
    80000b10:	01913423          	sd	s9,8(sp)
    80000b14:	00050b13          	mv	s6,a0
    80000b18:	00060993          	mv	s3,a2
    80000b1c:	00068c13          	mv	s8,a3
    80000b20:	00058a13          	mv	s4,a1
    80000b24:	00fb8bb3          	add	s7,s7,a5
    80000b28:	00050913          	mv	s2,a0
    80000b2c:	00000a93          	li	s5,0
    80000b30:	000c0493          	mv	s1,s8
    80000b34:	000a8413          	mv	s0,s5
    80000b38:	00000c93          	li	s9,0
    80000b3c:	02041793          	slli	a5,s0,0x20
    80000b40:	01f7d793          	srli	a5,a5,0x1f
    80000b44:	00f987b3          	add	a5,s3,a5
    80000b48:	00049583          	lh	a1,0(s1)
    80000b4c:	00079503          	lh	a0,0(a5)
    80000b50:	0014041b          	addiw	s0,s0,1
    80000b54:	00248493          	addi	s1,s1,2
    80000b58:	734010ef          	jal	ra,8000228c <__muldi3>
    80000b5c:	01950cbb          	addw	s9,a0,s9
    80000b60:	fc891ee3          	bne	s2,s0,80000b3c <matrix_mul_vect+0x6c>
    80000b64:	019a2023          	sw	s9,0(s4)
    80000b68:	004a0a13          	addi	s4,s4,4
    80000b6c:	015b0abb          	addw	s5,s6,s5
    80000b70:	012b093b          	addw	s2,s6,s2
    80000b74:	fb4b9ee3          	bne	s7,s4,80000b30 <matrix_mul_vect+0x60>
    80000b78:	05813083          	ld	ra,88(sp)
    80000b7c:	05013403          	ld	s0,80(sp)
    80000b80:	04813483          	ld	s1,72(sp)
    80000b84:	04013903          	ld	s2,64(sp)
    80000b88:	03813983          	ld	s3,56(sp)
    80000b8c:	03013a03          	ld	s4,48(sp)
    80000b90:	02813a83          	ld	s5,40(sp)
    80000b94:	02013b03          	ld	s6,32(sp)
    80000b98:	01813b83          	ld	s7,24(sp)
    80000b9c:	01013c03          	ld	s8,16(sp)
    80000ba0:	00813c83          	ld	s9,8(sp)
    80000ba4:	06010113          	addi	sp,sp,96
    80000ba8:	00008067          	ret
    80000bac:	00008067          	ret

0000000080000bb0 <matrix_mul_matrix>:
    80000bb0:	10050e63          	beqz	a0,80000ccc <matrix_mul_matrix+0x11c>
    80000bb4:	f9010113          	addi	sp,sp,-112
    80000bb8:	06813023          	sd	s0,96(sp)
    80000bbc:	04913c23          	sd	s1,88(sp)
    80000bc0:	05213823          	sd	s2,80(sp)
    80000bc4:	05313423          	sd	s3,72(sp)
    80000bc8:	03613823          	sd	s6,48(sp)
    80000bcc:	03713423          	sd	s7,40(sp)
    80000bd0:	03813023          	sd	s8,32(sp)
    80000bd4:	06113423          	sd	ra,104(sp)
    80000bd8:	05413023          	sd	s4,64(sp)
    80000bdc:	03513c23          	sd	s5,56(sp)
    80000be0:	01913c23          	sd	s9,24(sp)
    80000be4:	01a13823          	sd	s10,16(sp)
    80000be8:	01b13423          	sd	s11,8(sp)
    80000bec:	00050413          	mv	s0,a0
    80000bf0:	00058b93          	mv	s7,a1
    80000bf4:	00060993          	mv	s3,a2
    80000bf8:	00068913          	mv	s2,a3
    80000bfc:	00050493          	mv	s1,a0
    80000c00:	00000b13          	li	s6,0
    80000c04:	00000c13          	li	s8,0
    80000c08:	00000a93          	li	s5,0
    80000c0c:	016a8a3b          	addw	s4,s5,s6
    80000c10:	020a1a13          	slli	s4,s4,0x20
    80000c14:	01ea5a13          	srli	s4,s4,0x1e
    80000c18:	014b8a33          	add	s4,s7,s4
    80000c1c:	000a8d13          	mv	s10,s5
    80000c20:	000b0c93          	mv	s9,s6
    80000c24:	00000d93          	li	s11,0
    80000c28:	020c9793          	slli	a5,s9,0x20
    80000c2c:	020d1713          	slli	a4,s10,0x20
    80000c30:	0207d793          	srli	a5,a5,0x20
    80000c34:	02075713          	srli	a4,a4,0x20
    80000c38:	00179793          	slli	a5,a5,0x1
    80000c3c:	00171713          	slli	a4,a4,0x1
    80000c40:	00f987b3          	add	a5,s3,a5
    80000c44:	00e90733          	add	a4,s2,a4
    80000c48:	00071583          	lh	a1,0(a4)
    80000c4c:	00079503          	lh	a0,0(a5)
    80000c50:	001c8c9b          	addiw	s9,s9,1
    80000c54:	01a40d3b          	addw	s10,s0,s10
    80000c58:	634010ef          	jal	ra,8000228c <__muldi3>
    80000c5c:	01b50dbb          	addw	s11,a0,s11
    80000c60:	fd9494e3          	bne	s1,s9,80000c28 <matrix_mul_matrix+0x78>
    80000c64:	01ba2023          	sw	s11,0(s4)
    80000c68:	001a879b          	addiw	a5,s5,1
    80000c6c:	00f40663          	beq	s0,a5,80000c78 <matrix_mul_matrix+0xc8>
    80000c70:	00078a93          	mv	s5,a5
    80000c74:	f99ff06f          	j	80000c0c <matrix_mul_matrix+0x5c>
    80000c78:	001c079b          	addiw	a5,s8,1
    80000c7c:	01640b3b          	addw	s6,s0,s6
    80000c80:	009404bb          	addw	s1,s0,s1
    80000c84:	015c0663          	beq	s8,s5,80000c90 <matrix_mul_matrix+0xe0>
    80000c88:	00078c13          	mv	s8,a5
    80000c8c:	f7dff06f          	j	80000c08 <matrix_mul_matrix+0x58>
    80000c90:	06813083          	ld	ra,104(sp)
    80000c94:	06013403          	ld	s0,96(sp)
    80000c98:	05813483          	ld	s1,88(sp)
    80000c9c:	05013903          	ld	s2,80(sp)
    80000ca0:	04813983          	ld	s3,72(sp)
    80000ca4:	04013a03          	ld	s4,64(sp)
    80000ca8:	03813a83          	ld	s5,56(sp)
    80000cac:	03013b03          	ld	s6,48(sp)
    80000cb0:	02813b83          	ld	s7,40(sp)
    80000cb4:	02013c03          	ld	s8,32(sp)
    80000cb8:	01813c83          	ld	s9,24(sp)
    80000cbc:	01013d03          	ld	s10,16(sp)
    80000cc0:	00813d83          	ld	s11,8(sp)
    80000cc4:	07010113          	addi	sp,sp,112
    80000cc8:	00008067          	ret
    80000ccc:	00008067          	ret

0000000080000cd0 <matrix_mul_matrix_bitextract>:
    80000cd0:	12050863          	beqz	a0,80000e00 <matrix_mul_matrix_bitextract+0x130>
    80000cd4:	f9010113          	addi	sp,sp,-112
    80000cd8:	06813023          	sd	s0,96(sp)
    80000cdc:	04913c23          	sd	s1,88(sp)
    80000ce0:	05213823          	sd	s2,80(sp)
    80000ce4:	05313423          	sd	s3,72(sp)
    80000ce8:	03613823          	sd	s6,48(sp)
    80000cec:	03713423          	sd	s7,40(sp)
    80000cf0:	03813023          	sd	s8,32(sp)
    80000cf4:	06113423          	sd	ra,104(sp)
    80000cf8:	05413023          	sd	s4,64(sp)
    80000cfc:	03513c23          	sd	s5,56(sp)
    80000d00:	01913c23          	sd	s9,24(sp)
    80000d04:	01a13823          	sd	s10,16(sp)
    80000d08:	01b13423          	sd	s11,8(sp)
    80000d0c:	00050413          	mv	s0,a0
    80000d10:	00058b93          	mv	s7,a1
    80000d14:	00060993          	mv	s3,a2
    80000d18:	00068913          	mv	s2,a3
    80000d1c:	00050493          	mv	s1,a0
    80000d20:	00000b13          	li	s6,0
    80000d24:	00000c13          	li	s8,0
    80000d28:	00000a93          	li	s5,0
    80000d2c:	016a8a3b          	addw	s4,s5,s6
    80000d30:	020a1a13          	slli	s4,s4,0x20
    80000d34:	01ea5a13          	srli	s4,s4,0x1e
    80000d38:	014b8a33          	add	s4,s7,s4
    80000d3c:	000a8d13          	mv	s10,s5
    80000d40:	000b0c93          	mv	s9,s6
    80000d44:	00000d93          	li	s11,0
    80000d48:	020c9793          	slli	a5,s9,0x20
    80000d4c:	020d1713          	slli	a4,s10,0x20
    80000d50:	0207d793          	srli	a5,a5,0x20
    80000d54:	02075713          	srli	a4,a4,0x20
    80000d58:	00179793          	slli	a5,a5,0x1
    80000d5c:	00171713          	slli	a4,a4,0x1
    80000d60:	00f987b3          	add	a5,s3,a5
    80000d64:	00e90733          	add	a4,s2,a4
    80000d68:	00071583          	lh	a1,0(a4)
    80000d6c:	00079503          	lh	a0,0(a5)
    80000d70:	001c8c9b          	addiw	s9,s9,1
    80000d74:	01a40d3b          	addw	s10,s0,s10
    80000d78:	514010ef          	jal	ra,8000228c <__muldi3>
    80000d7c:	4025579b          	sraiw	a5,a0,0x2
    80000d80:	4055559b          	sraiw	a1,a0,0x5
    80000d84:	07f5f593          	andi	a1,a1,127
    80000d88:	00f7f513          	andi	a0,a5,15
    80000d8c:	500010ef          	jal	ra,8000228c <__muldi3>
    80000d90:	01b50dbb          	addw	s11,a0,s11
    80000d94:	fb949ae3          	bne	s1,s9,80000d48 <matrix_mul_matrix_bitextract+0x78>
    80000d98:	01ba2023          	sw	s11,0(s4)
    80000d9c:	001a879b          	addiw	a5,s5,1
    80000da0:	00f40663          	beq	s0,a5,80000dac <matrix_mul_matrix_bitextract+0xdc>
    80000da4:	00078a93          	mv	s5,a5
    80000da8:	f85ff06f          	j	80000d2c <matrix_mul_matrix_bitextract+0x5c>
    80000dac:	001c079b          	addiw	a5,s8,1
    80000db0:	01640b3b          	addw	s6,s0,s6
    80000db4:	009404bb          	addw	s1,s0,s1
    80000db8:	015c0663          	beq	s8,s5,80000dc4 <matrix_mul_matrix_bitextract+0xf4>
    80000dbc:	00078c13          	mv	s8,a5
    80000dc0:	f69ff06f          	j	80000d28 <matrix_mul_matrix_bitextract+0x58>
    80000dc4:	06813083          	ld	ra,104(sp)
    80000dc8:	06013403          	ld	s0,96(sp)
    80000dcc:	05813483          	ld	s1,88(sp)
    80000dd0:	05013903          	ld	s2,80(sp)
    80000dd4:	04813983          	ld	s3,72(sp)
    80000dd8:	04013a03          	ld	s4,64(sp)
    80000ddc:	03813a83          	ld	s5,56(sp)
    80000de0:	03013b03          	ld	s6,48(sp)
    80000de4:	02813b83          	ld	s7,40(sp)
    80000de8:	02013c03          	ld	s8,32(sp)
    80000dec:	01813c83          	ld	s9,24(sp)
    80000df0:	01013d03          	ld	s10,16(sp)
    80000df4:	00813d83          	ld	s11,8(sp)
    80000df8:	07010113          	addi	sp,sp,112
    80000dfc:	00008067          	ret
    80000e00:	00008067          	ret

0000000080000e04 <matrix_test>:
    80000e04:	f8010113          	addi	sp,sp,-128
    80000e08:	05313c23          	sd	s3,88(sp)
    80000e0c:	fffff9b7          	lui	s3,0xfffff
    80000e10:	013767b3          	or	a5,a4,s3
    80000e14:	05413823          	sd	s4,80(sp)
    80000e18:	05613023          	sd	s6,64(sp)
    80000e1c:	01b13c23          	sd	s11,24(sp)
    80000e20:	06113c23          	sd	ra,120(sp)
    80000e24:	06813823          	sd	s0,112(sp)
    80000e28:	06913423          	sd	s1,104(sp)
    80000e2c:	07213023          	sd	s2,96(sp)
    80000e30:	05513423          	sd	s5,72(sp)
    80000e34:	03713c23          	sd	s7,56(sp)
    80000e38:	03813823          	sd	s8,48(sp)
    80000e3c:	03913423          	sd	s9,40(sp)
    80000e40:	03a13023          	sd	s10,32(sp)
    80000e44:	00f13423          	sd	a5,8(sp)
    80000e48:	00058d93          	mv	s11,a1
    80000e4c:	00060a13          	mv	s4,a2
    80000e50:	00068b13          	mv	s6,a3
    80000e54:	3a050c63          	beqz	a0,8000120c <matrix_test+0x408>
    80000e58:	03071413          	slli	s0,a4,0x30
    80000e5c:	00050813          	mv	a6,a0
    80000e60:	00050593          	mv	a1,a0
    80000e64:	03045413          	srli	s0,s0,0x30
    80000e68:	00000513          	li	a0,0
    80000e6c:	00000c13          	li	s8,0
    80000e70:	00050693          	mv	a3,a0
    80000e74:	02069793          	slli	a5,a3,0x20
    80000e78:	01f7d793          	srli	a5,a5,0x1f
    80000e7c:	00fa07b3          	add	a5,s4,a5
    80000e80:	0007d603          	lhu	a2,0(a5)
    80000e84:	0016869b          	addiw	a3,a3,1
    80000e88:	0086063b          	addw	a2,a2,s0
    80000e8c:	00c79023          	sh	a2,0(a5)
    80000e90:	fed592e3          	bne	a1,a3,80000e74 <matrix_test+0x70>
    80000e94:	001c091b          	addiw	s2,s8,1
    80000e98:	00a8053b          	addw	a0,a6,a0
    80000e9c:	00b805bb          	addw	a1,a6,a1
    80000ea0:	01280663          	beq	a6,s2,80000eac <matrix_test+0xa8>
    80000ea4:	00090c13          	mv	s8,s2
    80000ea8:	fc9ff06f          	j	80000e70 <matrix_test+0x6c>
    80000eac:	00070b9b          	sext.w	s7,a4
    80000eb0:	00090a93          	mv	s5,s2
    80000eb4:	00000c93          	li	s9,0
    80000eb8:	00000d13          	li	s10,0
    80000ebc:	000c8993          	mv	s3,s9
    80000ec0:	02099793          	slli	a5,s3,0x20
    80000ec4:	0207d793          	srli	a5,a5,0x20
    80000ec8:	00179693          	slli	a3,a5,0x1
    80000ecc:	00da06b3          	add	a3,s4,a3
    80000ed0:	00069583          	lh	a1,0(a3)
    80000ed4:	00279793          	slli	a5,a5,0x2
    80000ed8:	000b8513          	mv	a0,s7
    80000edc:	00fd84b3          	add	s1,s11,a5
    80000ee0:	3ac010ef          	jal	ra,8000228c <__muldi3>
    80000ee4:	00a4a023          	sw	a0,0(s1)
    80000ee8:	0019899b          	addiw	s3,s3,1
    80000eec:	fd3a9ae3          	bne	s5,s3,80000ec0 <matrix_test+0xbc>
    80000ef0:	001d079b          	addiw	a5,s10,1
    80000ef4:	01990cbb          	addw	s9,s2,s9
    80000ef8:	01590abb          	addw	s5,s2,s5
    80000efc:	018d0663          	beq	s10,s8,80000f08 <matrix_test+0x104>
    80000f00:	00078d13          	mv	s10,a5
    80000f04:	fb9ff06f          	j	80000ebc <matrix_test+0xb8>
    80000f08:	00812983          	lw	s3,8(sp)
    80000f0c:	00090813          	mv	a6,s2
    80000f10:	00000893          	li	a7,0
    80000f14:	00000513          	li	a0,0
    80000f18:	00000613          	li	a2,0
    80000f1c:	00000593          	li	a1,0
    80000f20:	00000313          	li	t1,0
    80000f24:	00088693          	mv	a3,a7
    80000f28:	0180006f          	j	80000f40 <matrix_test+0x13c>
    80000f2c:	0107951b          	slliw	a0,a5,0x10
    80000f30:	0016869b          	addiw	a3,a3,1
    80000f34:	4105551b          	sraiw	a0,a0,0x10
    80000f38:	00000593          	li	a1,0
    80000f3c:	04d80263          	beq	a6,a3,80000f80 <matrix_test+0x17c>
    80000f40:	02069793          	slli	a5,a3,0x20
    80000f44:	01e7d793          	srli	a5,a5,0x1e
    80000f48:	00fd87b3          	add	a5,s11,a5
    80000f4c:	00060713          	mv	a4,a2
    80000f50:	0007a603          	lw	a2,0(a5)
    80000f54:	03051513          	slli	a0,a0,0x30
    80000f58:	03055513          	srli	a0,a0,0x30
    80000f5c:	00c72733          	slt	a4,a4,a2
    80000f60:	00b605bb          	addw	a1,a2,a1
    80000f64:	00a5079b          	addiw	a5,a0,10
    80000f68:	00a7073b          	addw	a4,a4,a0
    80000f6c:	fcb9c0e3          	blt	s3,a1,80000f2c <matrix_test+0x128>
    80000f70:	0107151b          	slliw	a0,a4,0x10
    80000f74:	0016869b          	addiw	a3,a3,1
    80000f78:	4105551b          	sraiw	a0,a0,0x10
    80000f7c:	fcd812e3          	bne	a6,a3,80000f40 <matrix_test+0x13c>
    80000f80:	0013079b          	addiw	a5,t1,1
    80000f84:	0109083b          	addw	a6,s2,a6
    80000f88:	011908bb          	addw	a7,s2,a7
    80000f8c:	01830663          	beq	t1,s8,80000f98 <matrix_test+0x194>
    80000f90:	00078313          	mv	t1,a5
    80000f94:	f91ff06f          	j	80000f24 <matrix_test+0x120>
    80000f98:	00000593          	li	a1,0
    80000f9c:	935ff0ef          	jal	ra,800008d0 <crc16>
    80000fa0:	000a0613          	mv	a2,s4
    80000fa4:	000d8593          	mv	a1,s11
    80000fa8:	00050493          	mv	s1,a0
    80000fac:	000b0693          	mv	a3,s6
    80000fb0:	00090513          	mv	a0,s2
    80000fb4:	b1dff0ef          	jal	ra,80000ad0 <matrix_mul_vect>
    80000fb8:	00090813          	mv	a6,s2
    80000fbc:	00000893          	li	a7,0
    80000fc0:	00000513          	li	a0,0
    80000fc4:	00000613          	li	a2,0
    80000fc8:	00000593          	li	a1,0
    80000fcc:	00000313          	li	t1,0
    80000fd0:	00088693          	mv	a3,a7
    80000fd4:	0180006f          	j	80000fec <matrix_test+0x1e8>
    80000fd8:	0107951b          	slliw	a0,a5,0x10
    80000fdc:	0016869b          	addiw	a3,a3,1
    80000fe0:	4105551b          	sraiw	a0,a0,0x10
    80000fe4:	00000593          	li	a1,0
    80000fe8:	04d80263          	beq	a6,a3,8000102c <matrix_test+0x228>
    80000fec:	02069793          	slli	a5,a3,0x20
    80000ff0:	01e7d793          	srli	a5,a5,0x1e
    80000ff4:	00fd87b3          	add	a5,s11,a5
    80000ff8:	00060713          	mv	a4,a2
    80000ffc:	0007a603          	lw	a2,0(a5)
    80001000:	03051513          	slli	a0,a0,0x30
    80001004:	03055513          	srli	a0,a0,0x30
    80001008:	00c72733          	slt	a4,a4,a2
    8000100c:	00b605bb          	addw	a1,a2,a1
    80001010:	00a5079b          	addiw	a5,a0,10
    80001014:	00a7073b          	addw	a4,a4,a0
    80001018:	fcb9c0e3          	blt	s3,a1,80000fd8 <matrix_test+0x1d4>
    8000101c:	0107151b          	slliw	a0,a4,0x10
    80001020:	0016869b          	addiw	a3,a3,1
    80001024:	4105551b          	sraiw	a0,a0,0x10
    80001028:	fcd812e3          	bne	a6,a3,80000fec <matrix_test+0x1e8>
    8000102c:	0013079b          	addiw	a5,t1,1
    80001030:	0109083b          	addw	a6,s2,a6
    80001034:	011908bb          	addw	a7,s2,a7
    80001038:	01830663          	beq	t1,s8,80001044 <matrix_test+0x240>
    8000103c:	00078313          	mv	t1,a5
    80001040:	f91ff06f          	j	80000fd0 <matrix_test+0x1cc>
    80001044:	00048593          	mv	a1,s1
    80001048:	889ff0ef          	jal	ra,800008d0 <crc16>
    8000104c:	000a0613          	mv	a2,s4
    80001050:	000d8593          	mv	a1,s11
    80001054:	00050493          	mv	s1,a0
    80001058:	000b0693          	mv	a3,s6
    8000105c:	00090513          	mv	a0,s2
    80001060:	b51ff0ef          	jal	ra,80000bb0 <matrix_mul_matrix>
    80001064:	00000813          	li	a6,0
    80001068:	00000513          	li	a0,0
    8000106c:	00000613          	li	a2,0
    80001070:	00000593          	li	a1,0
    80001074:	00000893          	li	a7,0
    80001078:	00000693          	li	a3,0
    8000107c:	0180006f          	j	80001094 <matrix_test+0x290>
    80001080:	0107951b          	slliw	a0,a5,0x10
    80001084:	0016869b          	addiw	a3,a3,1
    80001088:	4105551b          	sraiw	a0,a0,0x10
    8000108c:	00000593          	li	a1,0
    80001090:	0526f463          	bgeu	a3,s2,800010d8 <matrix_test+0x2d4>
    80001094:	010687bb          	addw	a5,a3,a6
    80001098:	02079793          	slli	a5,a5,0x20
    8000109c:	01e7d793          	srli	a5,a5,0x1e
    800010a0:	00fd87b3          	add	a5,s11,a5
    800010a4:	00060713          	mv	a4,a2
    800010a8:	0007a603          	lw	a2,0(a5)
    800010ac:	03051513          	slli	a0,a0,0x30
    800010b0:	03055513          	srli	a0,a0,0x30
    800010b4:	00c72733          	slt	a4,a4,a2
    800010b8:	00b605bb          	addw	a1,a2,a1
    800010bc:	00a5079b          	addiw	a5,a0,10
    800010c0:	00a7073b          	addw	a4,a4,a0
    800010c4:	fab9cee3          	blt	s3,a1,80001080 <matrix_test+0x27c>
    800010c8:	0107151b          	slliw	a0,a4,0x10
    800010cc:	0016869b          	addiw	a3,a3,1
    800010d0:	4105551b          	sraiw	a0,a0,0x10
    800010d4:	fd26e0e3          	bltu	a3,s2,80001094 <matrix_test+0x290>
    800010d8:	0018889b          	addiw	a7,a7,1
    800010dc:	0109083b          	addw	a6,s2,a6
    800010e0:	f928ece3          	bltu	a7,s2,80001078 <matrix_test+0x274>
    800010e4:	00048593          	mv	a1,s1
    800010e8:	fe8ff0ef          	jal	ra,800008d0 <crc16>
    800010ec:	000a0613          	mv	a2,s4
    800010f0:	000d8593          	mv	a1,s11
    800010f4:	00050493          	mv	s1,a0
    800010f8:	000b0693          	mv	a3,s6
    800010fc:	00090513          	mv	a0,s2
    80001100:	bd1ff0ef          	jal	ra,80000cd0 <matrix_mul_matrix_bitextract>
    80001104:	00000813          	li	a6,0
    80001108:	00000513          	li	a0,0
    8000110c:	00000613          	li	a2,0
    80001110:	00000593          	li	a1,0
    80001114:	00000893          	li	a7,0
    80001118:	00000693          	li	a3,0
    8000111c:	0180006f          	j	80001134 <matrix_test+0x330>
    80001120:	0107951b          	slliw	a0,a5,0x10
    80001124:	0016869b          	addiw	a3,a3,1
    80001128:	4105551b          	sraiw	a0,a0,0x10
    8000112c:	00000593          	li	a1,0
    80001130:	0526f463          	bgeu	a3,s2,80001178 <matrix_test+0x374>
    80001134:	010687bb          	addw	a5,a3,a6
    80001138:	02079793          	slli	a5,a5,0x20
    8000113c:	01e7d793          	srli	a5,a5,0x1e
    80001140:	00fd87b3          	add	a5,s11,a5
    80001144:	00060713          	mv	a4,a2
    80001148:	0007a603          	lw	a2,0(a5)
    8000114c:	03051513          	slli	a0,a0,0x30
    80001150:	03055513          	srli	a0,a0,0x30
    80001154:	00c72733          	slt	a4,a4,a2
    80001158:	00b605bb          	addw	a1,a2,a1
    8000115c:	00a5079b          	addiw	a5,a0,10
    80001160:	00a7073b          	addw	a4,a4,a0
    80001164:	fab9cee3          	blt	s3,a1,80001120 <matrix_test+0x31c>
    80001168:	0107151b          	slliw	a0,a4,0x10
    8000116c:	0016869b          	addiw	a3,a3,1
    80001170:	4105551b          	sraiw	a0,a0,0x10
    80001174:	fd26e0e3          	bltu	a3,s2,80001134 <matrix_test+0x330>
    80001178:	0018889b          	addiw	a7,a7,1
    8000117c:	0109083b          	addw	a6,s2,a6
    80001180:	f928ece3          	bltu	a7,s2,80001118 <matrix_test+0x314>
    80001184:	00048593          	mv	a1,s1
    80001188:	f48ff0ef          	jal	ra,800008d0 <crc16>
    8000118c:	00000613          	li	a2,0
    80001190:	00000593          	li	a1,0
    80001194:	00000713          	li	a4,0
    80001198:	00c707bb          	addw	a5,a4,a2
    8000119c:	02079793          	slli	a5,a5,0x20
    800011a0:	01f7d793          	srli	a5,a5,0x1f
    800011a4:	00fa07b3          	add	a5,s4,a5
    800011a8:	0007d683          	lhu	a3,0(a5)
    800011ac:	0017071b          	addiw	a4,a4,1
    800011b0:	408686bb          	subw	a3,a3,s0
    800011b4:	00d79023          	sh	a3,0(a5)
    800011b8:	ff2760e3          	bltu	a4,s2,80001198 <matrix_test+0x394>
    800011bc:	0015859b          	addiw	a1,a1,1
    800011c0:	00c9063b          	addw	a2,s2,a2
    800011c4:	fd25e8e3          	bltu	a1,s2,80001194 <matrix_test+0x390>
    800011c8:	07813083          	ld	ra,120(sp)
    800011cc:	07013403          	ld	s0,112(sp)
    800011d0:	0105151b          	slliw	a0,a0,0x10
    800011d4:	06813483          	ld	s1,104(sp)
    800011d8:	06013903          	ld	s2,96(sp)
    800011dc:	05813983          	ld	s3,88(sp)
    800011e0:	05013a03          	ld	s4,80(sp)
    800011e4:	04813a83          	ld	s5,72(sp)
    800011e8:	04013b03          	ld	s6,64(sp)
    800011ec:	03813b83          	ld	s7,56(sp)
    800011f0:	03013c03          	ld	s8,48(sp)
    800011f4:	02813c83          	ld	s9,40(sp)
    800011f8:	02013d03          	ld	s10,32(sp)
    800011fc:	01813d83          	ld	s11,24(sp)
    80001200:	4105551b          	sraiw	a0,a0,0x10
    80001204:	08010113          	addi	sp,sp,128
    80001208:	00008067          	ret
    8000120c:	00000593          	li	a1,0
    80001210:	ec0ff0ef          	jal	ra,800008d0 <crc16>
    80001214:	000b0693          	mv	a3,s6
    80001218:	000a0613          	mv	a2,s4
    8000121c:	00050413          	mv	s0,a0
    80001220:	000d8593          	mv	a1,s11
    80001224:	00000513          	li	a0,0
    80001228:	8a9ff0ef          	jal	ra,80000ad0 <matrix_mul_vect>
    8000122c:	00040593          	mv	a1,s0
    80001230:	00000513          	li	a0,0
    80001234:	e9cff0ef          	jal	ra,800008d0 <crc16>
    80001238:	000b0693          	mv	a3,s6
    8000123c:	000a0613          	mv	a2,s4
    80001240:	00050413          	mv	s0,a0
    80001244:	000d8593          	mv	a1,s11
    80001248:	00000513          	li	a0,0
    8000124c:	965ff0ef          	jal	ra,80000bb0 <matrix_mul_matrix>
    80001250:	00040593          	mv	a1,s0
    80001254:	00000513          	li	a0,0
    80001258:	e78ff0ef          	jal	ra,800008d0 <crc16>
    8000125c:	00050413          	mv	s0,a0
    80001260:	000d8593          	mv	a1,s11
    80001264:	000b0693          	mv	a3,s6
    80001268:	000a0613          	mv	a2,s4
    8000126c:	00000513          	li	a0,0
    80001270:	a61ff0ef          	jal	ra,80000cd0 <matrix_mul_matrix_bitextract>
    80001274:	00040593          	mv	a1,s0
    80001278:	00000513          	li	a0,0
    8000127c:	e54ff0ef          	jal	ra,800008d0 <crc16>
    80001280:	f49ff06f          	j	800011c8 <matrix_test+0x3c4>

0000000080001284 <core_bench_matrix>:
    80001284:	ff010113          	addi	sp,sp,-16
    80001288:	00813023          	sd	s0,0(sp)
    8000128c:	01053683          	ld	a3,16(a0)
    80001290:	00060413          	mv	s0,a2
    80001294:	00058713          	mv	a4,a1
    80001298:	00853603          	ld	a2,8(a0)
    8000129c:	01853583          	ld	a1,24(a0)
    800012a0:	00052503          	lw	a0,0(a0)
    800012a4:	00113423          	sd	ra,8(sp)
    800012a8:	b5dff0ef          	jal	ra,80000e04 <matrix_test>
    800012ac:	00040593          	mv	a1,s0
    800012b0:	00013403          	ld	s0,0(sp)
    800012b4:	00813083          	ld	ra,8(sp)
    800012b8:	01010113          	addi	sp,sp,16
    800012bc:	e14ff06f          	j	800008d0 <crc16>

00000000800012c0 <core_init_state>:
    800012c0:	fd010113          	addi	sp,sp,-48
    800012c4:	fff5081b          	addiw	a6,a0,-1
    800012c8:	02813423          	sd	s0,40(sp)
    800012cc:	02913023          	sd	s1,32(sp)
    800012d0:	01213c23          	sd	s2,24(sp)
    800012d4:	01313823          	sd	s3,16(sp)
    800012d8:	01413423          	sd	s4,8(sp)
    800012dc:	00100713          	li	a4,1
    800012e0:	00080e93          	mv	t4,a6
    800012e4:	17077a63          	bgeu	a4,a6,80001458 <core_init_state+0x198>
    800012e8:	0015859b          	addiw	a1,a1,1
    800012ec:	03059693          	slli	a3,a1,0x30
    800012f0:	0306d693          	srli	a3,a3,0x30
    800012f4:	0036d793          	srli	a5,a3,0x3
    800012f8:	00700313          	li	t1,7
    800012fc:	0076f493          	andi	s1,a3,7
    80001300:	00000413          	li	s0,0
    80001304:	00003397          	auipc	t2,0x3
    80001308:	90438393          	addi	t2,t2,-1788 # 80003c08 <errpat>
    8000130c:	00400893          	li	a7,4
    80001310:	00003297          	auipc	t0,0x3
    80001314:	95828293          	addi	t0,t0,-1704 # 80003c68 <scipat>
    80001318:	00100593          	li	a1,1
    8000131c:	00003f97          	auipc	t6,0x3
    80001320:	90cf8f93          	addi	t6,t6,-1780 # 80003c28 <floatpat>
    80001324:	00003f17          	auipc	t5,0x3
    80001328:	924f0f13          	addi	t5,t5,-1756 # 80003c48 <intpat>
    8000132c:	02c00e13          	li	t3,44
    80001330:	0037f793          	andi	a5,a5,3
    80001334:	08648663          	beq	s1,t1,800013c0 <core_init_state+0x100>
    80001338:	1098e463          	bltu	a7,s1,80001440 <core_init_state+0x180>
    8000133c:	ffd4871b          	addiw	a4,s1,-3
    80001340:	03071713          	slli	a4,a4,0x30
    80001344:	03075713          	srli	a4,a4,0x30
    80001348:	00379793          	slli	a5,a5,0x3
    8000134c:	0ee5e063          	bltu	a1,a4,8000142c <core_init_state+0x16c>
    80001350:	00ff87b3          	add	a5,t6,a5
    80001354:	0007b783          	ld	a5,0(a5)
    80001358:	00900913          	li	s2,9
    8000135c:	00800493          	li	s1,8
    80001360:	0124093b          	addw	s2,s0,s2
    80001364:	07097c63          	bgeu	s2,a6,800013dc <core_init_state+0x11c>
    80001368:	02041a13          	slli	s4,s0,0x20
    8000136c:	020a5a13          	srli	s4,s4,0x20
    80001370:	02049413          	slli	s0,s1,0x20
    80001374:	01460733          	add	a4,a2,s4
    80001378:	02045413          	srli	s0,s0,0x20
    8000137c:	009784b3          	add	s1,a5,s1
    80001380:	0007c983          	lbu	s3,0(a5)
    80001384:	00178793          	addi	a5,a5,1
    80001388:	00170713          	addi	a4,a4,1
    8000138c:	ff370fa3          	sb	s3,-1(a4)
    80001390:	fef498e3          	bne	s1,a5,80001380 <core_init_state+0xc0>
    80001394:	0016869b          	addiw	a3,a3,1
    80001398:	008607b3          	add	a5,a2,s0
    8000139c:	03069693          	slli	a3,a3,0x30
    800013a0:	01478433          	add	s0,a5,s4
    800013a4:	0306d693          	srli	a3,a3,0x30
    800013a8:	01c40023          	sb	t3,0(s0)
    800013ac:	0036d793          	srli	a5,a3,0x3
    800013b0:	0076f493          	andi	s1,a3,7
    800013b4:	00090413          	mv	s0,s2
    800013b8:	0037f793          	andi	a5,a5,3
    800013bc:	f6649ee3          	bne	s1,t1,80001338 <core_init_state+0x78>
    800013c0:	00379793          	slli	a5,a5,0x3
    800013c4:	00900913          	li	s2,9
    800013c8:	00f387b3          	add	a5,t2,a5
    800013cc:	0124093b          	addw	s2,s0,s2
    800013d0:	0007b783          	ld	a5,0(a5)
    800013d4:	00800493          	li	s1,8
    800013d8:	f90968e3          	bltu	s2,a6,80001368 <core_init_state+0xa8>
    800013dc:	02a47a63          	bgeu	s0,a0,80001410 <core_init_state+0x150>
    800013e0:	02041793          	slli	a5,s0,0x20
    800013e4:	408e8ebb          	subw	t4,t4,s0
    800013e8:	0207d793          	srli	a5,a5,0x20
    800013ec:	00160713          	addi	a4,a2,1
    800013f0:	020e9e93          	slli	t4,t4,0x20
    800013f4:	00f70733          	add	a4,a4,a5
    800013f8:	020ede93          	srli	t4,t4,0x20
    800013fc:	00f607b3          	add	a5,a2,a5
    80001400:	01d70733          	add	a4,a4,t4
    80001404:	00078023          	sb	zero,0(a5)
    80001408:	00178793          	addi	a5,a5,1
    8000140c:	fef71ce3          	bne	a4,a5,80001404 <core_init_state+0x144>
    80001410:	02813403          	ld	s0,40(sp)
    80001414:	02013483          	ld	s1,32(sp)
    80001418:	01813903          	ld	s2,24(sp)
    8000141c:	01013983          	ld	s3,16(sp)
    80001420:	00813a03          	ld	s4,8(sp)
    80001424:	03010113          	addi	sp,sp,48
    80001428:	00008067          	ret
    8000142c:	00ff07b3          	add	a5,t5,a5
    80001430:	0007b783          	ld	a5,0(a5)
    80001434:	00500913          	li	s2,5
    80001438:	00400493          	li	s1,4
    8000143c:	f25ff06f          	j	80001360 <core_init_state+0xa0>
    80001440:	00379793          	slli	a5,a5,0x3
    80001444:	00f287b3          	add	a5,t0,a5
    80001448:	0007b783          	ld	a5,0(a5)
    8000144c:	00900913          	li	s2,9
    80001450:	00800493          	li	s1,8
    80001454:	f0dff06f          	j	80001360 <core_init_state+0xa0>
    80001458:	00000413          	li	s0,0
    8000145c:	f85ff06f          	j	800013e0 <core_init_state+0x120>

0000000080001460 <core_state_transition>:
    80001460:	00053783          	ld	a5,0(a0)
    80001464:	00050e13          	mv	t3,a0
    80001468:	00000513          	li	a0,0
    8000146c:	0007c703          	lbu	a4,0(a5)
    80001470:	00078813          	mv	a6,a5
    80001474:	0c070c63          	beqz	a4,8000154c <core_state_transition+0xec>
    80001478:	02c00693          	li	a3,44
    8000147c:	00178813          	addi	a6,a5,1
    80001480:	2ad70863          	beq	a4,a3,80001730 <core_state_transition+0x2d0>
    80001484:	0005a503          	lw	a0,0(a1)
    80001488:	fd07061b          	addiw	a2,a4,-48
    8000148c:	0ff67613          	andi	a2,a2,255
    80001490:	00900893          	li	a7,9
    80001494:	0015051b          	addiw	a0,a0,1
    80001498:	0ac8ee63          	bltu	a7,a2,80001554 <core_state_transition+0xf4>
    8000149c:	00a5a023          	sw	a0,0(a1)
    800014a0:	0017c883          	lbu	a7,1(a5)
    800014a4:	16088063          	beqz	a7,80001604 <core_state_transition+0x1a4>
    800014a8:	00278713          	addi	a4,a5,2
    800014ac:	14d88a63          	beq	a7,a3,80001600 <core_state_transition+0x1a0>
    800014b0:	fd08851b          	addiw	a0,a7,-48
    800014b4:	02e00793          	li	a5,46
    800014b8:	00900693          	li	a3,9
    800014bc:	02c00613          	li	a2,44
    800014c0:	0ff57513          	andi	a0,a0,255
    800014c4:	02f88663          	beq	a7,a5,800014f0 <core_state_transition+0x90>
    800014c8:	0ca6e063          	bltu	a3,a0,80001588 <core_state_transition+0x128>
    800014cc:	00184883          	lbu	a7,1(a6)
    800014d0:	00170513          	addi	a0,a4,1
    800014d4:	00070813          	mv	a6,a4
    800014d8:	12088463          	beqz	a7,80001600 <core_state_transition+0x1a0>
    800014dc:	28c88863          	beq	a7,a2,8000176c <core_state_transition+0x30c>
    800014e0:	00050713          	mv	a4,a0
    800014e4:	fd08851b          	addiw	a0,a7,-48
    800014e8:	0ff57513          	andi	a0,a0,255
    800014ec:	fcf89ee3          	bne	a7,a5,800014c8 <core_state_transition+0x68>
    800014f0:	0105a783          	lw	a5,16(a1)
    800014f4:	00500513          	li	a0,5
    800014f8:	0017879b          	addiw	a5,a5,1
    800014fc:	00f5a823          	sw	a5,16(a1)
    80001500:	00184303          	lbu	t1,1(a6)
    80001504:	00070813          	mv	a6,a4
    80001508:	04030263          	beqz	t1,8000154c <core_state_transition+0xec>
    8000150c:	02c00793          	li	a5,44
    80001510:	00170893          	addi	a7,a4,1
    80001514:	20f30863          	beq	t1,a5,80001724 <core_state_transition+0x2c4>
    80001518:	04500793          	li	a5,69
    8000151c:	00900693          	li	a3,9
    80001520:	02c00613          	li	a2,44
    80001524:	fd03051b          	addiw	a0,t1,-48
    80001528:	0df37313          	andi	t1,t1,223
    8000152c:	0ff57513          	andi	a0,a0,255
    80001530:	0cf30e63          	beq	t1,a5,8000160c <core_state_transition+0x1ac>
    80001534:	1aa6f063          	bgeu	a3,a0,800016d4 <core_state_transition+0x274>
    80001538:	0145a783          	lw	a5,20(a1)
    8000153c:	00088813          	mv	a6,a7
    80001540:	00100513          	li	a0,1
    80001544:	0017879b          	addiw	a5,a5,1
    80001548:	00f5aa23          	sw	a5,20(a1)
    8000154c:	010e3023          	sd	a6,0(t3)
    80001550:	00008067          	ret
    80001554:	02b00613          	li	a2,43
    80001558:	04c70663          	beq	a4,a2,800015a4 <core_state_transition+0x144>
    8000155c:	02d00613          	li	a2,45
    80001560:	04c70263          	beq	a4,a2,800015a4 <core_state_transition+0x144>
    80001564:	02e00613          	li	a2,46
    80001568:	18c70463          	beq	a4,a2,800016f0 <core_state_transition+0x290>
    8000156c:	0045a783          	lw	a5,4(a1)
    80001570:	00a5a023          	sw	a0,0(a1)
    80001574:	00100513          	li	a0,1
    80001578:	0017879b          	addiw	a5,a5,1
    8000157c:	00f5a223          	sw	a5,4(a1)
    80001580:	010e3023          	sd	a6,0(t3)
    80001584:	00008067          	ret
    80001588:	0105a783          	lw	a5,16(a1)
    8000158c:	00070813          	mv	a6,a4
    80001590:	00100513          	li	a0,1
    80001594:	0017879b          	addiw	a5,a5,1
    80001598:	00f5a823          	sw	a5,16(a1)
    8000159c:	010e3023          	sd	a6,0(t3)
    800015a0:	00008067          	ret
    800015a4:	00a5a023          	sw	a0,0(a1)
    800015a8:	0017c603          	lbu	a2,1(a5)
    800015ac:	1a060663          	beqz	a2,80001758 <core_state_transition+0x2f8>
    800015b0:	00278813          	addi	a6,a5,2
    800015b4:	1ad60263          	beq	a2,a3,80001758 <core_state_transition+0x2f8>
    800015b8:	0085a683          	lw	a3,8(a1)
    800015bc:	fd06071b          	addiw	a4,a2,-48
    800015c0:	0ff77713          	andi	a4,a4,255
    800015c4:	00900513          	li	a0,9
    800015c8:	0016869b          	addiw	a3,a3,1
    800015cc:	00e57e63          	bgeu	a0,a4,800015e8 <core_state_transition+0x188>
    800015d0:	02e00713          	li	a4,46
    800015d4:	12e60c63          	beq	a2,a4,8000170c <core_state_transition+0x2ac>
    800015d8:	00d5a423          	sw	a3,8(a1)
    800015dc:	00100513          	li	a0,1
    800015e0:	010e3023          	sd	a6,0(t3)
    800015e4:	00008067          	ret
    800015e8:	00d5a423          	sw	a3,8(a1)
    800015ec:	0027c883          	lbu	a7,2(a5)
    800015f0:	00088a63          	beqz	a7,80001604 <core_state_transition+0x1a4>
    800015f4:	02c00793          	li	a5,44
    800015f8:	00180713          	addi	a4,a6,1
    800015fc:	eaf89ae3          	bne	a7,a5,800014b0 <core_state_transition+0x50>
    80001600:	00070813          	mv	a6,a4
    80001604:	00400513          	li	a0,4
    80001608:	f45ff06f          	j	8000154c <core_state_transition+0xec>
    8000160c:	0145a783          	lw	a5,20(a1)
    80001610:	0017879b          	addiw	a5,a5,1
    80001614:	00f5aa23          	sw	a5,20(a1)
    80001618:	00174783          	lbu	a5,1(a4)
    8000161c:	12078463          	beqz	a5,80001744 <core_state_transition+0x2e4>
    80001620:	02c00693          	li	a3,44
    80001624:	00188813          	addi	a6,a7,1
    80001628:	12d78063          	beq	a5,a3,80001748 <core_state_transition+0x2e8>
    8000162c:	00c5a703          	lw	a4,12(a1)
    80001630:	fd57879b          	addiw	a5,a5,-43
    80001634:	0fd7f793          	andi	a5,a5,253
    80001638:	0017071b          	addiw	a4,a4,1
    8000163c:	00e5a623          	sw	a4,12(a1)
    80001640:	00078863          	beqz	a5,80001650 <core_state_transition+0x1f0>
    80001644:	00100513          	li	a0,1
    80001648:	010e3023          	sd	a6,0(t3)
    8000164c:	00008067          	ret
    80001650:	0018c783          	lbu	a5,1(a7)
    80001654:	0e078e63          	beqz	a5,80001750 <core_state_transition+0x2f0>
    80001658:	00288813          	addi	a6,a7,2
    8000165c:	0ed78a63          	beq	a5,a3,80001750 <core_state_transition+0x2f0>
    80001660:	0185a703          	lw	a4,24(a1)
    80001664:	fd07879b          	addiw	a5,a5,-48
    80001668:	0ff7f793          	andi	a5,a5,255
    8000166c:	0017071b          	addiw	a4,a4,1
    80001670:	00900613          	li	a2,9
    80001674:	00e5ac23          	sw	a4,24(a1)
    80001678:	fcf666e3          	bltu	a2,a5,80001644 <core_state_transition+0x1e4>
    8000167c:	0028c703          	lbu	a4,2(a7)
    80001680:	0a070e63          	beqz	a4,8000173c <core_state_transition+0x2dc>
    80001684:	00388793          	addi	a5,a7,3
    80001688:	0ad70863          	beq	a4,a3,80001738 <core_state_transition+0x2d8>
    8000168c:	00900693          	li	a3,9
    80001690:	02c00513          	li	a0,44
    80001694:	fd07071b          	addiw	a4,a4,-48
    80001698:	0ff77713          	andi	a4,a4,255
    8000169c:	00e6fe63          	bgeu	a3,a4,800016b8 <core_state_transition+0x258>
    800016a0:	0045a703          	lw	a4,4(a1)
    800016a4:	00078813          	mv	a6,a5
    800016a8:	00100513          	li	a0,1
    800016ac:	0017079b          	addiw	a5,a4,1
    800016b0:	00f5a223          	sw	a5,4(a1)
    800016b4:	e99ff06f          	j	8000154c <core_state_transition+0xec>
    800016b8:	00184703          	lbu	a4,1(a6)
    800016bc:	00178613          	addi	a2,a5,1
    800016c0:	00078813          	mv	a6,a5
    800016c4:	06070a63          	beqz	a4,80001738 <core_state_transition+0x2d8>
    800016c8:	08a70c63          	beq	a4,a0,80001760 <core_state_transition+0x300>
    800016cc:	00060793          	mv	a5,a2
    800016d0:	fc5ff06f          	j	80001694 <core_state_transition+0x234>
    800016d4:	00174303          	lbu	t1,1(a4)
    800016d8:	00188813          	addi	a6,a7,1
    800016dc:	00088713          	mv	a4,a7
    800016e0:	04030263          	beqz	t1,80001724 <core_state_transition+0x2c4>
    800016e4:	04c30263          	beq	t1,a2,80001728 <core_state_transition+0x2c8>
    800016e8:	00080893          	mv	a7,a6
    800016ec:	e39ff06f          	j	80001524 <core_state_transition+0xc4>
    800016f0:	00a5a023          	sw	a0,0(a1)
    800016f4:	0017c303          	lbu	t1,1(a5)
    800016f8:	02030863          	beqz	t1,80001728 <core_state_transition+0x2c8>
    800016fc:	00278893          	addi	a7,a5,2
    80001700:	02d30263          	beq	t1,a3,80001724 <core_state_transition+0x2c4>
    80001704:	00080713          	mv	a4,a6
    80001708:	e11ff06f          	j	80001518 <core_state_transition+0xb8>
    8000170c:	00d5a423          	sw	a3,8(a1)
    80001710:	0027c303          	lbu	t1,2(a5)
    80001714:	00030a63          	beqz	t1,80001728 <core_state_transition+0x2c8>
    80001718:	02c00793          	li	a5,44
    8000171c:	00180893          	addi	a7,a6,1
    80001720:	fef312e3          	bne	t1,a5,80001704 <core_state_transition+0x2a4>
    80001724:	00088813          	mv	a6,a7
    80001728:	00500513          	li	a0,5
    8000172c:	e21ff06f          	j	8000154c <core_state_transition+0xec>
    80001730:	00000513          	li	a0,0
    80001734:	e19ff06f          	j	8000154c <core_state_transition+0xec>
    80001738:	00078813          	mv	a6,a5
    8000173c:	00700513          	li	a0,7
    80001740:	e0dff06f          	j	8000154c <core_state_transition+0xec>
    80001744:	00088813          	mv	a6,a7
    80001748:	00300513          	li	a0,3
    8000174c:	e01ff06f          	j	8000154c <core_state_transition+0xec>
    80001750:	00600513          	li	a0,6
    80001754:	df9ff06f          	j	8000154c <core_state_transition+0xec>
    80001758:	00200513          	li	a0,2
    8000175c:	df1ff06f          	j	8000154c <core_state_transition+0xec>
    80001760:	00060813          	mv	a6,a2
    80001764:	00700513          	li	a0,7
    80001768:	de5ff06f          	j	8000154c <core_state_transition+0xec>
    8000176c:	00050813          	mv	a6,a0
    80001770:	00400513          	li	a0,4
    80001774:	dd9ff06f          	j	8000154c <core_state_transition+0xec>

0000000080001778 <core_bench_state>:
    80001778:	f6010113          	addi	sp,sp,-160
    8000177c:	08813823          	sd	s0,144(sp)
    80001780:	09213023          	sd	s2,128(sp)
    80001784:	01010413          	addi	s0,sp,16
    80001788:	03010913          	addi	s2,sp,48
    8000178c:	08913423          	sd	s1,136(sp)
    80001790:	07313c23          	sd	s3,120(sp)
    80001794:	07413823          	sd	s4,112(sp)
    80001798:	07513423          	sd	s5,104(sp)
    8000179c:	07613023          	sd	s6,96(sp)
    800017a0:	05713c23          	sd	s7,88(sp)
    800017a4:	00068a13          	mv	s4,a3
    800017a8:	00070993          	mv	s3,a4
    800017ac:	00078493          	mv	s1,a5
    800017b0:	08113c23          	sd	ra,152(sp)
    800017b4:	05813823          	sd	s8,80(sp)
    800017b8:	00058a93          	mv	s5,a1
    800017bc:	00050b93          	mv	s7,a0
    800017c0:	00060b13          	mv	s6,a2
    800017c4:	00b13423          	sd	a1,8(sp)
    800017c8:	05010693          	addi	a3,sp,80
    800017cc:	00040713          	mv	a4,s0
    800017d0:	00090793          	mv	a5,s2
    800017d4:	0007a023          	sw	zero,0(a5)
    800017d8:	00072023          	sw	zero,0(a4)
    800017dc:	00478793          	addi	a5,a5,4
    800017e0:	00470713          	addi	a4,a4,4
    800017e4:	fed798e3          	bne	a5,a3,800017d4 <core_bench_state+0x5c>
    800017e8:	000ac703          	lbu	a4,0(s5)
    800017ec:	14070663          	beqz	a4,80001938 <core_bench_state+0x1c0>
    800017f0:	00810c13          	addi	s8,sp,8
    800017f4:	03010593          	addi	a1,sp,48
    800017f8:	000c0513          	mv	a0,s8
    800017fc:	c65ff0ef          	jal	ra,80001460 <core_state_transition>
    80001800:	02051813          	slli	a6,a0,0x20
    80001804:	05010793          	addi	a5,sp,80
    80001808:	01e85813          	srli	a6,a6,0x1e
    8000180c:	01078833          	add	a6,a5,a6
    80001810:	00813703          	ld	a4,8(sp)
    80001814:	fc082783          	lw	a5,-64(a6)
    80001818:	00074703          	lbu	a4,0(a4)
    8000181c:	0017879b          	addiw	a5,a5,1
    80001820:	fcf82023          	sw	a5,-64(a6)
    80001824:	fc0718e3          	bnez	a4,800017f4 <core_bench_state+0x7c>
    80001828:	020b9b93          	slli	s7,s7,0x20
    8000182c:	020bdb93          	srli	s7,s7,0x20
    80001830:	01513423          	sd	s5,8(sp)
    80001834:	017a8bb3          	add	s7,s5,s7
    80001838:	000ac703          	lbu	a4,0(s5)
    8000183c:	117afa63          	bgeu	s5,s7,80001950 <core_bench_state+0x1d8>
    80001840:	000a8793          	mv	a5,s5
    80001844:	02c00613          	li	a2,44
    80001848:	0080006f          	j	80001850 <core_bench_state+0xd8>
    8000184c:	0007c703          	lbu	a4,0(a5)
    80001850:	016746b3          	xor	a3,a4,s6
    80001854:	00c70463          	beq	a4,a2,8000185c <core_bench_state+0xe4>
    80001858:	00d78023          	sb	a3,0(a5)
    8000185c:	00813783          	ld	a5,8(sp)
    80001860:	013787b3          	add	a5,a5,s3
    80001864:	00f13423          	sd	a5,8(sp)
    80001868:	ff77e2e3          	bltu	a5,s7,8000184c <core_bench_state+0xd4>
    8000186c:	000ac783          	lbu	a5,0(s5)
    80001870:	01513423          	sd	s5,8(sp)
    80001874:	00810c13          	addi	s8,sp,8
    80001878:	04078063          	beqz	a5,800018b8 <core_bench_state+0x140>
    8000187c:	03010593          	addi	a1,sp,48
    80001880:	000c0513          	mv	a0,s8
    80001884:	bddff0ef          	jal	ra,80001460 <core_state_transition>
    80001888:	02051613          	slli	a2,a0,0x20
    8000188c:	05010793          	addi	a5,sp,80
    80001890:	01e65613          	srli	a2,a2,0x1e
    80001894:	00c78633          	add	a2,a5,a2
    80001898:	00813703          	ld	a4,8(sp)
    8000189c:	fc062783          	lw	a5,-64(a2)
    800018a0:	00074703          	lbu	a4,0(a4)
    800018a4:	0017879b          	addiw	a5,a5,1
    800018a8:	fcf62023          	sw	a5,-64(a2)
    800018ac:	fc0718e3          	bnez	a4,8000187c <core_bench_state+0x104>
    800018b0:	01513423          	sd	s5,8(sp)
    800018b4:	037af463          	bgeu	s5,s7,800018dc <core_bench_state+0x164>
    800018b8:	02c00693          	li	a3,44
    800018bc:	000ac783          	lbu	a5,0(s5)
    800018c0:	0147c733          	xor	a4,a5,s4
    800018c4:	00d78463          	beq	a5,a3,800018cc <core_bench_state+0x154>
    800018c8:	00ea8023          	sb	a4,0(s5)
    800018cc:	00813a83          	ld	s5,8(sp)
    800018d0:	013a8ab3          	add	s5,s5,s3
    800018d4:	01513423          	sd	s5,8(sp)
    800018d8:	ff7ae2e3          	bltu	s5,s7,800018bc <core_bench_state+0x144>
    800018dc:	02040993          	addi	s3,s0,32
    800018e0:	00042503          	lw	a0,0(s0)
    800018e4:	00048593          	mv	a1,s1
    800018e8:	00440413          	addi	s0,s0,4
    800018ec:	fb1fe0ef          	jal	ra,8000089c <crcu32>
    800018f0:	00050593          	mv	a1,a0
    800018f4:	00092503          	lw	a0,0(s2)
    800018f8:	00490913          	addi	s2,s2,4
    800018fc:	fa1fe0ef          	jal	ra,8000089c <crcu32>
    80001900:	00050493          	mv	s1,a0
    80001904:	fc899ee3          	bne	s3,s0,800018e0 <core_bench_state+0x168>
    80001908:	09813083          	ld	ra,152(sp)
    8000190c:	09013403          	ld	s0,144(sp)
    80001910:	08813483          	ld	s1,136(sp)
    80001914:	08013903          	ld	s2,128(sp)
    80001918:	07813983          	ld	s3,120(sp)
    8000191c:	07013a03          	ld	s4,112(sp)
    80001920:	06813a83          	ld	s5,104(sp)
    80001924:	06013b03          	ld	s6,96(sp)
    80001928:	05813b83          	ld	s7,88(sp)
    8000192c:	05013c03          	ld	s8,80(sp)
    80001930:	0a010113          	addi	sp,sp,160
    80001934:	00008067          	ret
    80001938:	020b9b93          	slli	s7,s7,0x20
    8000193c:	020bdb93          	srli	s7,s7,0x20
    80001940:	01513423          	sd	s5,8(sp)
    80001944:	017a8bb3          	add	s7,s5,s7
    80001948:	ef7aece3          	bltu	s5,s7,80001840 <core_bench_state+0xc8>
    8000194c:	f91ff06f          	j	800018dc <core_bench_state+0x164>
    80001950:	f20716e3          	bnez	a4,8000187c <core_bench_state+0x104>
    80001954:	f89ff06f          	j	800018dc <core_bench_state+0x164>

0000000080001958 <iterate>:
    80001958:	fe010113          	addi	sp,sp,-32
    8000195c:	01213023          	sd	s2,0(sp)
    80001960:	02c52903          	lw	s2,44(a0)
    80001964:	00113c23          	sd	ra,24(sp)
    80001968:	00813823          	sd	s0,16(sp)
    8000196c:	00913423          	sd	s1,8(sp)
    80001970:	06053023          	sd	zero,96(a0)
    80001974:	04090663          	beqz	s2,800019c0 <iterate+0x68>
    80001978:	00050413          	mv	s0,a0
    8000197c:	00000493          	li	s1,0
    80001980:	00100593          	li	a1,1
    80001984:	00040513          	mv	a0,s0
    80001988:	a01fe0ef          	jal	ra,80000388 <core_bench_list>
    8000198c:	06045583          	lhu	a1,96(s0)
    80001990:	e89fe0ef          	jal	ra,80000818 <crcu16>
    80001994:	fff00593          	li	a1,-1
    80001998:	06a41023          	sh	a0,96(s0)
    8000199c:	00040513          	mv	a0,s0
    800019a0:	9e9fe0ef          	jal	ra,80000388 <core_bench_list>
    800019a4:	06045583          	lhu	a1,96(s0)
    800019a8:	e71fe0ef          	jal	ra,80000818 <crcu16>
    800019ac:	06a41023          	sh	a0,96(s0)
    800019b0:	00049463          	bnez	s1,800019b8 <iterate+0x60>
    800019b4:	06a41123          	sh	a0,98(s0)
    800019b8:	0014849b          	addiw	s1,s1,1
    800019bc:	fc9912e3          	bne	s2,s1,80001980 <iterate+0x28>
    800019c0:	01813083          	ld	ra,24(sp)
    800019c4:	01013403          	ld	s0,16(sp)
    800019c8:	00813483          	ld	s1,8(sp)
    800019cc:	00013903          	ld	s2,0(sp)
    800019d0:	00000513          	li	a0,0
    800019d4:	02010113          	addi	sp,sp,32
    800019d8:	00008067          	ret

00000000800019dc <main>:
    800019dc:	f2010113          	addi	sp,sp,-224
    800019e0:	0c113c23          	sd	ra,216(sp)
    800019e4:	0c813823          	sd	s0,208(sp)
    800019e8:	0c913423          	sd	s1,200(sp)
    800019ec:	00058413          	mv	s0,a1
    800019f0:	0d213023          	sd	s2,192(sp)
    800019f4:	0b313c23          	sd	s3,184(sp)
    800019f8:	0b413823          	sd	s4,176(sp)
    800019fc:	0b513423          	sd	s5,168(sp)
    80001a00:	0b613023          	sd	s6,160(sp)
    80001a04:	09713c23          	sd	s7,152(sp)
    80001a08:	09813823          	sd	s8,144(sp)
    80001a0c:	09913423          	sd	s9,136(sp)
    80001a10:	09a13023          	sd	s10,128(sp)
    80001a14:	00a12623          	sw	a0,12(sp)
    80001a18:	21d000ef          	jal	ra,80002434 <ioe_init>
    80001a1c:	3e800593          	li	a1,1000
    80001a20:	00002517          	auipc	a0,0x2
    80001a24:	26850513          	addi	a0,a0,616 # 80003c88 <scipat+0x20>
    80001a28:	5e1010ef          	jal	ra,80003808 <printf_>
    80001a2c:	00040613          	mv	a2,s0
    80001a30:	00c10593          	addi	a1,sp,12
    80001a34:	07a10513          	addi	a0,sp,122
    80001a38:	7f4000ef          	jal	ra,8000222c <portable_init>
    80001a3c:	00100513          	li	a0,1
    80001a40:	d71fe0ef          	jal	ra,800007b0 <get_seed_32>
    80001a44:	00050793          	mv	a5,a0
    80001a48:	00200513          	li	a0,2
    80001a4c:	00f11823          	sh	a5,16(sp)
    80001a50:	d61fe0ef          	jal	ra,800007b0 <get_seed_32>
    80001a54:	00050793          	mv	a5,a0
    80001a58:	00300513          	li	a0,3
    80001a5c:	00f11923          	sh	a5,18(sp)
    80001a60:	d51fe0ef          	jal	ra,800007b0 <get_seed_32>
    80001a64:	00050793          	mv	a5,a0
    80001a68:	00400513          	li	a0,4
    80001a6c:	00f11a23          	sh	a5,20(sp)
    80001a70:	d41fe0ef          	jal	ra,800007b0 <get_seed_32>
    80001a74:	00050793          	mv	a5,a0
    80001a78:	00500513          	li	a0,5
    80001a7c:	02f12e23          	sw	a5,60(sp)
    80001a80:	d31fe0ef          	jal	ra,800007b0 <get_seed_32>
    80001a84:	0005051b          	sext.w	a0,a0
    80001a88:	5e050263          	beqz	a0,8000206c <main+0x690>
    80001a8c:	04a12023          	sw	a0,64(sp)
    80001a90:	01013783          	ld	a5,16(sp)
    80001a94:	01079713          	slli	a4,a5,0x10
    80001a98:	00071a63          	bnez	a4,80001aac <main+0xd0>
    80001a9c:	06600793          	li	a5,102
    80001aa0:	00012823          	sw	zero,16(sp)
    80001aa4:	00f11a23          	sh	a5,20(sp)
    80001aa8:	01013783          	ld	a5,16(sp)
    80001aac:	01079793          	slli	a5,a5,0x10
    80001ab0:	0107d793          	srli	a5,a5,0x10
    80001ab4:	00100713          	li	a4,1
    80001ab8:	00e79c63          	bne	a5,a4,80001ad0 <main+0xf4>
    80001abc:	341537b7          	lui	a5,0x34153
    80001ac0:	4157879b          	addiw	a5,a5,1045
    80001ac4:	00f12823          	sw	a5,16(sp)
    80001ac8:	06600793          	li	a5,102
    80001acc:	00f11a23          	sh	a5,20(sp)
    80001ad0:	04012403          	lw	s0,64(sp)
    80001ad4:	00003a17          	auipc	s4,0x3
    80001ad8:	cfca0a13          	addi	s4,s4,-772 # 800047d0 <static_memblk>
    80001adc:	01413c23          	sd	s4,24(sp)
    80001ae0:	00147a93          	andi	s5,s0,1
    80001ae4:	06011c23          	sh	zero,120(sp)
    80001ae8:	00247493          	andi	s1,s0,2
    80001aec:	000a8593          	mv	a1,s5
    80001af0:	00048863          	beqz	s1,80001b00 <main+0x124>
    80001af4:	001a859b          	addiw	a1,s5,1
    80001af8:	03059593          	slli	a1,a1,0x30
    80001afc:	0305d593          	srli	a1,a1,0x30
    80001b00:	00447793          	andi	a5,s0,4
    80001b04:	00078863          	beqz	a5,80001b14 <main+0x138>
    80001b08:	0015859b          	addiw	a1,a1,1
    80001b0c:	03059593          	slli	a1,a1,0x30
    80001b10:	0305d593          	srli	a1,a1,0x30
    80001b14:	7d000513          	li	a0,2000
    80001b18:	7d8000ef          	jal	ra,800022f0 <__divdi3>
    80001b1c:	0005099b          	sext.w	s3,a0
    80001b20:	03312c23          	sw	s3,56(sp)
    80001b24:	00000913          	li	s2,0
    80001b28:	00000b13          	li	s6,0
    80001b2c:	00100c93          	li	s9,1
    80001b30:	00300c13          	li	s8,3
    80001b34:	012c97bb          	sllw	a5,s9,s2
    80001b38:	00f477b3          	and	a5,s0,a5
    80001b3c:	0007879b          	sext.w	a5,a5
    80001b40:	4e079a63          	bnez	a5,80002034 <main+0x658>
    80001b44:	00190913          	addi	s2,s2,1
    80001b48:	ff8916e3          	bne	s2,s8,80001b34 <main+0x158>
    80001b4c:	260a9663          	bnez	s5,80001db8 <main+0x3dc>
    80001b50:	28049463          	bnez	s1,80001dd8 <main+0x3fc>
    80001b54:	00447413          	andi	s0,s0,4
    80001b58:	00040a63          	beqz	s0,80001b6c <main+0x190>
    80001b5c:	03013603          	ld	a2,48(sp)
    80001b60:	01011583          	lh	a1,16(sp)
    80001b64:	03812503          	lw	a0,56(sp)
    80001b68:	f58ff0ef          	jal	ra,800012c0 <core_init_state>
    80001b6c:	03c12783          	lw	a5,60(sp)
    80001b70:	06079463          	bnez	a5,80001bd8 <main+0x1fc>
    80001b74:	00100793          	li	a5,1
    80001b78:	02f12e23          	sw	a5,60(sp)
    80001b7c:	03c12703          	lw	a4,60(sp)
    80001b80:	0027179b          	slliw	a5,a4,0x2
    80001b84:	00e787bb          	addw	a5,a5,a4
    80001b88:	0017979b          	slliw	a5,a5,0x1
    80001b8c:	02f12e23          	sw	a5,60(sp)
    80001b90:	608000ef          	jal	ra,80002198 <start_time>
    80001b94:	01010513          	addi	a0,sp,16
    80001b98:	dc1ff0ef          	jal	ra,80001958 <iterate>
    80001b9c:	638000ef          	jal	ra,800021d4 <stop_time>
    80001ba0:	670000ef          	jal	ra,80002210 <get_time>
    80001ba4:	0005051b          	sext.w	a0,a0
    80001ba8:	680000ef          	jal	ra,80002228 <time_in_secs>
    80001bac:	0005051b          	sext.w	a0,a0
    80001bb0:	fc0506e3          	beqz	a0,80001b7c <main+0x1a0>
    80001bb4:	02051593          	slli	a1,a0,0x20
    80001bb8:	0205d593          	srli	a1,a1,0x20
    80001bbc:	00a00513          	li	a0,10
    80001bc0:	738000ef          	jal	ra,800022f8 <__udivdi3>
    80001bc4:	00050593          	mv	a1,a0
    80001bc8:	03c12503          	lw	a0,60(sp)
    80001bcc:	0015859b          	addiw	a1,a1,1
    80001bd0:	6bc000ef          	jal	ra,8000228c <__muldi3>
    80001bd4:	02a12e23          	sw	a0,60(sp)
    80001bd8:	5c0000ef          	jal	ra,80002198 <start_time>
    80001bdc:	01010513          	addi	a0,sp,16
    80001be0:	d79ff0ef          	jal	ra,80001958 <iterate>
    80001be4:	5f0000ef          	jal	ra,800021d4 <stop_time>
    80001be8:	628000ef          	jal	ra,80002210 <get_time>
    80001bec:	00050993          	mv	s3,a0
    80001bf0:	01011503          	lh	a0,16(sp)
    80001bf4:	00000593          	li	a1,0
    80001bf8:	0009899b          	sext.w	s3,s3
    80001bfc:	cd5fe0ef          	jal	ra,800008d0 <crc16>
    80001c00:	00050593          	mv	a1,a0
    80001c04:	01211503          	lh	a0,18(sp)
    80001c08:	cc9fe0ef          	jal	ra,800008d0 <crc16>
    80001c0c:	00050593          	mv	a1,a0
    80001c10:	01411503          	lh	a0,20(sp)
    80001c14:	cbdfe0ef          	jal	ra,800008d0 <crc16>
    80001c18:	00050593          	mv	a1,a0
    80001c1c:	03811503          	lh	a0,56(sp)
    80001c20:	cb1fe0ef          	jal	ra,800008d0 <crc16>
    80001c24:	000087b7          	lui	a5,0x8
    80001c28:	00050a1b          	sext.w	s4,a0
    80001c2c:	b0578793          	addi	a5,a5,-1275 # 7b05 <_entry_offset+0x7b05>
    80001c30:	54fa0663          	beq	s4,a5,8000217c <main+0x7a0>
    80001c34:	3d47ea63          	bltu	a5,s4,80002008 <main+0x62c>
    80001c38:	000027b7          	lui	a5,0x2
    80001c3c:	8f278793          	addi	a5,a5,-1806 # 18f2 <_entry_offset+0x18f2>
    80001c40:	50fa0a63          	beq	s4,a5,80002154 <main+0x778>
    80001c44:	000057b7          	lui	a5,0x5
    80001c48:	eaf78793          	addi	a5,a5,-337 # 4eaf <_entry_offset+0x4eaf>
    80001c4c:	1afa1c63          	bne	s4,a5,80001e04 <main+0x428>
    80001c50:	00002517          	auipc	a0,0x2
    80001c54:	0c050513          	addi	a0,a0,192 # 80003d10 <scipat+0xa8>
    80001c58:	3b1010ef          	jal	ra,80003808 <printf_>
    80001c5c:	00200a93          	li	s5,2
    80001c60:	00002917          	auipc	s2,0x2
    80001c64:	73890913          	addi	s2,s2,1848 # 80004398 <default_num_contexts>
    80001c68:	00092783          	lw	a5,0(s2)
    80001c6c:	00000c93          	li	s9,0
    80001c70:	00000c13          	li	s8,0
    80001c74:	00000d13          	li	s10,0
    80001c78:	50078c63          	beqz	a5,80002190 <main+0x7b4>
    80001c7c:	001a9793          	slli	a5,s5,0x1
    80001c80:	00002b97          	auipc	s7,0x2
    80001c84:	3f8b8b93          	addi	s7,s7,1016 # 80004078 <list_known_crc>
    80001c88:	00002b17          	auipc	s6,0x2
    80001c8c:	400b0b13          	addi	s6,s6,1024 # 80004088 <matrix_known_crc>
    80001c90:	00002a97          	auipc	s5,0x2
    80001c94:	408a8a93          	addi	s5,s5,1032 # 80004098 <state_known_crc>
    80001c98:	00fb8bb3          	add	s7,s7,a5
    80001c9c:	00fb0b33          	add	s6,s6,a5
    80001ca0:	00fa8ab3          	add	s5,s5,a5
    80001ca4:	0600006f          	j	80001d04 <main+0x328>
    80001ca8:	ff645603          	lhu	a2,-10(s0)
    80001cac:	000ad683          	lhu	a3,0(s5)
    80001cb0:	10d60063          	beq	a2,a3,80001db0 <main+0x3d4>
    80001cb4:	000d0593          	mv	a1,s10
    80001cb8:	00002517          	auipc	a0,0x2
    80001cbc:	15850513          	addi	a0,a0,344 # 80003e10 <scipat+0x1a8>
    80001cc0:	349010ef          	jal	ra,80003808 <printf_>
    80001cc4:	ff845783          	lhu	a5,-8(s0)
    80001cc8:	0017879b          	addiw	a5,a5,1
    80001ccc:	03079793          	slli	a5,a5,0x30
    80001cd0:	0307d793          	srli	a5,a5,0x30
    80001cd4:	fef41c23          	sh	a5,-8(s0)
    80001cd8:	001c0c1b          	addiw	s8,s8,1
    80001cdc:	00092703          	lw	a4,0(s2)
    80001ce0:	00fc87bb          	addw	a5,s9,a5
    80001ce4:	030c1c13          	slli	s8,s8,0x30
    80001ce8:	030c5c13          	srli	s8,s8,0x30
    80001cec:	03079493          	slli	s1,a5,0x30
    80001cf0:	01079c9b          	slliw	s9,a5,0x10
    80001cf4:	0304d493          	srli	s1,s1,0x30
    80001cf8:	410cdc9b          	sraiw	s9,s9,0x10
    80001cfc:	000c0d1b          	sext.w	s10,s8
    80001d00:	10ec7a63          	bgeu	s8,a4,80001e14 <main+0x438>
    80001d04:	003d1413          	slli	s0,s10,0x3
    80001d08:	41a404b3          	sub	s1,s0,s10
    80001d0c:	08010793          	addi	a5,sp,128
    80001d10:	00449493          	slli	s1,s1,0x4
    80001d14:	009784b3          	add	s1,a5,s1
    80001d18:	fc04a783          	lw	a5,-64(s1)
    80001d1c:	fe049c23          	sh	zero,-8(s1)
    80001d20:	0017f793          	andi	a5,a5,1
    80001d24:	02078663          	beqz	a5,80001d50 <main+0x374>
    80001d28:	ff24d603          	lhu	a2,-14(s1)
    80001d2c:	000bd683          	lhu	a3,0(s7)
    80001d30:	02d60063          	beq	a2,a3,80001d50 <main+0x374>
    80001d34:	000d0593          	mv	a1,s10
    80001d38:	00002517          	auipc	a0,0x2
    80001d3c:	07050513          	addi	a0,a0,112 # 80003da8 <scipat+0x140>
    80001d40:	2c9010ef          	jal	ra,80003808 <printf_>
    80001d44:	ff84d783          	lhu	a5,-8(s1)
    80001d48:	0017879b          	addiw	a5,a5,1
    80001d4c:	fef49c23          	sh	a5,-8(s1)
    80001d50:	41a404b3          	sub	s1,s0,s10
    80001d54:	08010793          	addi	a5,sp,128
    80001d58:	00449493          	slli	s1,s1,0x4
    80001d5c:	009784b3          	add	s1,a5,s1
    80001d60:	fc04a703          	lw	a4,-64(s1)
    80001d64:	00277793          	andi	a5,a4,2
    80001d68:	02078863          	beqz	a5,80001d98 <main+0x3bc>
    80001d6c:	ff44d603          	lhu	a2,-12(s1)
    80001d70:	000b5683          	lhu	a3,0(s6)
    80001d74:	02d60263          	beq	a2,a3,80001d98 <main+0x3bc>
    80001d78:	000d0593          	mv	a1,s10
    80001d7c:	00002517          	auipc	a0,0x2
    80001d80:	05c50513          	addi	a0,a0,92 # 80003dd8 <scipat+0x170>
    80001d84:	285010ef          	jal	ra,80003808 <printf_>
    80001d88:	ff84d783          	lhu	a5,-8(s1)
    80001d8c:	fc04a703          	lw	a4,-64(s1)
    80001d90:	0017879b          	addiw	a5,a5,1
    80001d94:	fef49c23          	sh	a5,-8(s1)
    80001d98:	41a40433          	sub	s0,s0,s10
    80001d9c:	00441413          	slli	s0,s0,0x4
    80001da0:	08010793          	addi	a5,sp,128
    80001da4:	00477713          	andi	a4,a4,4
    80001da8:	00878433          	add	s0,a5,s0
    80001dac:	ee071ee3          	bnez	a4,80001ca8 <main+0x2cc>
    80001db0:	ff845783          	lhu	a5,-8(s0)
    80001db4:	f25ff06f          	j	80001cd8 <main+0x2fc>
    80001db8:	01011603          	lh	a2,16(sp)
    80001dbc:	02013583          	ld	a1,32(sp)
    80001dc0:	00098513          	mv	a0,s3
    80001dc4:	82dfe0ef          	jal	ra,800005f0 <core_list_init>
    80001dc8:	04012403          	lw	s0,64(sp)
    80001dcc:	04a13423          	sd	a0,72(sp)
    80001dd0:	00247493          	andi	s1,s0,2
    80001dd4:	d80480e3          	beqz	s1,80001b54 <main+0x178>
    80001dd8:	01211603          	lh	a2,18(sp)
    80001ddc:	01011783          	lh	a5,16(sp)
    80001de0:	02813583          	ld	a1,40(sp)
    80001de4:	03812503          	lw	a0,56(sp)
    80001de8:	0106161b          	slliw	a2,a2,0x10
    80001dec:	00f66633          	or	a2,a2,a5
    80001df0:	05010693          	addi	a3,sp,80
    80001df4:	0006061b          	sext.w	a2,a2
    80001df8:	aedfe0ef          	jal	ra,800008e4 <core_init_matrix>
    80001dfc:	04012403          	lw	s0,64(sp)
    80001e00:	d55ff06f          	j	80001b54 <main+0x178>
    80001e04:	00010437          	lui	s0,0x10
    80001e08:	fff40493          	addi	s1,s0,-1 # ffff <_entry_offset+0xffff>
    80001e0c:	00002917          	auipc	s2,0x2
    80001e10:	58c90913          	addi	s2,s2,1420 # 80004398 <default_num_contexts>
    80001e14:	ac9fe0ef          	jal	ra,800008dc <check_data_types>
    80001e18:	03812583          	lw	a1,56(sp)
    80001e1c:	009504bb          	addw	s1,a0,s1
    80001e20:	00002517          	auipc	a0,0x2
    80001e24:	02050513          	addi	a0,a0,32 # 80003e40 <scipat+0x1d8>
    80001e28:	1e1010ef          	jal	ra,80003808 <printf_>
    80001e2c:	00098513          	mv	a0,s3
    80001e30:	3f8000ef          	jal	ra,80002228 <time_in_secs>
    80001e34:	0005059b          	sext.w	a1,a0
    80001e38:	00002517          	auipc	a0,0x2
    80001e3c:	02050513          	addi	a0,a0,32 # 80003e58 <scipat+0x1f0>
    80001e40:	1c9010ef          	jal	ra,80003808 <printf_>
    80001e44:	00092583          	lw	a1,0(s2)
    80001e48:	03c12503          	lw	a0,60(sp)
    80001e4c:	0104949b          	slliw	s1,s1,0x10
    80001e50:	4104d49b          	sraiw	s1,s1,0x10
    80001e54:	438000ef          	jal	ra,8000228c <__muldi3>
    80001e58:	0005059b          	sext.w	a1,a0
    80001e5c:	00002517          	auipc	a0,0x2
    80001e60:	01450513          	addi	a0,a0,20 # 80003e70 <scipat+0x208>
    80001e64:	1a5010ef          	jal	ra,80003808 <printf_>
    80001e68:	00002597          	auipc	a1,0x2
    80001e6c:	02058593          	addi	a1,a1,32 # 80003e88 <scipat+0x220>
    80001e70:	00002517          	auipc	a0,0x2
    80001e74:	02850513          	addi	a0,a0,40 # 80003e98 <scipat+0x230>
    80001e78:	191010ef          	jal	ra,80003808 <printf_>
    80001e7c:	000a0593          	mv	a1,s4
    80001e80:	00002517          	auipc	a0,0x2
    80001e84:	03050513          	addi	a0,a0,48 # 80003eb0 <scipat+0x248>
    80001e88:	181010ef          	jal	ra,80003808 <printf_>
    80001e8c:	04012783          	lw	a5,64(sp)
    80001e90:	0017f713          	andi	a4,a5,1
    80001e94:	04070c63          	beqz	a4,80001eec <main+0x510>
    80001e98:	00092703          	lw	a4,0(s2)
    80001e9c:	04070863          	beqz	a4,80001eec <main+0x510>
    80001ea0:	00000413          	li	s0,0
    80001ea4:	00000593          	li	a1,0
    80001ea8:	00002a17          	auipc	s4,0x2
    80001eac:	028a0a13          	addi	s4,s4,40 # 80003ed0 <scipat+0x268>
    80001eb0:	00359793          	slli	a5,a1,0x3
    80001eb4:	40b787b3          	sub	a5,a5,a1
    80001eb8:	08010713          	addi	a4,sp,128
    80001ebc:	00479793          	slli	a5,a5,0x4
    80001ec0:	00f707b3          	add	a5,a4,a5
    80001ec4:	ff27d603          	lhu	a2,-14(a5)
    80001ec8:	000a0513          	mv	a0,s4
    80001ecc:	0014041b          	addiw	s0,s0,1
    80001ed0:	139010ef          	jal	ra,80003808 <printf_>
    80001ed4:	00092783          	lw	a5,0(s2)
    80001ed8:	03041413          	slli	s0,s0,0x30
    80001edc:	03045413          	srli	s0,s0,0x30
    80001ee0:	0004059b          	sext.w	a1,s0
    80001ee4:	fcf466e3          	bltu	s0,a5,80001eb0 <main+0x4d4>
    80001ee8:	04012783          	lw	a5,64(sp)
    80001eec:	0027f713          	andi	a4,a5,2
    80001ef0:	04070c63          	beqz	a4,80001f48 <main+0x56c>
    80001ef4:	00092703          	lw	a4,0(s2)
    80001ef8:	24070863          	beqz	a4,80002148 <main+0x76c>
    80001efc:	00000413          	li	s0,0
    80001f00:	00000593          	li	a1,0
    80001f04:	00002a17          	auipc	s4,0x2
    80001f08:	feca0a13          	addi	s4,s4,-20 # 80003ef0 <scipat+0x288>
    80001f0c:	00359793          	slli	a5,a1,0x3
    80001f10:	40b787b3          	sub	a5,a5,a1
    80001f14:	08010713          	addi	a4,sp,128
    80001f18:	00479793          	slli	a5,a5,0x4
    80001f1c:	00f707b3          	add	a5,a4,a5
    80001f20:	ff47d603          	lhu	a2,-12(a5)
    80001f24:	000a0513          	mv	a0,s4
    80001f28:	0014041b          	addiw	s0,s0,1
    80001f2c:	0dd010ef          	jal	ra,80003808 <printf_>
    80001f30:	00092783          	lw	a5,0(s2)
    80001f34:	03041413          	slli	s0,s0,0x30
    80001f38:	03045413          	srli	s0,s0,0x30
    80001f3c:	0004059b          	sext.w	a1,s0
    80001f40:	fcf466e3          	bltu	s0,a5,80001f0c <main+0x530>
    80001f44:	04012783          	lw	a5,64(sp)
    80001f48:	0047f793          	andi	a5,a5,4
    80001f4c:	12079663          	bnez	a5,80002078 <main+0x69c>
    80001f50:	00092783          	lw	a5,0(s2)
    80001f54:	00000413          	li	s0,0
    80001f58:	00000593          	li	a1,0
    80001f5c:	00002a17          	auipc	s4,0x2
    80001f60:	feca0a13          	addi	s4,s4,-20 # 80003f48 <scipat+0x2e0>
    80001f64:	02078e63          	beqz	a5,80001fa0 <main+0x5c4>
    80001f68:	00359793          	slli	a5,a1,0x3
    80001f6c:	40b787b3          	sub	a5,a5,a1
    80001f70:	08010713          	addi	a4,sp,128
    80001f74:	00479793          	slli	a5,a5,0x4
    80001f78:	00f707b3          	add	a5,a4,a5
    80001f7c:	ff07d603          	lhu	a2,-16(a5)
    80001f80:	000a0513          	mv	a0,s4
    80001f84:	0014041b          	addiw	s0,s0,1
    80001f88:	081010ef          	jal	ra,80003808 <printf_>
    80001f8c:	00092783          	lw	a5,0(s2)
    80001f90:	03041413          	slli	s0,s0,0x30
    80001f94:	03045413          	srli	s0,s0,0x30
    80001f98:	0004059b          	sext.w	a1,s0
    80001f9c:	fcf466e3          	bltu	s0,a5,80001f68 <main+0x58c>
    80001fa0:	00098593          	mv	a1,s3
    80001fa4:	00002517          	auipc	a0,0x2
    80001fa8:	f6c50513          	addi	a0,a0,-148 # 80003f10 <scipat+0x2a8>
    80001fac:	05d010ef          	jal	ra,80003808 <printf_>
    80001fb0:	12048663          	beqz	s1,800020dc <main+0x700>
    80001fb4:	10905c63          	blez	s1,800020cc <main+0x6f0>
    80001fb8:	00002517          	auipc	a0,0x2
    80001fbc:	04050513          	addi	a0,a0,64 # 80003ff8 <scipat+0x390>
    80001fc0:	049010ef          	jal	ra,80003808 <printf_>
    80001fc4:	07a10513          	addi	a0,sp,122
    80001fc8:	270000ef          	jal	ra,80002238 <portable_fini>
    80001fcc:	0d813083          	ld	ra,216(sp)
    80001fd0:	0d013403          	ld	s0,208(sp)
    80001fd4:	0c813483          	ld	s1,200(sp)
    80001fd8:	0c013903          	ld	s2,192(sp)
    80001fdc:	0b813983          	ld	s3,184(sp)
    80001fe0:	0b013a03          	ld	s4,176(sp)
    80001fe4:	0a813a83          	ld	s5,168(sp)
    80001fe8:	0a013b03          	ld	s6,160(sp)
    80001fec:	09813b83          	ld	s7,152(sp)
    80001ff0:	09013c03          	ld	s8,144(sp)
    80001ff4:	08813c83          	ld	s9,136(sp)
    80001ff8:	08013d03          	ld	s10,128(sp)
    80001ffc:	00000513          	li	a0,0
    80002000:	0e010113          	addi	sp,sp,224
    80002004:	00008067          	ret
    80002008:	000097b7          	lui	a5,0x9
    8000200c:	a0278793          	addi	a5,a5,-1534 # 8a02 <_entry_offset+0x8a02>
    80002010:	14fa0c63          	beq	s4,a5,80002168 <main+0x78c>
    80002014:	0000f7b7          	lui	a5,0xf
    80002018:	9f578793          	addi	a5,a5,-1547 # e9f5 <_entry_offset+0xe9f5>
    8000201c:	defa14e3          	bne	s4,a5,80001e04 <main+0x428>
    80002020:	00002517          	auipc	a0,0x2
    80002024:	d2850513          	addi	a0,a0,-728 # 80003d48 <scipat+0xe0>
    80002028:	7e0010ef          	jal	ra,80003808 <printf_>
    8000202c:	00300a93          	li	s5,3
    80002030:	c31ff06f          	j	80001c60 <main+0x284>
    80002034:	01010793          	addi	a5,sp,16
    80002038:	000b0513          	mv	a0,s6
    8000203c:	00391b93          	slli	s7,s2,0x3
    80002040:	00098593          	mv	a1,s3
    80002044:	01778bb3          	add	s7,a5,s7
    80002048:	244000ef          	jal	ra,8000228c <__muldi3>
    8000204c:	02051793          	slli	a5,a0,0x20
    80002050:	0207d793          	srli	a5,a5,0x20
    80002054:	001b0b1b          	addiw	s6,s6,1
    80002058:	00fa07b3          	add	a5,s4,a5
    8000205c:	030b1b13          	slli	s6,s6,0x30
    80002060:	00fbb823          	sd	a5,16(s7)
    80002064:	030b5b13          	srli	s6,s6,0x30
    80002068:	addff06f          	j	80001b44 <main+0x168>
    8000206c:	00700793          	li	a5,7
    80002070:	04f12023          	sw	a5,64(sp)
    80002074:	a1dff06f          	j	80001a90 <main+0xb4>
    80002078:	00092783          	lw	a5,0(s2)
    8000207c:	00000413          	li	s0,0
    80002080:	00000593          	li	a1,0
    80002084:	00002a17          	auipc	s4,0x2
    80002088:	ea4a0a13          	addi	s4,s4,-348 # 80003f28 <scipat+0x2c0>
    8000208c:	f0078ae3          	beqz	a5,80001fa0 <main+0x5c4>
    80002090:	00359793          	slli	a5,a1,0x3
    80002094:	40b787b3          	sub	a5,a5,a1
    80002098:	08010713          	addi	a4,sp,128
    8000209c:	00479793          	slli	a5,a5,0x4
    800020a0:	00f707b3          	add	a5,a4,a5
    800020a4:	ff67d603          	lhu	a2,-10(a5)
    800020a8:	000a0513          	mv	a0,s4
    800020ac:	0014041b          	addiw	s0,s0,1
    800020b0:	758010ef          	jal	ra,80003808 <printf_>
    800020b4:	00092783          	lw	a5,0(s2)
    800020b8:	03041413          	slli	s0,s0,0x30
    800020bc:	03045413          	srli	s0,s0,0x30
    800020c0:	0004059b          	sext.w	a1,s0
    800020c4:	fcf466e3          	bltu	s0,a5,80002090 <main+0x6b4>
    800020c8:	e89ff06f          	j	80001f50 <main+0x574>
    800020cc:	00002517          	auipc	a0,0x2
    800020d0:	f4450513          	addi	a0,a0,-188 # 80004010 <scipat+0x3a8>
    800020d4:	734010ef          	jal	ra,80003808 <printf_>
    800020d8:	eedff06f          	j	80001fc4 <main+0x5e8>
    800020dc:	00002517          	auipc	a0,0x2
    800020e0:	e8c50513          	addi	a0,a0,-372 # 80003f68 <scipat+0x300>
    800020e4:	724010ef          	jal	ra,80003808 <printf_>
    800020e8:	00098513          	mv	a0,s3
    800020ec:	13c000ef          	jal	ra,80002228 <time_in_secs>
    800020f0:	02051593          	slli	a1,a0,0x20
    800020f4:	002c9537          	lui	a0,0x2c9
    800020f8:	0205d593          	srli	a1,a1,0x20
    800020fc:	3b850513          	addi	a0,a0,952 # 2c93b8 <_entry_offset+0x2c93b8>
    80002100:	1f8000ef          	jal	ra,800022f8 <__udivdi3>
    80002104:	0055179b          	slliw	a5,a0,0x5
    80002108:	40a787bb          	subw	a5,a5,a0
    8000210c:	0027979b          	slliw	a5,a5,0x2
    80002110:	00a7853b          	addw	a0,a5,a0
    80002114:	0035151b          	slliw	a0,a0,0x3
    80002118:	02051513          	slli	a0,a0,0x20
    8000211c:	3e800593          	li	a1,1000
    80002120:	02055513          	srli	a0,a0,0x20
    80002124:	1d4000ef          	jal	ra,800022f8 <__udivdi3>
    80002128:	0005059b          	sext.w	a1,a0
    8000212c:	00002517          	auipc	a0,0x2
    80002130:	e7450513          	addi	a0,a0,-396 # 80003fa0 <scipat+0x338>
    80002134:	6d4010ef          	jal	ra,80003808 <printf_>
    80002138:	00002517          	auipc	a0,0x2
    8000213c:	e8850513          	addi	a0,a0,-376 # 80003fc0 <scipat+0x358>
    80002140:	6c8010ef          	jal	ra,80003808 <printf_>
    80002144:	e81ff06f          	j	80001fc4 <main+0x5e8>
    80002148:	0047f793          	andi	a5,a5,4
    8000214c:	e4079ae3          	bnez	a5,80001fa0 <main+0x5c4>
    80002150:	e01ff06f          	j	80001f50 <main+0x574>
    80002154:	00002517          	auipc	a0,0x2
    80002158:	c2450513          	addi	a0,a0,-988 # 80003d78 <scipat+0x110>
    8000215c:	6ac010ef          	jal	ra,80003808 <printf_>
    80002160:	00400a93          	li	s5,4
    80002164:	afdff06f          	j	80001c60 <main+0x284>
    80002168:	00002517          	auipc	a0,0x2
    8000216c:	b4850513          	addi	a0,a0,-1208 # 80003cb0 <scipat+0x48>
    80002170:	698010ef          	jal	ra,80003808 <printf_>
    80002174:	00000a93          	li	s5,0
    80002178:	ae9ff06f          	j	80001c60 <main+0x284>
    8000217c:	00002517          	auipc	a0,0x2
    80002180:	b6450513          	addi	a0,a0,-1180 # 80003ce0 <scipat+0x78>
    80002184:	684010ef          	jal	ra,80003808 <printf_>
    80002188:	00100a93          	li	s5,1
    8000218c:	ad5ff06f          	j	80001c60 <main+0x284>
    80002190:	00000493          	li	s1,0
    80002194:	c81ff06f          	j	80001e14 <main+0x438>

0000000080002198 <start_time>:
    80002198:	fe010113          	addi	sp,sp,-32
    8000219c:	00810593          	addi	a1,sp,8
    800021a0:	00600513          	li	a0,6
    800021a4:	00113c23          	sd	ra,24(sp)
    800021a8:	2e0000ef          	jal	ra,80002488 <ioe_read>
    800021ac:	00813503          	ld	a0,8(sp)
    800021b0:	3e800593          	li	a1,1000
    800021b4:	144000ef          	jal	ra,800022f8 <__udivdi3>
    800021b8:	01813083          	ld	ra,24(sp)
    800021bc:	02051513          	slli	a0,a0,0x20
    800021c0:	02055513          	srli	a0,a0,0x20
    800021c4:	00003797          	auipc	a5,0x3
    800021c8:	dca7be23          	sd	a0,-548(a5) # 80004fa0 <start_time_val>
    800021cc:	02010113          	addi	sp,sp,32
    800021d0:	00008067          	ret

00000000800021d4 <stop_time>:
    800021d4:	fe010113          	addi	sp,sp,-32
    800021d8:	00810593          	addi	a1,sp,8
    800021dc:	00600513          	li	a0,6
    800021e0:	00113c23          	sd	ra,24(sp)
    800021e4:	2a4000ef          	jal	ra,80002488 <ioe_read>
    800021e8:	00813503          	ld	a0,8(sp)
    800021ec:	3e800593          	li	a1,1000
    800021f0:	108000ef          	jal	ra,800022f8 <__udivdi3>
    800021f4:	01813083          	ld	ra,24(sp)
    800021f8:	02051513          	slli	a0,a0,0x20
    800021fc:	02055513          	srli	a0,a0,0x20
    80002200:	00003797          	auipc	a5,0x3
    80002204:	daa7b423          	sd	a0,-600(a5) # 80004fa8 <stop_time_val>
    80002208:	02010113          	addi	sp,sp,32
    8000220c:	00008067          	ret

0000000080002210 <get_time>:
    80002210:	00003517          	auipc	a0,0x3
    80002214:	d9853503          	ld	a0,-616(a0) # 80004fa8 <stop_time_val>
    80002218:	00003797          	auipc	a5,0x3
    8000221c:	d887b783          	ld	a5,-632(a5) # 80004fa0 <start_time_val>
    80002220:	40f5053b          	subw	a0,a0,a5
    80002224:	00008067          	ret

0000000080002228 <time_in_secs>:
    80002228:	00008067          	ret

000000008000222c <portable_init>:
    8000222c:	00100793          	li	a5,1
    80002230:	00f50023          	sb	a5,0(a0)
    80002234:	00008067          	ret

0000000080002238 <portable_fini>:
    80002238:	00050023          	sb	zero,0(a0)
    8000223c:	00008067          	ret

0000000080002240 <putch>:
    80002240:	00008067          	ret

0000000080002244 <halt>:
    80002244:	00050513          	mv	a0,a0
    80002248:	0000006b          	0x6b
    8000224c:	0000006f          	j	8000224c <halt+0x8>

0000000080002250 <_assert>:
    80002250:	00051a63          	bnez	a0,80002264 <_assert+0x14>
    80002254:	00100793          	li	a5,1
    80002258:	00078513          	mv	a0,a5
    8000225c:	0000006b          	0x6b
    80002260:	0000006f          	j	80002260 <_assert+0x10>
    80002264:	00008067          	ret

0000000080002268 <_trm_init>:
    80002268:	ff010113          	addi	sp,sp,-16
    8000226c:	00113423          	sd	ra,8(sp)
    80002270:	4e4000ef          	jal	ra,80002754 <heap_init>
    80002274:	00002517          	auipc	a0,0x2
    80002278:	11450513          	addi	a0,a0,276 # 80004388 <mainargs>
    8000227c:	f60ff0ef          	jal	ra,800019dc <main>
    80002280:	00050513          	mv	a0,a0
    80002284:	0000006b          	0x6b
    80002288:	0000006f          	j	80002288 <_trm_init+0x20>

000000008000228c <__muldi3>:
    8000228c:	00050613          	mv	a2,a0
    80002290:	00000513          	li	a0,0
    80002294:	0015f693          	andi	a3,a1,1
    80002298:	00068463          	beqz	a3,800022a0 <__muldi3+0x14>
    8000229c:	00c50533          	add	a0,a0,a2
    800022a0:	0015d593          	srli	a1,a1,0x1
    800022a4:	00161613          	slli	a2,a2,0x1
    800022a8:	fe0596e3          	bnez	a1,80002294 <__muldi3+0x8>
    800022ac:	00008067          	ret

00000000800022b0 <__udivsi3>:
    800022b0:	02051513          	slli	a0,a0,0x20
    800022b4:	02059593          	slli	a1,a1,0x20
    800022b8:	00008293          	mv	t0,ra
    800022bc:	03c000ef          	jal	ra,800022f8 <__udivdi3>
    800022c0:	0005051b          	sext.w	a0,a0
    800022c4:	00028067          	jr	t0

00000000800022c8 <__umodsi3>:
    800022c8:	02051513          	slli	a0,a0,0x20
    800022cc:	02059593          	slli	a1,a1,0x20
    800022d0:	02055513          	srli	a0,a0,0x20
    800022d4:	0205d593          	srli	a1,a1,0x20
    800022d8:	00008293          	mv	t0,ra
    800022dc:	01c000ef          	jal	ra,800022f8 <__udivdi3>
    800022e0:	0005851b          	sext.w	a0,a1
    800022e4:	00028067          	jr	t0

00000000800022e8 <__divsi3>:
    800022e8:	fff00293          	li	t0,-1
    800022ec:	0a558c63          	beq	a1,t0,800023a4 <__moddi3+0x30>

00000000800022f0 <__divdi3>:
    800022f0:	06054063          	bltz	a0,80002350 <__umoddi3+0x10>
    800022f4:	0605c663          	bltz	a1,80002360 <__umoddi3+0x20>

00000000800022f8 <__udivdi3>:
    800022f8:	00058613          	mv	a2,a1
    800022fc:	00050593          	mv	a1,a0
    80002300:	fff00513          	li	a0,-1
    80002304:	02060c63          	beqz	a2,8000233c <__udivdi3+0x44>
    80002308:	00100693          	li	a3,1
    8000230c:	00b67a63          	bgeu	a2,a1,80002320 <__udivdi3+0x28>
    80002310:	00c05863          	blez	a2,80002320 <__udivdi3+0x28>
    80002314:	00161613          	slli	a2,a2,0x1
    80002318:	00169693          	slli	a3,a3,0x1
    8000231c:	feb66ae3          	bltu	a2,a1,80002310 <__udivdi3+0x18>
    80002320:	00000513          	li	a0,0
    80002324:	00c5e663          	bltu	a1,a2,80002330 <__udivdi3+0x38>
    80002328:	40c585b3          	sub	a1,a1,a2
    8000232c:	00d56533          	or	a0,a0,a3
    80002330:	0016d693          	srli	a3,a3,0x1
    80002334:	00165613          	srli	a2,a2,0x1
    80002338:	fe0696e3          	bnez	a3,80002324 <__udivdi3+0x2c>
    8000233c:	00008067          	ret

0000000080002340 <__umoddi3>:
    80002340:	00008293          	mv	t0,ra
    80002344:	fb5ff0ef          	jal	ra,800022f8 <__udivdi3>
    80002348:	00058513          	mv	a0,a1
    8000234c:	00028067          	jr	t0
    80002350:	40a00533          	neg	a0,a0
    80002354:	00b04863          	bgtz	a1,80002364 <__umoddi3+0x24>
    80002358:	40b005b3          	neg	a1,a1
    8000235c:	f9dff06f          	j	800022f8 <__udivdi3>
    80002360:	40b005b3          	neg	a1,a1
    80002364:	00008293          	mv	t0,ra
    80002368:	f91ff0ef          	jal	ra,800022f8 <__udivdi3>
    8000236c:	40a00533          	neg	a0,a0
    80002370:	00028067          	jr	t0

0000000080002374 <__moddi3>:
    80002374:	00008293          	mv	t0,ra
    80002378:	0005ca63          	bltz	a1,8000238c <__moddi3+0x18>
    8000237c:	00054c63          	bltz	a0,80002394 <__moddi3+0x20>
    80002380:	f79ff0ef          	jal	ra,800022f8 <__udivdi3>
    80002384:	00058513          	mv	a0,a1
    80002388:	00028067          	jr	t0
    8000238c:	40b005b3          	neg	a1,a1
    80002390:	fe0558e3          	bgez	a0,80002380 <__moddi3+0xc>
    80002394:	40a00533          	neg	a0,a0
    80002398:	f61ff0ef          	jal	ra,800022f8 <__udivdi3>
    8000239c:	40b00533          	neg	a0,a1
    800023a0:	00028067          	jr	t0
    800023a4:	01f29293          	slli	t0,t0,0x1f
    800023a8:	f45514e3          	bne	a0,t0,800022f0 <__divdi3>
    800023ac:	00008067          	ret

00000000800023b0 <__am_timer_config>:
    800023b0:	00100793          	li	a5,1
    800023b4:	00f50023          	sb	a5,0(a0)
    800023b8:	00f500a3          	sb	a5,1(a0)
    800023bc:	00008067          	ret

00000000800023c0 <__am_input_config>:
    800023c0:	00100793          	li	a5,1
    800023c4:	00f50023          	sb	a5,0(a0)
    800023c8:	00008067          	ret

00000000800023cc <fail>:
    800023cc:	ff010113          	addi	sp,sp,-16
    800023d0:	00813023          	sd	s0,0(sp)
    800023d4:	00113423          	sd	ra,8(sp)
    800023d8:	00002417          	auipc	s0,0x2
    800023dc:	cd040413          	addi	s0,s0,-816 # 800040a8 <state_known_crc+0x10>
    800023e0:	04100513          	li	a0,65
    800023e4:	00140413          	addi	s0,s0,1
    800023e8:	e59ff0ef          	jal	ra,80002240 <putch>
    800023ec:	00044503          	lbu	a0,0(s0)
    800023f0:	fe051ae3          	bnez	a0,800023e4 <fail+0x18>
    800023f4:	00002417          	auipc	s0,0x2
    800023f8:	cc440413          	addi	s0,s0,-828 # 800040b8 <state_known_crc+0x20>
    800023fc:	06100513          	li	a0,97
    80002400:	00140413          	addi	s0,s0,1
    80002404:	e3dff0ef          	jal	ra,80002240 <putch>
    80002408:	00044503          	lbu	a0,0(s0)
    8000240c:	fe051ae3          	bnez	a0,80002400 <fail+0x34>
    80002410:	00002417          	auipc	s0,0x2
    80002414:	cc840413          	addi	s0,s0,-824 # 800040d8 <state_known_crc+0x40>
    80002418:	02000513          	li	a0,32
    8000241c:	00140413          	addi	s0,s0,1
    80002420:	e21ff0ef          	jal	ra,80002240 <putch>
    80002424:	00044503          	lbu	a0,0(s0)
    80002428:	fe051ae3          	bnez	a0,8000241c <fail+0x50>
    8000242c:	00100513          	li	a0,1
    80002430:	e15ff0ef          	jal	ra,80002244 <halt>

0000000080002434 <ioe_init>:
    80002434:	ff010113          	addi	sp,sp,-16
    80002438:	00113423          	sd	ra,8(sp)
    8000243c:	00002797          	auipc	a5,0x2
    80002440:	f7c78793          	addi	a5,a5,-132 # 800043b8 <lut>
    80002444:	00002697          	auipc	a3,0x2
    80002448:	37468693          	addi	a3,a3,884 # 800047b8 <seed1_volatile>
    8000244c:	00000617          	auipc	a2,0x0
    80002450:	f8060613          	addi	a2,a2,-128 # 800023cc <fail>
    80002454:	00c0006f          	j	80002460 <ioe_init+0x2c>
    80002458:	00878793          	addi	a5,a5,8
    8000245c:	00d78c63          	beq	a5,a3,80002474 <ioe_init+0x40>
    80002460:	0007b703          	ld	a4,0(a5)
    80002464:	fe071ae3          	bnez	a4,80002458 <ioe_init+0x24>
    80002468:	00c7b023          	sd	a2,0(a5)
    8000246c:	00878793          	addi	a5,a5,8
    80002470:	fed798e3          	bne	a5,a3,80002460 <ioe_init+0x2c>
    80002474:	030000ef          	jal	ra,800024a4 <__am_timer_init>
    80002478:	00813083          	ld	ra,8(sp)
    8000247c:	00100513          	li	a0,1
    80002480:	01010113          	addi	sp,sp,16
    80002484:	00008067          	ret

0000000080002488 <ioe_read>:
    80002488:	00351793          	slli	a5,a0,0x3
    8000248c:	00002517          	auipc	a0,0x2
    80002490:	f2c50513          	addi	a0,a0,-212 # 800043b8 <lut>
    80002494:	00f50533          	add	a0,a0,a5
    80002498:	00053303          	ld	t1,0(a0)
    8000249c:	00058513          	mv	a0,a1
    800024a0:	00030067          	jr	t1

00000000800024a4 <__am_timer_init>:
    800024a4:	00008067          	ret

00000000800024a8 <__am_timer_uptime>:
    800024a8:	00053023          	sd	zero,0(a0)
    800024ac:	00008067          	ret

00000000800024b0 <gmtime_r>:
    800024b0:	fc010113          	addi	sp,sp,-64
    800024b4:	01313c23          	sd	s3,24(sp)
    800024b8:	00058993          	mv	s3,a1
    800024bc:	00050793          	mv	a5,a0
    800024c0:	03800613          	li	a2,56
    800024c4:	00000593          	li	a1,0
    800024c8:	00098513          	mv	a0,s3
    800024cc:	02813823          	sd	s0,48(sp)
    800024d0:	03213023          	sd	s2,32(sp)
    800024d4:	0007b403          	ld	s0,0(a5)
    800024d8:	01413823          	sd	s4,16(sp)
    800024dc:	02113c23          	sd	ra,56(sp)
    800024e0:	02913423          	sd	s1,40(sp)
    800024e4:	01513423          	sd	s5,8(sp)
    800024e8:	374010ef          	jal	ra,8000385c <memset>
    800024ec:	7b200793          	li	a5,1970
    800024f0:	00f9aa23          	sw	a5,20(s3) # fffffffffffff014 <_end+0xffffffff7fff2014>
    800024f4:	7b200913          	li	s2,1970
    800024f8:	00002a17          	auipc	s4,0x2
    800024fc:	e98a0a13          	addi	s4,s4,-360 # 80004390 <SEC_PER_YR>
    80002500:	0100006f          	j	80002510 <gmtime_r+0x60>
    80002504:	40e40433          	sub	s0,s0,a4
    80002508:	00d9aa23          	sw	a3,20(s3)
    8000250c:	00068913          	mv	s2,a3
    80002510:	0009049b          	sext.w	s1,s2
    80002514:	06400593          	li	a1,100
    80002518:	00048513          	mv	a0,s1
    8000251c:	e59ff0ef          	jal	ra,80002374 <__moddi3>
    80002520:	00050793          	mv	a5,a0
    80002524:	0007879b          	sext.w	a5,a5
    80002528:	00048513          	mv	a0,s1
    8000252c:	00397493          	andi	s1,s2,3
    80002530:	19000593          	li	a1,400
    80002534:	0014b493          	seqz	s1,s1
    80002538:	00079863          	bnez	a5,80002548 <gmtime_r+0x98>
    8000253c:	e39ff0ef          	jal	ra,80002374 <__moddi3>
    80002540:	0005049b          	sext.w	s1,a0
    80002544:	0014b493          	seqz	s1,s1
    80002548:	00249793          	slli	a5,s1,0x2
    8000254c:	00fa07b3          	add	a5,s4,a5
    80002550:	0007e703          	lwu	a4,0(a5)
    80002554:	0019069b          	addiw	a3,s2,1
    80002558:	fae456e3          	bge	s0,a4,80002504 <gmtime_r+0x54>
    8000255c:	000155b7          	lui	a1,0x15
    80002560:	18058593          	addi	a1,a1,384 # 15180 <_entry_offset+0x15180>
    80002564:	00040513          	mv	a0,s0
    80002568:	d89ff0ef          	jal	ra,800022f0 <__divdi3>
    8000256c:	00149793          	slli	a5,s1,0x1
    80002570:	009784b3          	add	s1,a5,s1
    80002574:	00449793          	slli	a5,s1,0x4
    80002578:	00002497          	auipc	s1,0x2
    8000257c:	ba048493          	addi	s1,s1,-1120 # 80004118 <SEC_PER_MT>
    80002580:	00f484b3          	add	s1,s1,a5
    80002584:	0004e783          	lwu	a5,0(s1)
    80002588:	0005051b          	sext.w	a0,a0
    8000258c:	00a9ae23          	sw	a0,28(s3)
    80002590:	14f44463          	blt	s0,a5,800026d8 <gmtime_r+0x228>
    80002594:	00100713          	li	a4,1
    80002598:	40f40433          	sub	s0,s0,a5
    8000259c:	0044e783          	lwu	a5,4(s1)
    800025a0:	00070a1b          	sext.w	s4,a4
    800025a4:	00448493          	addi	s1,s1,4
    800025a8:	00170713          	addi	a4,a4,1
    800025ac:	fef456e3          	bge	s0,a5,80002598 <gmtime_r+0xe8>
    800025b0:	000155b7          	lui	a1,0x15
    800025b4:	0149a823          	sw	s4,16(s3)
    800025b8:	18058593          	addi	a1,a1,384 # 15180 <_entry_offset+0x15180>
    800025bc:	00040513          	mv	a0,s0
    800025c0:	d31ff0ef          	jal	ra,800022f0 <__divdi3>
    800025c4:	0005051b          	sext.w	a0,a0
    800025c8:	0015079b          	addiw	a5,a0,1
    800025cc:	000155b7          	lui	a1,0x15
    800025d0:	00f9a623          	sw	a5,12(s3)
    800025d4:	18058593          	addi	a1,a1,384 # 15180 <_entry_offset+0x15180>
    800025d8:	00040513          	mv	a0,s0
    800025dc:	00001ab7          	lui	s5,0x1
    800025e0:	0007841b          	sext.w	s0,a5
    800025e4:	d91ff0ef          	jal	ra,80002374 <__moddi3>
    800025e8:	e10a8593          	addi	a1,s5,-496 # e10 <_entry_offset+0xe10>
    800025ec:	00050493          	mv	s1,a0
    800025f0:	d01ff0ef          	jal	ra,800022f0 <__divdi3>
    800025f4:	e10a8593          	addi	a1,s5,-496
    800025f8:	00a9a423          	sw	a0,8(s3)
    800025fc:	00048513          	mv	a0,s1
    80002600:	d75ff0ef          	jal	ra,80002374 <__moddi3>
    80002604:	03c00593          	li	a1,60
    80002608:	00050493          	mv	s1,a0
    8000260c:	ce5ff0ef          	jal	ra,800022f0 <__divdi3>
    80002610:	00a9a223          	sw	a0,4(s3)
    80002614:	03c00593          	li	a1,60
    80002618:	00048513          	mv	a0,s1
    8000261c:	d59ff0ef          	jal	ra,80002374 <__moddi3>
    80002620:	001a0a1b          	addiw	s4,s4,1
    80002624:	0ffa7793          	andi	a5,s4,255
    80002628:	0037b793          	sltiu	a5,a5,3
    8000262c:	40f9093b          	subw	s2,s2,a5
    80002630:	03091913          	slli	s2,s2,0x30
    80002634:	03095913          	srli	s2,s2,0x30
    80002638:	00a9a023          	sw	a0,0(s3)
    8000263c:	06400593          	li	a1,100
    80002640:	00090513          	mv	a0,s2
    80002644:	cb5ff0ef          	jal	ra,800022f8 <__udivdi3>
    80002648:	0029549b          	srliw	s1,s2,0x2
    8000264c:	0105179b          	slliw	a5,a0,0x10
    80002650:	0107d79b          	srliw	a5,a5,0x10
    80002654:	012484bb          	addw	s1,s1,s2
    80002658:	19000593          	li	a1,400
    8000265c:	00090513          	mv	a0,s2
    80002660:	0ffa7a13          	andi	s4,s4,255
    80002664:	40f484bb          	subw	s1,s1,a5
    80002668:	fffa0a1b          	addiw	s4,s4,-1
    8000266c:	c8dff0ef          	jal	ra,800022f8 <__udivdi3>
    80002670:	00002797          	auipc	a5,0x2
    80002674:	b0878793          	addi	a5,a5,-1272 # 80004178 <t.1857>
    80002678:	002a1a13          	slli	s4,s4,0x2
    8000267c:	01478a33          	add	s4,a5,s4
    80002680:	000a2783          	lw	a5,0(s4)
    80002684:	0105151b          	slliw	a0,a0,0x10
    80002688:	0105551b          	srliw	a0,a0,0x10
    8000268c:	00a484bb          	addw	s1,s1,a0
    80002690:	00f484bb          	addw	s1,s1,a5
    80002694:	0ff47513          	andi	a0,s0,255
    80002698:	00a4853b          	addw	a0,s1,a0
    8000269c:	00700593          	li	a1,7
    800026a0:	cd5ff0ef          	jal	ra,80002374 <__moddi3>
    800026a4:	03813083          	ld	ra,56(sp)
    800026a8:	03013403          	ld	s0,48(sp)
    800026ac:	0ff57513          	andi	a0,a0,255
    800026b0:	00a9ac23          	sw	a0,24(s3)
    800026b4:	0209a023          	sw	zero,32(s3)
    800026b8:	02813483          	ld	s1,40(sp)
    800026bc:	02013903          	ld	s2,32(sp)
    800026c0:	01013a03          	ld	s4,16(sp)
    800026c4:	00813a83          	ld	s5,8(sp)
    800026c8:	00098513          	mv	a0,s3
    800026cc:	01813983          	ld	s3,24(sp)
    800026d0:	04010113          	addi	sp,sp,64
    800026d4:	00008067          	ret
    800026d8:	00000a13          	li	s4,0
    800026dc:	eedff06f          	j	800025c8 <gmtime_r+0x118>

00000000800026e0 <__am_timer_rtc>:
    800026e0:	fa010113          	addi	sp,sp,-96
    800026e4:	04813823          	sd	s0,80(sp)
    800026e8:	01810593          	addi	a1,sp,24
    800026ec:	00050413          	mv	s0,a0
    800026f0:	00810513          	addi	a0,sp,8
    800026f4:	04113c23          	sd	ra,88(sp)
    800026f8:	00013423          	sd	zero,8(sp)
    800026fc:	00013823          	sd	zero,16(sp)
    80002700:	db1ff0ef          	jal	ra,800024b0 <gmtime_r>
    80002704:	01812703          	lw	a4,24(sp)
    80002708:	02812783          	lw	a5,40(sp)
    8000270c:	05813083          	ld	ra,88(sp)
    80002710:	00e42a23          	sw	a4,20(s0)
    80002714:	01c12703          	lw	a4,28(sp)
    80002718:	0017879b          	addiw	a5,a5,1
    8000271c:	00f42223          	sw	a5,4(s0)
    80002720:	00e42823          	sw	a4,16(s0)
    80002724:	02012703          	lw	a4,32(sp)
    80002728:	02c12783          	lw	a5,44(sp)
    8000272c:	00e42623          	sw	a4,12(s0)
    80002730:	02412703          	lw	a4,36(sp)
    80002734:	00f42023          	sw	a5,0(s0)
    80002738:	00e42423          	sw	a4,8(s0)
    8000273c:	05013403          	ld	s0,80(sp)
    80002740:	06010113          	addi	sp,sp,96
    80002744:	00008067          	ret

0000000080002748 <__am_input_keybrd>:
    80002748:	00050023          	sb	zero,0(a0)
    8000274c:	00052223          	sw	zero,4(a0)
    80002750:	00008067          	ret

0000000080002754 <heap_init>:
    80002754:	00002797          	auipc	a5,0x2
    80002758:	c5478793          	addi	a5,a5,-940 # 800043a8 <heap>
    8000275c:	0007b503          	ld	a0,0(a5)
    80002760:	0087b583          	ld	a1,8(a5)
    80002764:	ff010113          	addi	sp,sp,-16
    80002768:	00000693          	li	a3,0
    8000276c:	00000613          	li	a2,0
    80002770:	40a585b3          	sub	a1,a1,a0
    80002774:	00113423          	sd	ra,8(sp)
    80002778:	1c4010ef          	jal	ra,8000393c <o1heapInit>
    8000277c:	00813083          	ld	ra,8(sp)
    80002780:	00002797          	auipc	a5,0x2
    80002784:	04a7b423          	sd	a0,72(a5) # 800047c8 <heap_inst>
    80002788:	01010113          	addi	sp,sp,16
    8000278c:	00008067          	ret

0000000080002790 <_out_null>:
    80002790:	00008067          	ret

0000000080002794 <_ntoa_format>:
    80002794:	fa010113          	addi	sp,sp,-96
    80002798:	07012303          	lw	t1,112(sp)
    8000279c:	03313c23          	sd	s3,56(sp)
    800027a0:	03413823          	sd	s4,48(sp)
    800027a4:	03513423          	sd	s5,40(sp)
    800027a8:	03613023          	sd	s6,32(sp)
    800027ac:	01713c23          	sd	s7,24(sp)
    800027b0:	01813823          	sd	s8,16(sp)
    800027b4:	01913423          	sd	s9,8(sp)
    800027b8:	00237e13          	andi	t3,t1,2
    800027bc:	01037e93          	andi	t4,t1,16
    800027c0:	04113c23          	sd	ra,88(sp)
    800027c4:	04813823          	sd	s0,80(sp)
    800027c8:	04913423          	sd	s1,72(sp)
    800027cc:	05213023          	sd	s2,64(sp)
    800027d0:	06012f03          	lw	t5,96(sp)
    800027d4:	06812c03          	lw	s8,104(sp)
    800027d8:	00050a13          	mv	s4,a0
    800027dc:	00058a93          	mv	s5,a1
    800027e0:	00060b93          	mv	s7,a2
    800027e4:	00068b13          	mv	s6,a3
    800027e8:	00070993          	mv	s3,a4
    800027ec:	000e0c9b          	sext.w	s9,t3
    800027f0:	000e8e9b          	sext.w	t4,t4
    800027f4:	060e1c63          	bnez	t3,8000286c <_ntoa_format+0xd8>
    800027f8:	020f1693          	slli	a3,t5,0x20
    800027fc:	00137513          	andi	a0,t1,1
    80002800:	0206d693          	srli	a3,a3,0x20
    80002804:	180c1e63          	bnez	s8,800029a0 <_ntoa_format+0x20c>
    80002808:	02d7f663          	bgeu	a5,a3,80002834 <_ntoa_format+0xa0>
    8000280c:	02000713          	li	a4,32
    80002810:	36e78e63          	beq	a5,a4,80002b8c <_ntoa_format+0x3f8>
    80002814:	03000613          	li	a2,48
    80002818:	02000593          	li	a1,32
    8000281c:	0080006f          	j	80002824 <_ntoa_format+0x90>
    80002820:	00b78a63          	beq	a5,a1,80002834 <_ntoa_format+0xa0>
    80002824:	00178793          	addi	a5,a5,1
    80002828:	00f98733          	add	a4,s3,a5
    8000282c:	fec70fa3          	sb	a2,-1(a4)
    80002830:	fed7e8e3          	bltu	a5,a3,80002820 <_ntoa_format+0x8c>
    80002834:	02050c63          	beqz	a0,8000286c <_ntoa_format+0xd8>
    80002838:	020c1913          	slli	s2,s8,0x20
    8000283c:	02095913          	srli	s2,s2,0x20
    80002840:	0327f663          	bgeu	a5,s2,8000286c <_ntoa_format+0xd8>
    80002844:	02000713          	li	a4,32
    80002848:	36e78863          	beq	a5,a4,80002bb8 <_ntoa_format+0x424>
    8000284c:	03000693          	li	a3,48
    80002850:	02000613          	li	a2,32
    80002854:	0080006f          	j	8000285c <_ntoa_format+0xc8>
    80002858:	16c78463          	beq	a5,a2,800029c0 <_ntoa_format+0x22c>
    8000285c:	00178793          	addi	a5,a5,1
    80002860:	00f98733          	add	a4,s3,a5
    80002864:	fed70fa3          	sb	a3,-1(a4)
    80002868:	ff2798e3          	bne	a5,s2,80002858 <_ntoa_format+0xc4>
    8000286c:	1a0e8663          	beqz	t4,80002a18 <_ntoa_format+0x284>
    80002870:	40037713          	andi	a4,t1,1024
    80002874:	20071463          	bnez	a4,80002a7c <_ntoa_format+0x2e8>
    80002878:	1e079663          	bnez	a5,80002a64 <_ntoa_format+0x2d0>
    8000287c:	01000793          	li	a5,16
    80002880:	2af88863          	beq	a7,a5,80002b30 <_ntoa_format+0x39c>
    80002884:	00200793          	li	a5,2
    80002888:	2ef88a63          	beq	a7,a5,80002b7c <_ntoa_format+0x3e8>
    8000288c:	03000793          	li	a5,48
    80002890:	00f98023          	sb	a5,0(s3)
    80002894:	00100793          	li	a5,1
    80002898:	1a080463          	beqz	a6,80002a40 <_ntoa_format+0x2ac>
    8000289c:	00f98733          	add	a4,s3,a5
    800028a0:	00178413          	addi	s0,a5,1
    800028a4:	02d00793          	li	a5,45
    800028a8:	00f70023          	sb	a5,0(a4)
    800028ac:	00337313          	andi	t1,t1,3
    800028b0:	20031263          	bnez	t1,80002ab4 <_ntoa_format+0x320>
    800028b4:	020c1913          	slli	s2,s8,0x20
    800028b8:	02095913          	srli	s2,s2,0x20
    800028bc:	1f247c63          	bgeu	s0,s2,80002ab4 <_ntoa_format+0x320>
    800028c0:	40890933          	sub	s2,s2,s0
    800028c4:	01790933          	add	s2,s2,s7
    800028c8:	000b8493          	mv	s1,s7
    800028cc:	00048613          	mv	a2,s1
    800028d0:	000b0693          	mv	a3,s6
    800028d4:	00148493          	addi	s1,s1,1
    800028d8:	000a8593          	mv	a1,s5
    800028dc:	02000513          	li	a0,32
    800028e0:	000a00e7          	jalr	s4
    800028e4:	ff2494e3          	bne	s1,s2,800028cc <_ntoa_format+0x138>
    800028e8:	02040663          	beqz	s0,80002914 <_ntoa_format+0x180>
    800028ec:	01240933          	add	s2,s0,s2
    800028f0:	012984b3          	add	s1,s3,s2
    800028f4:	00898433          	add	s0,s3,s0
    800028f8:	fff44503          	lbu	a0,-1(s0)
    800028fc:	40848633          	sub	a2,s1,s0
    80002900:	000b0693          	mv	a3,s6
    80002904:	fff40413          	addi	s0,s0,-1
    80002908:	000a8593          	mv	a1,s5
    8000290c:	000a00e7          	jalr	s4
    80002910:	fe8994e3          	bne	s3,s0,800028f8 <_ntoa_format+0x164>
    80002914:	040c8a63          	beqz	s9,80002968 <_ntoa_format+0x1d4>
    80002918:	020c1c13          	slli	s8,s8,0x20
    8000291c:	41790433          	sub	s0,s2,s7
    80002920:	020c5c13          	srli	s8,s8,0x20
    80002924:	05847263          	bgeu	s0,s8,80002968 <_ntoa_format+0x1d4>
    80002928:	01740633          	add	a2,s0,s7
    8000292c:	000b0693          	mv	a3,s6
    80002930:	00140413          	addi	s0,s0,1
    80002934:	000a8593          	mv	a1,s5
    80002938:	02000513          	li	a0,32
    8000293c:	000a00e7          	jalr	s4
    80002940:	ff8464e3          	bltu	s0,s8,80002928 <_ntoa_format+0x194>
    80002944:	41790733          	sub	a4,s2,s7
    80002948:	00170713          	addi	a4,a4,1
    8000294c:	00000793          	li	a5,0
    80002950:	00ec6863          	bltu	s8,a4,80002960 <_ntoa_format+0x1cc>
    80002954:	fffb8793          	addi	a5,s7,-1
    80002958:	01878c33          	add	s8,a5,s8
    8000295c:	412c07b3          	sub	a5,s8,s2
    80002960:	00190913          	addi	s2,s2,1
    80002964:	00f90933          	add	s2,s2,a5
    80002968:	05813083          	ld	ra,88(sp)
    8000296c:	05013403          	ld	s0,80(sp)
    80002970:	04813483          	ld	s1,72(sp)
    80002974:	03813983          	ld	s3,56(sp)
    80002978:	03013a03          	ld	s4,48(sp)
    8000297c:	02813a83          	ld	s5,40(sp)
    80002980:	02013b03          	ld	s6,32(sp)
    80002984:	01813b83          	ld	s7,24(sp)
    80002988:	01013c03          	ld	s8,16(sp)
    8000298c:	00813c83          	ld	s9,8(sp)
    80002990:	00090513          	mv	a0,s2
    80002994:	04013903          	ld	s2,64(sp)
    80002998:	06010113          	addi	sp,sp,96
    8000299c:	00008067          	ret
    800029a0:	12050863          	beqz	a0,80002ad0 <_ntoa_format+0x33c>
    800029a4:	00081663          	bnez	a6,800029b0 <_ntoa_format+0x21c>
    800029a8:	00c37713          	andi	a4,t1,12
    800029ac:	00070463          	beqz	a4,800029b4 <_ntoa_format+0x220>
    800029b0:	fffc0c1b          	addiw	s8,s8,-1
    800029b4:	e8d7f2e3          	bgeu	a5,a3,80002838 <_ntoa_format+0xa4>
    800029b8:	02000713          	li	a4,32
    800029bc:	e4e79ce3          	bne	a5,a4,80002814 <_ntoa_format+0x80>
    800029c0:	0e0e8063          	beqz	t4,80002aa0 <_ntoa_format+0x30c>
    800029c4:	40037793          	andi	a5,t1,1024
    800029c8:	04079c63          	bnez	a5,80002a20 <_ntoa_format+0x28c>
    800029cc:	02000793          	li	a5,32
    800029d0:	0aff1063          	bne	t5,a5,80002a70 <_ntoa_format+0x2dc>
    800029d4:	02000793          	li	a5,32
    800029d8:	01f00713          	li	a4,31
    800029dc:	01000693          	li	a3,16
    800029e0:	1ad88c63          	beq	a7,a3,80002b98 <_ntoa_format+0x404>
    800029e4:	00200693          	li	a3,2
    800029e8:	00070793          	mv	a5,a4
    800029ec:	00d89e63          	bne	a7,a3,80002a08 <_ntoa_format+0x274>
    800029f0:	00e986b3          	add	a3,s3,a4
    800029f4:	00170793          	addi	a5,a4,1
    800029f8:	06200713          	li	a4,98
    800029fc:	00e68023          	sb	a4,0(a3)
    80002a00:	02000713          	li	a4,32
    80002a04:	00e78e63          	beq	a5,a4,80002a20 <_ntoa_format+0x28c>
    80002a08:	00f98733          	add	a4,s3,a5
    80002a0c:	03000693          	li	a3,48
    80002a10:	00d70023          	sb	a3,0(a4)
    80002a14:	00178793          	addi	a5,a5,1
    80002a18:	02000713          	li	a4,32
    80002a1c:	e6e79ee3          	bne	a5,a4,80002898 <_ntoa_format+0x104>
    80002a20:	00337313          	andi	t1,t1,3
    80002a24:	08031263          	bnez	t1,80002aa8 <_ntoa_format+0x314>
    80002a28:	02000413          	li	s0,32
    80002a2c:	020c1913          	slli	s2,s8,0x20
    80002a30:	02095913          	srli	s2,s2,0x20
    80002a34:	e92466e3          	bltu	s0,s2,800028c0 <_ntoa_format+0x12c>
    80002a38:	000b8913          	mv	s2,s7
    80002a3c:	eadff06f          	j	800028e8 <_ntoa_format+0x154>
    80002a40:	00437713          	andi	a4,t1,4
    80002a44:	06071c63          	bnez	a4,80002abc <_ntoa_format+0x328>
    80002a48:	00837713          	andi	a4,t1,8
    80002a4c:	0c071863          	bnez	a4,80002b1c <_ntoa_format+0x388>
    80002a50:	00337313          	andi	t1,t1,3
    80002a54:	00078413          	mv	s0,a5
    80002a58:	fc030ae3          	beqz	t1,80002a2c <_ntoa_format+0x298>
    80002a5c:	000b8913          	mv	s2,s7
    80002a60:	e89ff06f          	j	800028e8 <_ntoa_format+0x154>
    80002a64:	020f1f13          	slli	t5,t5,0x20
    80002a68:	020f5f13          	srli	t5,t5,0x20
    80002a6c:	0aff0263          	beq	t5,a5,80002b10 <_ntoa_format+0x37c>
    80002a70:	020c1913          	slli	s2,s8,0x20
    80002a74:	02095913          	srli	s2,s2,0x20
    80002a78:	08f90c63          	beq	s2,a5,80002b10 <_ntoa_format+0x37c>
    80002a7c:	01000713          	li	a4,16
    80002a80:	06e88663          	beq	a7,a4,80002aec <_ntoa_format+0x358>
    80002a84:	00200713          	li	a4,2
    80002a88:	f6e89ce3          	bne	a7,a4,80002a00 <_ntoa_format+0x26c>
    80002a8c:	02000713          	li	a4,32
    80002a90:	f8e788e3          	beq	a5,a4,80002a20 <_ntoa_format+0x28c>
    80002a94:	00f986b3          	add	a3,s3,a5
    80002a98:	00178793          	addi	a5,a5,1
    80002a9c:	f5dff06f          	j	800029f8 <_ntoa_format+0x264>
    80002aa0:	00337313          	andi	t1,t1,3
    80002aa4:	0c030063          	beqz	t1,80002b64 <_ntoa_format+0x3d0>
    80002aa8:	000b8913          	mv	s2,s7
    80002aac:	02000413          	li	s0,32
    80002ab0:	e3dff06f          	j	800028ec <_ntoa_format+0x158>
    80002ab4:	000b8913          	mv	s2,s7
    80002ab8:	e35ff06f          	j	800028ec <_ntoa_format+0x158>
    80002abc:	00f98733          	add	a4,s3,a5
    80002ac0:	00178413          	addi	s0,a5,1
    80002ac4:	02b00793          	li	a5,43
    80002ac8:	00f70023          	sb	a5,0(a4)
    80002acc:	de1ff06f          	j	800028ac <_ntoa_format+0x118>
    80002ad0:	d8d7fee3          	bgeu	a5,a3,8000286c <_ntoa_format+0xd8>
    80002ad4:	02000713          	li	a4,32
    80002ad8:	d2e79ee3          	bne	a5,a4,80002814 <_ntoa_format+0x80>
    80002adc:	0e0e8c63          	beqz	t4,80002bd4 <_ntoa_format+0x440>
    80002ae0:	40037793          	andi	a5,t1,1024
    80002ae4:	f2079ee3          	bnez	a5,80002a20 <_ntoa_format+0x28c>
    80002ae8:	ee5ff06f          	j	800029cc <_ntoa_format+0x238>
    80002aec:	02037713          	andi	a4,t1,32
    80002af0:	04071c63          	bnez	a4,80002b48 <_ntoa_format+0x3b4>
    80002af4:	02000713          	li	a4,32
    80002af8:	f2e784e3          	beq	a5,a4,80002a20 <_ntoa_format+0x28c>
    80002afc:	00f98733          	add	a4,s3,a5
    80002b00:	00178793          	addi	a5,a5,1
    80002b04:	07800693          	li	a3,120
    80002b08:	00d70023          	sb	a3,0(a4)
    80002b0c:	ef5ff06f          	j	80002a00 <_ntoa_format+0x26c>
    80002b10:	fff78713          	addi	a4,a5,-1
    80002b14:	d60704e3          	beqz	a4,8000287c <_ntoa_format+0xe8>
    80002b18:	ec5ff06f          	j	800029dc <_ntoa_format+0x248>
    80002b1c:	00f98733          	add	a4,s3,a5
    80002b20:	00178413          	addi	s0,a5,1
    80002b24:	02000793          	li	a5,32
    80002b28:	00f70023          	sb	a5,0(a4)
    80002b2c:	d81ff06f          	j	800028ac <_ntoa_format+0x118>
    80002b30:	02037793          	andi	a5,t1,32
    80002b34:	02079c63          	bnez	a5,80002b6c <_ntoa_format+0x3d8>
    80002b38:	07800793          	li	a5,120
    80002b3c:	00f98023          	sb	a5,0(s3)
    80002b40:	00100793          	li	a5,1
    80002b44:	ec5ff06f          	j	80002a08 <_ntoa_format+0x274>
    80002b48:	02000713          	li	a4,32
    80002b4c:	ece78ae3          	beq	a5,a4,80002a20 <_ntoa_format+0x28c>
    80002b50:	00f98733          	add	a4,s3,a5
    80002b54:	05800693          	li	a3,88
    80002b58:	00d70023          	sb	a3,0(a4)
    80002b5c:	00178793          	addi	a5,a5,1
    80002b60:	ea1ff06f          	j	80002a00 <_ntoa_format+0x26c>
    80002b64:	02000413          	li	s0,32
    80002b68:	d4dff06f          	j	800028b4 <_ntoa_format+0x120>
    80002b6c:	05800793          	li	a5,88
    80002b70:	00f98023          	sb	a5,0(s3)
    80002b74:	00100793          	li	a5,1
    80002b78:	e91ff06f          	j	80002a08 <_ntoa_format+0x274>
    80002b7c:	06200793          	li	a5,98
    80002b80:	00f98023          	sb	a5,0(s3)
    80002b84:	00100793          	li	a5,1
    80002b88:	e81ff06f          	j	80002a08 <_ntoa_format+0x274>
    80002b8c:	e2051ae3          	bnez	a0,800029c0 <_ntoa_format+0x22c>
    80002b90:	000c8c13          	mv	s8,s9
    80002b94:	f49ff06f          	j	80002adc <_ntoa_format+0x348>
    80002b98:	02037693          	andi	a3,t1,32
    80002b9c:	ffe78713          	addi	a4,a5,-2
    80002ba0:	00069863          	bnez	a3,80002bb0 <_ntoa_format+0x41c>
    80002ba4:	00e98733          	add	a4,s3,a4
    80002ba8:	fff78793          	addi	a5,a5,-1
    80002bac:	f59ff06f          	j	80002b04 <_ntoa_format+0x370>
    80002bb0:	00070793          	mv	a5,a4
    80002bb4:	f9dff06f          	j	80002b50 <_ntoa_format+0x3bc>
    80002bb8:	000e8e63          	beqz	t4,80002bd4 <_ntoa_format+0x440>
    80002bbc:	40037713          	andi	a4,t1,1024
    80002bc0:	00071e63          	bnez	a4,80002bdc <_ntoa_format+0x448>
    80002bc4:	02ff0e63          	beq	t5,a5,80002c00 <_ntoa_format+0x46c>
    80002bc8:	e4fc1ce3          	bne	s8,a5,80002a20 <_ntoa_format+0x28c>
    80002bcc:	01f00713          	li	a4,31
    80002bd0:	e0dff06f          	j	800029dc <_ntoa_format+0x248>
    80002bd4:	02000413          	li	s0,32
    80002bd8:	cd5ff06f          	j	800028ac <_ntoa_format+0x118>
    80002bdc:	01000793          	li	a5,16
    80002be0:	02f88c63          	beq	a7,a5,80002c18 <_ntoa_format+0x484>
    80002be4:	00200793          	li	a5,2
    80002be8:	e2f88ce3          	beq	a7,a5,80002a20 <_ntoa_format+0x28c>
    80002bec:	00337313          	andi	t1,t1,3
    80002bf0:	ea031ce3          	bnez	t1,80002aa8 <_ntoa_format+0x314>
    80002bf4:	02000413          	li	s0,32
    80002bf8:	cd2464e3          	bltu	s0,s2,800028c0 <_ntoa_format+0x12c>
    80002bfc:	e3dff06f          	j	80002a38 <_ntoa_format+0x2a4>
    80002c00:	01000713          	li	a4,16
    80002c04:	f8e88ae3          	beq	a7,a4,80002b98 <_ntoa_format+0x404>
    80002c08:	00200793          	li	a5,2
    80002c0c:	00f88c63          	beq	a7,a5,80002c24 <_ntoa_format+0x490>
    80002c10:	01f00793          	li	a5,31
    80002c14:	df5ff06f          	j	80002a08 <_ntoa_format+0x274>
    80002c18:	02037793          	andi	a5,t1,32
    80002c1c:	fc0788e3          	beqz	a5,80002bec <_ntoa_format+0x458>
    80002c20:	e01ff06f          	j	80002a20 <_ntoa_format+0x28c>
    80002c24:	01f00713          	li	a4,31
    80002c28:	dc9ff06f          	j	800029f0 <_ntoa_format+0x25c>

0000000080002c2c <_ntoa_long>:
    80002c2c:	f4010113          	addi	sp,sp,-192
    80002c30:	09413823          	sd	s4,144(sp)
    80002c34:	09513423          	sd	s5,136(sp)
    80002c38:	09613023          	sd	s6,128(sp)
    80002c3c:	07713c23          	sd	s7,120(sp)
    80002c40:	07813823          	sd	s8,112(sp)
    80002c44:	07913423          	sd	s9,104(sp)
    80002c48:	05b13c23          	sd	s11,88(sp)
    80002c4c:	0a113c23          	sd	ra,184(sp)
    80002c50:	0a813823          	sd	s0,176(sp)
    80002c54:	0a913423          	sd	s1,168(sp)
    80002c58:	0b213023          	sd	s2,160(sp)
    80002c5c:	09313c23          	sd	s3,152(sp)
    80002c60:	07a13023          	sd	s10,96(sp)
    80002c64:	02a13023          	sd	a0,32(sp)
    80002c68:	03113423          	sd	a7,40(sp)
    80002c6c:	0c812a03          	lw	s4,200(sp)
    80002c70:	00070d93          	mv	s11,a4
    80002c74:	00058b13          	mv	s6,a1
    80002c78:	00060b93          	mv	s7,a2
    80002c7c:	00068c13          	mv	s8,a3
    80002c80:	00078c93          	mv	s9,a5
    80002c84:	00080a93          	mv	s5,a6
    80002c88:	00071863          	bnez	a4,80002c98 <_ntoa_long+0x6c>
    80002c8c:	400a7793          	andi	a5,s4,1024
    80002c90:	fefa7a13          	andi	s4,s4,-17
    80002c94:	0e079663          	bnez	a5,80002d80 <_ntoa_long+0x154>
    80002c98:	020a7793          	andi	a5,s4,32
    80002c9c:	06100413          	li	s0,97
    80002ca0:	0c079c63          	bnez	a5,80002d78 <_ntoa_long+0x14c>
    80002ca4:	00000d13          	li	s10,0
    80002ca8:	03010493          	addi	s1,sp,48
    80002cac:	00900913          	li	s2,9
    80002cb0:	ff64041b          	addiw	s0,s0,-10
    80002cb4:	02000993          	li	s3,32
    80002cb8:	00c0006f          	j	80002cc4 <_ntoa_long+0x98>
    80002cbc:	053d0463          	beq	s10,s3,80002d04 <_ntoa_long+0xd8>
    80002cc0:	00050d93          	mv	s11,a0
    80002cc4:	000a8593          	mv	a1,s5
    80002cc8:	000d8513          	mv	a0,s11
    80002ccc:	e74ff0ef          	jal	ra,80002340 <__umoddi3>
    80002cd0:	0ff57313          	andi	t1,a0,255
    80002cd4:	0303071b          	addiw	a4,t1,48
    80002cd8:	0064033b          	addw	t1,s0,t1
    80002cdc:	0ff37313          	andi	t1,t1,255
    80002ce0:	00a96463          	bltu	s2,a0,80002ce8 <_ntoa_long+0xbc>
    80002ce4:	0ff77313          	andi	t1,a4,255
    80002ce8:	001d0d13          	addi	s10,s10,1
    80002cec:	01a48733          	add	a4,s1,s10
    80002cf0:	000d8513          	mv	a0,s11
    80002cf4:	000a8593          	mv	a1,s5
    80002cf8:	fe670fa3          	sb	t1,-1(a4)
    80002cfc:	dfcff0ef          	jal	ra,800022f8 <__udivdi3>
    80002d00:	fb5dfee3          	bgeu	s11,s5,80002cbc <_ntoa_long+0x90>
    80002d04:	0c012703          	lw	a4,192(sp)
    80002d08:	02813783          	ld	a5,40(sp)
    80002d0c:	02013503          	ld	a0,32(sp)
    80002d10:	01413823          	sd	s4,16(sp)
    80002d14:	00e13423          	sd	a4,8(sp)
    80002d18:	00f13023          	sd	a5,0(sp)
    80002d1c:	000a889b          	sext.w	a7,s5
    80002d20:	000c8813          	mv	a6,s9
    80002d24:	000d0793          	mv	a5,s10
    80002d28:	00048713          	mv	a4,s1
    80002d2c:	000c0693          	mv	a3,s8
    80002d30:	000b8613          	mv	a2,s7
    80002d34:	000b0593          	mv	a1,s6
    80002d38:	a5dff0ef          	jal	ra,80002794 <_ntoa_format>
    80002d3c:	0b813083          	ld	ra,184(sp)
    80002d40:	0b013403          	ld	s0,176(sp)
    80002d44:	0a813483          	ld	s1,168(sp)
    80002d48:	0a013903          	ld	s2,160(sp)
    80002d4c:	09813983          	ld	s3,152(sp)
    80002d50:	09013a03          	ld	s4,144(sp)
    80002d54:	08813a83          	ld	s5,136(sp)
    80002d58:	08013b03          	ld	s6,128(sp)
    80002d5c:	07813b83          	ld	s7,120(sp)
    80002d60:	07013c03          	ld	s8,112(sp)
    80002d64:	06813c83          	ld	s9,104(sp)
    80002d68:	06013d03          	ld	s10,96(sp)
    80002d6c:	05813d83          	ld	s11,88(sp)
    80002d70:	0c010113          	addi	sp,sp,192
    80002d74:	00008067          	ret
    80002d78:	04100413          	li	s0,65
    80002d7c:	f29ff06f          	j	80002ca4 <_ntoa_long+0x78>
    80002d80:	00000d13          	li	s10,0
    80002d84:	03010493          	addi	s1,sp,48
    80002d88:	f7dff06f          	j	80002d04 <_ntoa_long+0xd8>

0000000080002d8c <_ntoa_long_long>:
    80002d8c:	f4010113          	addi	sp,sp,-192
    80002d90:	09413823          	sd	s4,144(sp)
    80002d94:	09513423          	sd	s5,136(sp)
    80002d98:	09613023          	sd	s6,128(sp)
    80002d9c:	07713c23          	sd	s7,120(sp)
    80002da0:	07813823          	sd	s8,112(sp)
    80002da4:	07913423          	sd	s9,104(sp)
    80002da8:	05b13c23          	sd	s11,88(sp)
    80002dac:	0a113c23          	sd	ra,184(sp)
    80002db0:	0a813823          	sd	s0,176(sp)
    80002db4:	0a913423          	sd	s1,168(sp)
    80002db8:	0b213023          	sd	s2,160(sp)
    80002dbc:	09313c23          	sd	s3,152(sp)
    80002dc0:	07a13023          	sd	s10,96(sp)
    80002dc4:	02a13023          	sd	a0,32(sp)
    80002dc8:	03113423          	sd	a7,40(sp)
    80002dcc:	0c812a03          	lw	s4,200(sp)
    80002dd0:	00070d93          	mv	s11,a4
    80002dd4:	00058b13          	mv	s6,a1
    80002dd8:	00060b93          	mv	s7,a2
    80002ddc:	00068c13          	mv	s8,a3
    80002de0:	00078c93          	mv	s9,a5
    80002de4:	00080a93          	mv	s5,a6
    80002de8:	00071863          	bnez	a4,80002df8 <_ntoa_long_long+0x6c>
    80002dec:	400a7793          	andi	a5,s4,1024
    80002df0:	fefa7a13          	andi	s4,s4,-17
    80002df4:	0e079663          	bnez	a5,80002ee0 <_ntoa_long_long+0x154>
    80002df8:	020a7793          	andi	a5,s4,32
    80002dfc:	06100413          	li	s0,97
    80002e00:	0c079c63          	bnez	a5,80002ed8 <_ntoa_long_long+0x14c>
    80002e04:	00000d13          	li	s10,0
    80002e08:	03010493          	addi	s1,sp,48
    80002e0c:	00900913          	li	s2,9
    80002e10:	ff64041b          	addiw	s0,s0,-10
    80002e14:	02000993          	li	s3,32
    80002e18:	00c0006f          	j	80002e24 <_ntoa_long_long+0x98>
    80002e1c:	053d0463          	beq	s10,s3,80002e64 <_ntoa_long_long+0xd8>
    80002e20:	00050d93          	mv	s11,a0
    80002e24:	000a8593          	mv	a1,s5
    80002e28:	000d8513          	mv	a0,s11
    80002e2c:	d14ff0ef          	jal	ra,80002340 <__umoddi3>
    80002e30:	0ff57313          	andi	t1,a0,255
    80002e34:	0303071b          	addiw	a4,t1,48
    80002e38:	0064033b          	addw	t1,s0,t1
    80002e3c:	0ff37313          	andi	t1,t1,255
    80002e40:	00a96463          	bltu	s2,a0,80002e48 <_ntoa_long_long+0xbc>
    80002e44:	0ff77313          	andi	t1,a4,255
    80002e48:	001d0d13          	addi	s10,s10,1
    80002e4c:	01a48733          	add	a4,s1,s10
    80002e50:	000d8513          	mv	a0,s11
    80002e54:	000a8593          	mv	a1,s5
    80002e58:	fe670fa3          	sb	t1,-1(a4)
    80002e5c:	c9cff0ef          	jal	ra,800022f8 <__udivdi3>
    80002e60:	fb5dfee3          	bgeu	s11,s5,80002e1c <_ntoa_long_long+0x90>
    80002e64:	0c012703          	lw	a4,192(sp)
    80002e68:	02813783          	ld	a5,40(sp)
    80002e6c:	02013503          	ld	a0,32(sp)
    80002e70:	01413823          	sd	s4,16(sp)
    80002e74:	00e13423          	sd	a4,8(sp)
    80002e78:	00f13023          	sd	a5,0(sp)
    80002e7c:	000a889b          	sext.w	a7,s5
    80002e80:	000c8813          	mv	a6,s9
    80002e84:	000d0793          	mv	a5,s10
    80002e88:	00048713          	mv	a4,s1
    80002e8c:	000c0693          	mv	a3,s8
    80002e90:	000b8613          	mv	a2,s7
    80002e94:	000b0593          	mv	a1,s6
    80002e98:	8fdff0ef          	jal	ra,80002794 <_ntoa_format>
    80002e9c:	0b813083          	ld	ra,184(sp)
    80002ea0:	0b013403          	ld	s0,176(sp)
    80002ea4:	0a813483          	ld	s1,168(sp)
    80002ea8:	0a013903          	ld	s2,160(sp)
    80002eac:	09813983          	ld	s3,152(sp)
    80002eb0:	09013a03          	ld	s4,144(sp)
    80002eb4:	08813a83          	ld	s5,136(sp)
    80002eb8:	08013b03          	ld	s6,128(sp)
    80002ebc:	07813b83          	ld	s7,120(sp)
    80002ec0:	07013c03          	ld	s8,112(sp)
    80002ec4:	06813c83          	ld	s9,104(sp)
    80002ec8:	06013d03          	ld	s10,96(sp)
    80002ecc:	05813d83          	ld	s11,88(sp)
    80002ed0:	0c010113          	addi	sp,sp,192
    80002ed4:	00008067          	ret
    80002ed8:	04100413          	li	s0,65
    80002edc:	f29ff06f          	j	80002e04 <_ntoa_long_long+0x78>
    80002ee0:	00000d13          	li	s10,0
    80002ee4:	03010493          	addi	s1,sp,48
    80002ee8:	f7dff06f          	j	80002e64 <_ntoa_long_long+0xd8>

0000000080002eec <_vsnprintf>:
    80002eec:	f6010113          	addi	sp,sp,-160
    80002ef0:	08913423          	sd	s1,136(sp)
    80002ef4:	09213023          	sd	s2,128(sp)
    80002ef8:	07313c23          	sd	s3,120(sp)
    80002efc:	05713c23          	sd	s7,88(sp)
    80002f00:	05813823          	sd	s8,80(sp)
    80002f04:	08113c23          	sd	ra,152(sp)
    80002f08:	08813823          	sd	s0,144(sp)
    80002f0c:	07413823          	sd	s4,112(sp)
    80002f10:	07513423          	sd	s5,104(sp)
    80002f14:	07613023          	sd	s6,96(sp)
    80002f18:	05913423          	sd	s9,72(sp)
    80002f1c:	05a13023          	sd	s10,64(sp)
    80002f20:	03b13c23          	sd	s11,56(sp)
    80002f24:	00058493          	mv	s1,a1
    80002f28:	00060c13          	mv	s8,a2
    80002f2c:	00068b93          	mv	s7,a3
    80002f30:	00070993          	mv	s3,a4
    80002f34:	00000917          	auipc	s2,0x0
    80002f38:	85c90913          	addi	s2,s2,-1956 # 80002790 <_out_null>
    80002f3c:	00058463          	beqz	a1,80002f44 <_vsnprintf+0x58>
    80002f40:	00050913          	mv	s2,a0
    80002f44:	000bc503          	lbu	a0,0(s7)
    80002f48:	00000d13          	li	s10,0
    80002f4c:	66050663          	beqz	a0,800035b8 <_vsnprintf+0x6cc>
    80002f50:	000107b7          	lui	a5,0x10
    80002f54:	fff78793          	addi	a5,a5,-1 # ffff <_entry_offset+0xffff>
    80002f58:	02500a13          	li	s4,37
    80002f5c:	00001417          	auipc	s0,0x1
    80002f60:	24c40413          	addi	s0,s0,588 # 800041a8 <t.1857+0x30>
    80002f64:	00f13c23          	sd	a5,24(sp)
    80002f68:	0200006f          	j	80002f88 <_vsnprintf+0x9c>
    80002f6c:	000d0613          	mv	a2,s10
    80002f70:	000c0693          	mv	a3,s8
    80002f74:	00048593          	mv	a1,s1
    80002f78:	001d0d13          	addi	s10,s10,1
    80002f7c:	000900e7          	jalr	s2
    80002f80:	000bc503          	lbu	a0,0(s7)
    80002f84:	1c050263          	beqz	a0,80003148 <_vsnprintf+0x25c>
    80002f88:	001b8b93          	addi	s7,s7,1
    80002f8c:	ff4510e3          	bne	a0,s4,80002f6c <_vsnprintf+0x80>
    80002f90:	00000593          	li	a1,0
    80002f94:	01000813          	li	a6,16
    80002f98:	000bc503          	lbu	a0,0(s7)
    80002f9c:	001b8713          	addi	a4,s7,1
    80002fa0:	00070613          	mv	a2,a4
    80002fa4:	fe05079b          	addiw	a5,a0,-32
    80002fa8:	0ff7f793          	andi	a5,a5,255
    80002fac:	00f86c63          	bltu	a6,a5,80002fc4 <_vsnprintf+0xd8>
    80002fb0:	00279793          	slli	a5,a5,0x2
    80002fb4:	008787b3          	add	a5,a5,s0
    80002fb8:	0007a783          	lw	a5,0(a5)
    80002fbc:	008787b3          	add	a5,a5,s0
    80002fc0:	00078067          	jr	a5
    80002fc4:	fd05079b          	addiw	a5,a0,-48
    80002fc8:	0ff7f793          	andi	a5,a5,255
    80002fcc:	00900813          	li	a6,9
    80002fd0:	0ef87c63          	bgeu	a6,a5,800030c8 <_vsnprintf+0x1dc>
    80002fd4:	02a00793          	li	a5,42
    80002fd8:	20f50463          	beq	a0,a5,800031e0 <_vsnprintf+0x2f4>
    80002fdc:	000b8613          	mv	a2,s7
    80002fe0:	00000d93          	li	s11,0
    80002fe4:	00070b93          	mv	s7,a4
    80002fe8:	02e00793          	li	a5,46
    80002fec:	00000c93          	li	s9,0
    80002ff0:	12f50463          	beq	a0,a5,80003118 <_vsnprintf+0x22c>
    80002ff4:	f985079b          	addiw	a5,a0,-104
    80002ff8:	0ff7f793          	andi	a5,a5,255
    80002ffc:	01200713          	li	a4,18
    80003000:	08f76463          	bltu	a4,a5,80003088 <_vsnprintf+0x19c>
    80003004:	00001717          	auipc	a4,0x1
    80003008:	1e870713          	addi	a4,a4,488 # 800041ec <t.1857+0x74>
    8000300c:	00279793          	slli	a5,a5,0x2
    80003010:	00e787b3          	add	a5,a5,a4
    80003014:	0007a783          	lw	a5,0(a5)
    80003018:	00e787b3          	add	a5,a5,a4
    8000301c:	00078067          	jr	a5
    80003020:	0015e593          	ori	a1,a1,1
    80003024:	0005859b          	sext.w	a1,a1
    80003028:	00070b93          	mv	s7,a4
    8000302c:	f6dff06f          	j	80002f98 <_vsnprintf+0xac>
    80003030:	0025e593          	ori	a1,a1,2
    80003034:	0005859b          	sext.w	a1,a1
    80003038:	00070b93          	mv	s7,a4
    8000303c:	f5dff06f          	j	80002f98 <_vsnprintf+0xac>
    80003040:	0045e593          	ori	a1,a1,4
    80003044:	0005859b          	sext.w	a1,a1
    80003048:	00070b93          	mv	s7,a4
    8000304c:	f4dff06f          	j	80002f98 <_vsnprintf+0xac>
    80003050:	0105e593          	ori	a1,a1,16
    80003054:	0005859b          	sext.w	a1,a1
    80003058:	00070b93          	mv	s7,a4
    8000305c:	f3dff06f          	j	80002f98 <_vsnprintf+0xac>
    80003060:	0085e593          	ori	a1,a1,8
    80003064:	0005859b          	sext.w	a1,a1
    80003068:	00070b93          	mv	s7,a4
    8000306c:	f2dff06f          	j	80002f98 <_vsnprintf+0xac>
    80003070:	00164503          	lbu	a0,1(a2)
    80003074:	06800793          	li	a5,104
    80003078:	52f50663          	beq	a0,a5,800035a4 <_vsnprintf+0x6b8>
    8000307c:	0805e593          	ori	a1,a1,128
    80003080:	0005859b          	sext.w	a1,a1
    80003084:	001b8b93          	addi	s7,s7,1
    80003088:	fdb5079b          	addiw	a5,a0,-37
    8000308c:	0ff7f793          	andi	a5,a5,255
    80003090:	05300713          	li	a4,83
    80003094:	ecf76ce3          	bltu	a4,a5,80002f6c <_vsnprintf+0x80>
    80003098:	00001717          	auipc	a4,0x1
    8000309c:	1a070713          	addi	a4,a4,416 # 80004238 <t.1857+0xc0>
    800030a0:	00279793          	slli	a5,a5,0x2
    800030a4:	00e787b3          	add	a5,a5,a4
    800030a8:	0007a783          	lw	a5,0(a5)
    800030ac:	00e787b3          	add	a5,a5,a4
    800030b0:	00078067          	jr	a5
    800030b4:	00164503          	lbu	a0,1(a2)
    800030b8:	1005e593          	ori	a1,a1,256
    800030bc:	0005859b          	sext.w	a1,a1
    800030c0:	001b8b93          	addi	s7,s7,1
    800030c4:	fc5ff06f          	j	80003088 <_vsnprintf+0x19c>
    800030c8:	00000d93          	li	s11,0
    800030cc:	00900813          	li	a6,9
    800030d0:	0080006f          	j	800030d8 <_vsnprintf+0x1ec>
    800030d4:	00170713          	addi	a4,a4,1
    800030d8:	002d979b          	slliw	a5,s11,0x2
    800030dc:	01b787bb          	addw	a5,a5,s11
    800030e0:	0017979b          	slliw	a5,a5,0x1
    800030e4:	00a787bb          	addw	a5,a5,a0
    800030e8:	00074503          	lbu	a0,0(a4)
    800030ec:	000b8893          	mv	a7,s7
    800030f0:	fd078d9b          	addiw	s11,a5,-48
    800030f4:	fd05061b          	addiw	a2,a0,-48
    800030f8:	0ff67613          	andi	a2,a2,255
    800030fc:	00070b93          	mv	s7,a4
    80003100:	fcc87ae3          	bgeu	a6,a2,800030d4 <_vsnprintf+0x1e8>
    80003104:	02e00793          	li	a5,46
    80003108:	00070613          	mv	a2,a4
    8000310c:	00288b93          	addi	s7,a7,2
    80003110:	00000c93          	li	s9,0
    80003114:	eef510e3          	bne	a0,a5,80002ff4 <_vsnprintf+0x108>
    80003118:	00164503          	lbu	a0,1(a2)
    8000311c:	4005e593          	ori	a1,a1,1024
    80003120:	00900713          	li	a4,9
    80003124:	fd05079b          	addiw	a5,a0,-48
    80003128:	0ff7f793          	andi	a5,a5,255
    8000312c:	0005859b          	sext.w	a1,a1
    80003130:	06f77c63          	bgeu	a4,a5,800031a8 <_vsnprintf+0x2bc>
    80003134:	02a00793          	li	a5,42
    80003138:	32f50e63          	beq	a0,a5,80003474 <_vsnprintf+0x588>
    8000313c:	000b8613          	mv	a2,s7
    80003140:	001b8b93          	addi	s7,s7,1
    80003144:	eb1ff06f          	j	80002ff4 <_vsnprintf+0x108>
    80003148:	000d041b          	sext.w	s0,s10
    8000314c:	018d6463          	bltu	s10,s8,80003154 <_vsnprintf+0x268>
    80003150:	fffc0d13          	addi	s10,s8,-1
    80003154:	000c0693          	mv	a3,s8
    80003158:	000d0613          	mv	a2,s10
    8000315c:	00048593          	mv	a1,s1
    80003160:	00000513          	li	a0,0
    80003164:	000900e7          	jalr	s2
    80003168:	09813083          	ld	ra,152(sp)
    8000316c:	00040513          	mv	a0,s0
    80003170:	09013403          	ld	s0,144(sp)
    80003174:	08813483          	ld	s1,136(sp)
    80003178:	08013903          	ld	s2,128(sp)
    8000317c:	07813983          	ld	s3,120(sp)
    80003180:	07013a03          	ld	s4,112(sp)
    80003184:	06813a83          	ld	s5,104(sp)
    80003188:	06013b03          	ld	s6,96(sp)
    8000318c:	05813b83          	ld	s7,88(sp)
    80003190:	05013c03          	ld	s8,80(sp)
    80003194:	04813c83          	ld	s9,72(sp)
    80003198:	04013d03          	ld	s10,64(sp)
    8000319c:	03813d83          	ld	s11,56(sp)
    800031a0:	0a010113          	addi	sp,sp,160
    800031a4:	00008067          	ret
    800031a8:	002c979b          	slliw	a5,s9,0x2
    800031ac:	019788bb          	addw	a7,a5,s9
    800031b0:	000b8813          	mv	a6,s7
    800031b4:	0018989b          	slliw	a7,a7,0x1
    800031b8:	001b8b93          	addi	s7,s7,1
    800031bc:	00a888bb          	addw	a7,a7,a0
    800031c0:	000bc503          	lbu	a0,0(s7)
    800031c4:	fd088c9b          	addiw	s9,a7,-48
    800031c8:	fd05079b          	addiw	a5,a0,-48
    800031cc:	0ff7f793          	andi	a5,a5,255
    800031d0:	fcf77ce3          	bgeu	a4,a5,800031a8 <_vsnprintf+0x2bc>
    800031d4:	000b8613          	mv	a2,s7
    800031d8:	00280b93          	addi	s7,a6,2
    800031dc:	e19ff06f          	j	80002ff4 <_vsnprintf+0x108>
    800031e0:	0009a783          	lw	a5,0(s3)
    800031e4:	00898993          	addi	s3,s3,8
    800031e8:	00078d9b          	sext.w	s11,a5
    800031ec:	0007c863          	bltz	a5,800031fc <_vsnprintf+0x310>
    800031f0:	001bc503          	lbu	a0,1(s7)
    800031f4:	002b8b93          	addi	s7,s7,2
    800031f8:	df1ff06f          	j	80002fe8 <_vsnprintf+0xfc>
    800031fc:	0025e593          	ori	a1,a1,2
    80003200:	001bc503          	lbu	a0,1(s7)
    80003204:	0005859b          	sext.w	a1,a1
    80003208:	40f00dbb          	negw	s11,a5
    8000320c:	002b8b93          	addi	s7,s7,2
    80003210:	dd9ff06f          	j	80002fe8 <_vsnprintf+0xfc>
    80003214:	07800793          	li	a5,120
    80003218:	00898a93          	addi	s5,s3,8
    8000321c:	56f50063          	beq	a0,a5,8000377c <_vsnprintf+0x890>
    80003220:	05800793          	li	a5,88
    80003224:	28f50463          	beq	a0,a5,800034ac <_vsnprintf+0x5c0>
    80003228:	06f00793          	li	a5,111
    8000322c:	4af50c63          	beq	a0,a5,800036e4 <_vsnprintf+0x7f8>
    80003230:	06200793          	li	a5,98
    80003234:	54f50063          	beq	a0,a5,80003774 <_vsnprintf+0x888>
    80003238:	fef5ff13          	andi	t5,a1,-17
    8000323c:	4005f793          	andi	a5,a1,1024
    80003240:	06900713          	li	a4,105
    80003244:	000f0f1b          	sext.w	t5,t5
    80003248:	0007879b          	sext.w	a5,a5
    8000324c:	5ae51063          	bne	a0,a4,800037ec <_vsnprintf+0x900>
    80003250:	48079663          	bnez	a5,800036dc <_vsnprintf+0x7f0>
    80003254:	2005f593          	andi	a1,a1,512
    80003258:	0005879b          	sext.w	a5,a1
    8000325c:	00a00813          	li	a6,10
    80003260:	42079663          	bnez	a5,8000368c <_vsnprintf+0x7a0>
    80003264:	100f7793          	andi	a5,t5,256
    80003268:	000f0613          	mv	a2,t5
    8000326c:	4e079063          	bnez	a5,8000374c <_vsnprintf+0x860>
    80003270:	040f7713          	andi	a4,t5,64
    80003274:	0009a783          	lw	a5,0(s3)
    80003278:	4a071a63          	bnez	a4,8000372c <_vsnprintf+0x840>
    8000327c:	08067613          	andi	a2,a2,128
    80003280:	52060a63          	beqz	a2,800037b4 <_vsnprintf+0x8c8>
    80003284:	0107979b          	slliw	a5,a5,0x10
    80003288:	4107d79b          	sraiw	a5,a5,0x10
    8000328c:	40f7d61b          	sraiw	a2,a5,0xf
    80003290:	00c7c733          	xor	a4,a5,a2
    80003294:	40c7073b          	subw	a4,a4,a2
    80003298:	03071713          	slli	a4,a4,0x30
    8000329c:	03075713          	srli	a4,a4,0x30
    800032a0:	000d0613          	mv	a2,s10
    800032a4:	01e13423          	sd	t5,8(sp)
    800032a8:	01b13023          	sd	s11,0(sp)
    800032ac:	000c8893          	mv	a7,s9
    800032b0:	01f7d79b          	srliw	a5,a5,0x1f
    800032b4:	000c0693          	mv	a3,s8
    800032b8:	00048593          	mv	a1,s1
    800032bc:	00090513          	mv	a0,s2
    800032c0:	96dff0ef          	jal	ra,80002c2c <_ntoa_long>
    800032c4:	00050d13          	mv	s10,a0
    800032c8:	000a8993          	mv	s3,s5
    800032cc:	cb5ff06f          	j	80002f80 <_vsnprintf+0x94>
    800032d0:	00164503          	lbu	a0,1(a2)
    800032d4:	06c00793          	li	a5,108
    800032d8:	def510e3          	bne	a0,a5,800030b8 <_vsnprintf+0x1cc>
    800032dc:	3005e593          	ori	a1,a1,768
    800032e0:	00264503          	lbu	a0,2(a2)
    800032e4:	0005859b          	sext.w	a1,a1
    800032e8:	00360b93          	addi	s7,a2,3
    800032ec:	d9dff06f          	j	80003088 <_vsnprintf+0x19c>
    800032f0:	00898793          	addi	a5,s3,8
    800032f4:	001d0813          	addi	a6,s10,1
    800032f8:	0025f593          	andi	a1,a1,2
    800032fc:	02f13023          	sd	a5,32(sp)
    80003300:	00080b13          	mv	s6,a6
    80003304:	32058263          	beqz	a1,80003628 <_vsnprintf+0x73c>
    80003308:	0009c503          	lbu	a0,0(s3)
    8000330c:	000c0693          	mv	a3,s8
    80003310:	000d0613          	mv	a2,s10
    80003314:	00048593          	mv	a1,s1
    80003318:	000900e7          	jalr	s2
    8000331c:	00100793          	li	a5,1
    80003320:	43b7f063          	bgeu	a5,s11,80003740 <_vsnprintf+0x854>
    80003324:	ffed879b          	addiw	a5,s11,-2
    80003328:	02079a93          	slli	s5,a5,0x20
    8000332c:	020ada93          	srli	s5,s5,0x20
    80003330:	002d0d13          	addi	s10,s10,2
    80003334:	015d0cb3          	add	s9,s10,s5
    80003338:	000b0613          	mv	a2,s6
    8000333c:	000c0693          	mv	a3,s8
    80003340:	001b0b13          	addi	s6,s6,1
    80003344:	00048593          	mv	a1,s1
    80003348:	02000513          	li	a0,32
    8000334c:	000900e7          	jalr	s2
    80003350:	ff6c94e3          	bne	s9,s6,80003338 <_vsnprintf+0x44c>
    80003354:	02013983          	ld	s3,32(sp)
    80003358:	015d0d33          	add	s10,s10,s5
    8000335c:	c25ff06f          	j	80002f80 <_vsnprintf+0x94>
    80003360:	000d0613          	mv	a2,s10
    80003364:	000c0693          	mv	a3,s8
    80003368:	00048593          	mv	a1,s1
    8000336c:	02500513          	li	a0,37
    80003370:	001d0d13          	addi	s10,s10,1
    80003374:	000900e7          	jalr	s2
    80003378:	c09ff06f          	j	80002f80 <_vsnprintf+0x94>
    8000337c:	0009ba83          	ld	s5,0(s3)
    80003380:	00898793          	addi	a5,s3,8
    80003384:	02f13023          	sd	a5,32(sp)
    80003388:	000ac503          	lbu	a0,0(s5)
    8000338c:	100c9663          	bnez	s9,80003498 <_vsnprintf+0x5ac>
    80003390:	ffe00793          	li	a5,-2
    80003394:	42050863          	beqz	a0,800037c4 <_vsnprintf+0x8d8>
    80003398:	00178693          	addi	a3,a5,1
    8000339c:	00da8633          	add	a2,s5,a3
    800033a0:	000a8793          	mv	a5,s5
    800033a4:	0080006f          	j	800033ac <_vsnprintf+0x4c0>
    800033a8:	1ec78863          	beq	a5,a2,80003598 <_vsnprintf+0x6ac>
    800033ac:	0017c703          	lbu	a4,1(a5)
    800033b0:	00178793          	addi	a5,a5,1
    800033b4:	fe071ae3          	bnez	a4,800033a8 <_vsnprintf+0x4bc>
    800033b8:	415787bb          	subw	a5,a5,s5
    800033bc:	00f13823          	sd	a5,16(sp)
    800033c0:	4005f793          	andi	a5,a1,1024
    800033c4:	0007899b          	sext.w	s3,a5
    800033c8:	00078c63          	beqz	a5,800033e0 <_vsnprintf+0x4f4>
    800033cc:	01013703          	ld	a4,16(sp)
    800033d0:	000c879b          	sext.w	a5,s9
    800033d4:	01977463          	bgeu	a4,s9,800033dc <_vsnprintf+0x4f0>
    800033d8:	0007079b          	sext.w	a5,a4
    800033dc:	00f13823          	sd	a5,16(sp)
    800033e0:	0025f593          	andi	a1,a1,2
    800033e4:	0005879b          	sext.w	a5,a1
    800033e8:	02f13423          	sd	a5,40(sp)
    800033ec:	1c058a63          	beqz	a1,800035c0 <_vsnprintf+0x6d4>
    800033f0:	14050863          	beqz	a0,80003540 <_vsnprintf+0x654>
    800033f4:	000d0613          	mv	a2,s10
    800033f8:	00098863          	beqz	s3,80003408 <_vsnprintf+0x51c>
    800033fc:	fffc879b          	addiw	a5,s9,-1
    80003400:	120c8863          	beqz	s9,80003530 <_vsnprintf+0x644>
    80003404:	00078c93          	mv	s9,a5
    80003408:	000c0693          	mv	a3,s8
    8000340c:	00048593          	mv	a1,s1
    80003410:	00160b13          	addi	s6,a2,1
    80003414:	000900e7          	jalr	s2
    80003418:	41ab07b3          	sub	a5,s6,s10
    8000341c:	00fa87b3          	add	a5,s5,a5
    80003420:	0007c503          	lbu	a0,0(a5)
    80003424:	10050863          	beqz	a0,80003534 <_vsnprintf+0x648>
    80003428:	000b0613          	mv	a2,s6
    8000342c:	fcdff06f          	j	800033f8 <_vsnprintf+0x50c>
    80003430:	0009b703          	ld	a4,0(s3)
    80003434:	0215e593          	ori	a1,a1,33
    80003438:	0005859b          	sext.w	a1,a1
    8000343c:	01000793          	li	a5,16
    80003440:	000d0613          	mv	a2,s10
    80003444:	00b13423          	sd	a1,8(sp)
    80003448:	00f13023          	sd	a5,0(sp)
    8000344c:	000c8893          	mv	a7,s9
    80003450:	01000813          	li	a6,16
    80003454:	00000793          	li	a5,0
    80003458:	000c0693          	mv	a3,s8
    8000345c:	00048593          	mv	a1,s1
    80003460:	00090513          	mv	a0,s2
    80003464:	929ff0ef          	jal	ra,80002d8c <_ntoa_long_long>
    80003468:	00898993          	addi	s3,s3,8
    8000346c:	00050d13          	mv	s10,a0
    80003470:	b11ff06f          	j	80002f80 <_vsnprintf+0x94>
    80003474:	0009a883          	lw	a7,0(s3)
    80003478:	00264503          	lbu	a0,2(a2)
    8000347c:	00360b93          	addi	s7,a2,3
    80003480:	fff8c793          	not	a5,a7
    80003484:	43f7d793          	srai	a5,a5,0x3f
    80003488:	00f8fcb3          	and	s9,a7,a5
    8000348c:	00898993          	addi	s3,s3,8
    80003490:	00260613          	addi	a2,a2,2
    80003494:	b61ff06f          	j	80002ff4 <_vsnprintf+0x108>
    80003498:	020c9793          	slli	a5,s9,0x20
    8000349c:	0207d793          	srli	a5,a5,0x20
    800034a0:	32050263          	beqz	a0,800037c4 <_vsnprintf+0x8d8>
    800034a4:	fff78793          	addi	a5,a5,-1
    800034a8:	ef1ff06f          	j	80003398 <_vsnprintf+0x4ac>
    800034ac:	ff35ff13          	andi	t5,a1,-13
    800034b0:	000f0f1b          	sext.w	t5,t5
    800034b4:	4005f793          	andi	a5,a1,1024
    800034b8:	020f6f13          	ori	t5,t5,32
    800034bc:	20078863          	beqz	a5,800036cc <_vsnprintf+0x7e0>
    800034c0:	01000813          	li	a6,16
    800034c4:	ffef7f13          	andi	t5,t5,-2
    800034c8:	000f0f1b          	sext.w	t5,t5
    800034cc:	200f7793          	andi	a5,t5,512
    800034d0:	06900713          	li	a4,105
    800034d4:	0007879b          	sext.w	a5,a5
    800034d8:	d8e504e3          	beq	a0,a4,80003260 <_vsnprintf+0x374>
    800034dc:	06400713          	li	a4,100
    800034e0:	d8e500e3          	beq	a0,a4,80003260 <_vsnprintf+0x374>
    800034e4:	22079663          	bnez	a5,80003710 <_vsnprintf+0x824>
    800034e8:	100f7793          	andi	a5,t5,256
    800034ec:	000f0713          	mv	a4,t5
    800034f0:	2a079463          	bnez	a5,80003798 <_vsnprintf+0x8ac>
    800034f4:	040f7793          	andi	a5,t5,64
    800034f8:	24079063          	bnez	a5,80003738 <_vsnprintf+0x84c>
    800034fc:	08077713          	andi	a4,a4,128
    80003500:	2c070663          	beqz	a4,800037cc <_vsnprintf+0x8e0>
    80003504:	0009a703          	lw	a4,0(s3)
    80003508:	01813783          	ld	a5,24(sp)
    8000350c:	00e7f733          	and	a4,a5,a4
    80003510:	02071713          	slli	a4,a4,0x20
    80003514:	000d0613          	mv	a2,s10
    80003518:	01e13423          	sd	t5,8(sp)
    8000351c:	01b13023          	sd	s11,0(sp)
    80003520:	000c8893          	mv	a7,s9
    80003524:	00000793          	li	a5,0
    80003528:	02075713          	srli	a4,a4,0x20
    8000352c:	d89ff06f          	j	800032b4 <_vsnprintf+0x3c8>
    80003530:	00060b13          	mv	s6,a2
    80003534:	02813783          	ld	a5,40(sp)
    80003538:	04078a63          	beqz	a5,8000358c <_vsnprintf+0x6a0>
    8000353c:	000b0d13          	mv	s10,s6
    80003540:	01013703          	ld	a4,16(sp)
    80003544:	0db77e63          	bgeu	a4,s11,80003620 <_vsnprintf+0x734>
    80003548:	fffd879b          	addiw	a5,s11,-1
    8000354c:	40e7873b          	subw	a4,a5,a4
    80003550:	02071713          	slli	a4,a4,0x20
    80003554:	02075713          	srli	a4,a4,0x20
    80003558:	001d0813          	addi	a6,s10,1
    8000355c:	01070b33          	add	s6,a4,a6
    80003560:	0080006f          	j	80003568 <_vsnprintf+0x67c>
    80003564:	00180813          	addi	a6,a6,1
    80003568:	000d0613          	mv	a2,s10
    8000356c:	01013823          	sd	a6,16(sp)
    80003570:	000c0693          	mv	a3,s8
    80003574:	00048593          	mv	a1,s1
    80003578:	02000513          	li	a0,32
    8000357c:	00080d13          	mv	s10,a6
    80003580:	000900e7          	jalr	s2
    80003584:	01013803          	ld	a6,16(sp)
    80003588:	fd0b1ee3          	bne	s6,a6,80003564 <_vsnprintf+0x678>
    8000358c:	02013983          	ld	s3,32(sp)
    80003590:	000b0d13          	mv	s10,s6
    80003594:	9edff06f          	j	80002f80 <_vsnprintf+0x94>
    80003598:	0006879b          	sext.w	a5,a3
    8000359c:	00f13823          	sd	a5,16(sp)
    800035a0:	e21ff06f          	j	800033c0 <_vsnprintf+0x4d4>
    800035a4:	0c05e593          	ori	a1,a1,192
    800035a8:	00264503          	lbu	a0,2(a2)
    800035ac:	0005859b          	sext.w	a1,a1
    800035b0:	00360b93          	addi	s7,a2,3
    800035b4:	ad5ff06f          	j	80003088 <_vsnprintf+0x19c>
    800035b8:	00000413          	li	s0,0
    800035bc:	b91ff06f          	j	8000314c <_vsnprintf+0x260>
    800035c0:	01013703          	ld	a4,16(sp)
    800035c4:	0017079b          	addiw	a5,a4,1
    800035c8:	21b77c63          	bgeu	a4,s11,800037e0 <_vsnprintf+0x8f4>
    800035cc:	fffd879b          	addiw	a5,s11,-1
    800035d0:	40e787bb          	subw	a5,a5,a4
    800035d4:	02079793          	slli	a5,a5,0x20
    800035d8:	0207d793          	srli	a5,a5,0x20
    800035dc:	001d0813          	addi	a6,s10,1
    800035e0:	01078b33          	add	s6,a5,a6
    800035e4:	00c0006f          	j	800035f0 <_vsnprintf+0x704>
    800035e8:	01013803          	ld	a6,16(sp)
    800035ec:	00180813          	addi	a6,a6,1
    800035f0:	000d0613          	mv	a2,s10
    800035f4:	000c0693          	mv	a3,s8
    800035f8:	00080d13          	mv	s10,a6
    800035fc:	01013823          	sd	a6,16(sp)
    80003600:	00048593          	mv	a1,s1
    80003604:	02000513          	li	a0,32
    80003608:	000900e7          	jalr	s2
    8000360c:	fd6d1ee3          	bne	s10,s6,800035e8 <_vsnprintf+0x6fc>
    80003610:	000ac503          	lbu	a0,0(s5)
    80003614:	001d879b          	addiw	a5,s11,1
    80003618:	00f13823          	sd	a5,16(sp)
    8000361c:	dc051ce3          	bnez	a0,800033f4 <_vsnprintf+0x508>
    80003620:	000d0b13          	mv	s6,s10
    80003624:	f69ff06f          	j	8000358c <_vsnprintf+0x6a0>
    80003628:	00100793          	li	a5,1
    8000362c:	1bb7f463          	bgeu	a5,s11,800037d4 <_vsnprintf+0x8e8>
    80003630:	ffed879b          	addiw	a5,s11,-2
    80003634:	02079a93          	slli	s5,a5,0x20
    80003638:	020ada93          	srli	s5,s5,0x20
    8000363c:	010a8ab3          	add	s5,s5,a6
    80003640:	00c0006f          	j	8000364c <_vsnprintf+0x760>
    80003644:	01013803          	ld	a6,16(sp)
    80003648:	00180813          	addi	a6,a6,1
    8000364c:	000d0613          	mv	a2,s10
    80003650:	000c0693          	mv	a3,s8
    80003654:	00080d13          	mv	s10,a6
    80003658:	01013823          	sd	a6,16(sp)
    8000365c:	00048593          	mv	a1,s1
    80003660:	02000513          	li	a0,32
    80003664:	000900e7          	jalr	s2
    80003668:	fdaa9ee3          	bne	s5,s10,80003644 <_vsnprintf+0x758>
    8000366c:	001a8d13          	addi	s10,s5,1
    80003670:	0009c503          	lbu	a0,0(s3)
    80003674:	000c0693          	mv	a3,s8
    80003678:	000a8613          	mv	a2,s5
    8000367c:	00048593          	mv	a1,s1
    80003680:	000900e7          	jalr	s2
    80003684:	02013983          	ld	s3,32(sp)
    80003688:	8f9ff06f          	j	80002f80 <_vsnprintf+0x94>
    8000368c:	0009b783          	ld	a5,0(s3)
    80003690:	000d0613          	mv	a2,s10
    80003694:	01e13423          	sd	t5,8(sp)
    80003698:	43f7d713          	srai	a4,a5,0x3f
    8000369c:	00f745b3          	xor	a1,a4,a5
    800036a0:	01b13023          	sd	s11,0(sp)
    800036a4:	000c8893          	mv	a7,s9
    800036a8:	03f7d793          	srli	a5,a5,0x3f
    800036ac:	40e58733          	sub	a4,a1,a4
    800036b0:	000c0693          	mv	a3,s8
    800036b4:	00048593          	mv	a1,s1
    800036b8:	00090513          	mv	a0,s2
    800036bc:	ed0ff0ef          	jal	ra,80002d8c <_ntoa_long_long>
    800036c0:	00050d13          	mv	s10,a0
    800036c4:	000a8993          	mv	s3,s5
    800036c8:	8b9ff06f          	j	80002f80 <_vsnprintf+0x94>
    800036cc:	2005f793          	andi	a5,a1,512
    800036d0:	0007879b          	sext.w	a5,a5
    800036d4:	01000813          	li	a6,16
    800036d8:	e0dff06f          	j	800034e4 <_vsnprintf+0x5f8>
    800036dc:	00a00813          	li	a6,10
    800036e0:	de5ff06f          	j	800034c4 <_vsnprintf+0x5d8>
    800036e4:	00800813          	li	a6,8
    800036e8:	00058f13          	mv	t5,a1
    800036ec:	400f7713          	andi	a4,t5,1024
    800036f0:	06400613          	li	a2,100
    800036f4:	000f0793          	mv	a5,t5
    800036f8:	0007071b          	sext.w	a4,a4
    800036fc:	0ec51c63          	bne	a0,a2,800037f4 <_vsnprintf+0x908>
    80003700:	dc0712e3          	bnez	a4,800034c4 <_vsnprintf+0x5d8>
    80003704:	2007f793          	andi	a5,a5,512
    80003708:	0007879b          	sext.w	a5,a5
    8000370c:	b55ff06f          	j	80003260 <_vsnprintf+0x374>
    80003710:	0009b703          	ld	a4,0(s3)
    80003714:	000d0613          	mv	a2,s10
    80003718:	01e13423          	sd	t5,8(sp)
    8000371c:	01b13023          	sd	s11,0(sp)
    80003720:	000c8893          	mv	a7,s9
    80003724:	00000793          	li	a5,0
    80003728:	f89ff06f          	j	800036b0 <_vsnprintf+0x7c4>
    8000372c:	0ff7f793          	andi	a5,a5,255
    80003730:	00078713          	mv	a4,a5
    80003734:	b6dff06f          	j	800032a0 <_vsnprintf+0x3b4>
    80003738:	0009c703          	lbu	a4,0(s3)
    8000373c:	dd5ff06f          	j	80003510 <_vsnprintf+0x624>
    80003740:	02013983          	ld	s3,32(sp)
    80003744:	000b0d13          	mv	s10,s6
    80003748:	839ff06f          	j	80002f80 <_vsnprintf+0x94>
    8000374c:	0009b783          	ld	a5,0(s3)
    80003750:	000d0613          	mv	a2,s10
    80003754:	01e13423          	sd	t5,8(sp)
    80003758:	43f7d713          	srai	a4,a5,0x3f
    8000375c:	00f745b3          	xor	a1,a4,a5
    80003760:	01b13023          	sd	s11,0(sp)
    80003764:	000c8893          	mv	a7,s9
    80003768:	03f7d793          	srli	a5,a5,0x3f
    8000376c:	40e58733          	sub	a4,a1,a4
    80003770:	b45ff06f          	j	800032b4 <_vsnprintf+0x3c8>
    80003774:	00200813          	li	a6,2
    80003778:	f71ff06f          	j	800036e8 <_vsnprintf+0x7fc>
    8000377c:	4005f713          	andi	a4,a1,1024
    80003780:	0007071b          	sext.w	a4,a4
    80003784:	01000813          	li	a6,16
    80003788:	ff35f593          	andi	a1,a1,-13
    8000378c:	00058f1b          	sext.w	t5,a1
    80003790:	d2071ae3          	bnez	a4,800034c4 <_vsnprintf+0x5d8>
    80003794:	d39ff06f          	j	800034cc <_vsnprintf+0x5e0>
    80003798:	0009b703          	ld	a4,0(s3)
    8000379c:	000d0613          	mv	a2,s10
    800037a0:	01e13423          	sd	t5,8(sp)
    800037a4:	01b13023          	sd	s11,0(sp)
    800037a8:	000c8893          	mv	a7,s9
    800037ac:	00000793          	li	a5,0
    800037b0:	b05ff06f          	j	800032b4 <_vsnprintf+0x3c8>
    800037b4:	41f7d61b          	sraiw	a2,a5,0x1f
    800037b8:	00c7c733          	xor	a4,a5,a2
    800037bc:	40c7073b          	subw	a4,a4,a2
    800037c0:	ae1ff06f          	j	800032a0 <_vsnprintf+0x3b4>
    800037c4:	00013823          	sd	zero,16(sp)
    800037c8:	bf9ff06f          	j	800033c0 <_vsnprintf+0x4d4>
    800037cc:	0009a703          	lw	a4,0(s3)
    800037d0:	d41ff06f          	j	80003510 <_vsnprintf+0x624>
    800037d4:	000d0a93          	mv	s5,s10
    800037d8:	00080d13          	mv	s10,a6
    800037dc:	e95ff06f          	j	80003670 <_vsnprintf+0x784>
    800037e0:	00f13823          	sd	a5,16(sp)
    800037e4:	c00518e3          	bnez	a0,800033f4 <_vsnprintf+0x508>
    800037e8:	e39ff06f          	j	80003620 <_vsnprintf+0x734>
    800037ec:	00a00813          	li	a6,10
    800037f0:	efdff06f          	j	800036ec <_vsnprintf+0x800>
    800037f4:	000f0593          	mv	a1,t5
    800037f8:	f91ff06f          	j	80003788 <_vsnprintf+0x89c>

00000000800037fc <_out_char>:
    800037fc:	00051463          	bnez	a0,80003804 <_out_char+0x8>
    80003800:	00008067          	ret
    80003804:	a3dfe06f          	j	80002240 <putch>

0000000080003808 <printf_>:
    80003808:	fa010113          	addi	sp,sp,-96
    8000380c:	02810313          	addi	t1,sp,40
    80003810:	02b13423          	sd	a1,40(sp)
    80003814:	02c13823          	sd	a2,48(sp)
    80003818:	02d13c23          	sd	a3,56(sp)
    8000381c:	04e13023          	sd	a4,64(sp)
    80003820:	00050693          	mv	a3,a0
    80003824:	00010593          	mv	a1,sp
    80003828:	00030713          	mv	a4,t1
    8000382c:	fff00613          	li	a2,-1
    80003830:	00000517          	auipc	a0,0x0
    80003834:	fcc50513          	addi	a0,a0,-52 # 800037fc <_out_char>
    80003838:	00113c23          	sd	ra,24(sp)
    8000383c:	04f13423          	sd	a5,72(sp)
    80003840:	05013823          	sd	a6,80(sp)
    80003844:	05113c23          	sd	a7,88(sp)
    80003848:	00613423          	sd	t1,8(sp)
    8000384c:	ea0ff0ef          	jal	ra,80002eec <_vsnprintf>
    80003850:	01813083          	ld	ra,24(sp)
    80003854:	06010113          	addi	sp,sp,96
    80003858:	00008067          	ret

000000008000385c <memset>:
    8000385c:	00700713          	li	a4,7
    80003860:	00050793          	mv	a5,a0
    80003864:	0ac77a63          	bgeu	a4,a2,80003918 <memset+0xbc>
    80003868:	0ff5f893          	andi	a7,a1,255
    8000386c:	00889693          	slli	a3,a7,0x8
    80003870:	0116e6b3          	or	a3,a3,a7
    80003874:	01069713          	slli	a4,a3,0x10
    80003878:	00d766b3          	or	a3,a4,a3
    8000387c:	02069713          	slli	a4,a3,0x20
    80003880:	00757813          	andi	a6,a0,7
    80003884:	00d76733          	or	a4,a4,a3
    80003888:	0a080663          	beqz	a6,80003934 <memset+0xd8>
    8000388c:	00c50633          	add	a2,a0,a2
    80003890:	01178023          	sb	a7,0(a5)
    80003894:	00178793          	addi	a5,a5,1
    80003898:	0077f813          	andi	a6,a5,7
    8000389c:	40f606b3          	sub	a3,a2,a5
    800038a0:	fe0818e3          	bnez	a6,80003890 <memset+0x34>
    800038a4:	0066d813          	srli	a6,a3,0x6
    800038a8:	04080063          	beqz	a6,800038e8 <memset+0x8c>
    800038ac:	00681613          	slli	a2,a6,0x6
    800038b0:	00078893          	mv	a7,a5
    800038b4:	00f60633          	add	a2,a2,a5
    800038b8:	00e7b023          	sd	a4,0(a5)
    800038bc:	00e7b423          	sd	a4,8(a5)
    800038c0:	00e7b823          	sd	a4,16(a5)
    800038c4:	00e7bc23          	sd	a4,24(a5)
    800038c8:	02e7b023          	sd	a4,32(a5)
    800038cc:	02e7b423          	sd	a4,40(a5)
    800038d0:	02e7b823          	sd	a4,48(a5)
    800038d4:	02e7bc23          	sd	a4,56(a5)
    800038d8:	04078793          	addi	a5,a5,64
    800038dc:	fcf61ee3          	bne	a2,a5,800038b8 <memset+0x5c>
    800038e0:	00681793          	slli	a5,a6,0x6
    800038e4:	011787b3          	add	a5,a5,a7
    800038e8:	0036d813          	srli	a6,a3,0x3
    800038ec:	00787813          	andi	a6,a6,7
    800038f0:	02080263          	beqz	a6,80003914 <memset+0xb8>
    800038f4:	00381613          	slli	a2,a6,0x3
    800038f8:	00078893          	mv	a7,a5
    800038fc:	00f60633          	add	a2,a2,a5
    80003900:	00e7b023          	sd	a4,0(a5)
    80003904:	00878793          	addi	a5,a5,8
    80003908:	fef61ce3          	bne	a2,a5,80003900 <memset+0xa4>
    8000390c:	00381793          	slli	a5,a6,0x3
    80003910:	011787b3          	add	a5,a5,a7
    80003914:	0076f613          	andi	a2,a3,7
    80003918:	0ff5f593          	andi	a1,a1,255
    8000391c:	00c78733          	add	a4,a5,a2
    80003920:	00060863          	beqz	a2,80003930 <memset+0xd4>
    80003924:	00b78023          	sb	a1,0(a5)
    80003928:	00178793          	addi	a5,a5,1
    8000392c:	fef71ce3          	bne	a4,a5,80003924 <memset+0xc8>
    80003930:	00008067          	ret
    80003934:	00060693          	mv	a3,a2
    80003938:	f6dff06f          	j	800038a4 <memset+0x48>

000000008000393c <o1heapInit>:
    8000393c:	1a050e63          	beqz	a0,80003af8 <o1heapInit+0x1bc>
    80003940:	fd010113          	addi	sp,sp,-48
    80003944:	02813023          	sd	s0,32(sp)
    80003948:	00913c23          	sd	s1,24(sp)
    8000394c:	01f57793          	andi	a5,a0,31
    80003950:	02113423          	sd	ra,40(sp)
    80003954:	01213823          	sd	s2,16(sp)
    80003958:	01313423          	sd	s3,8(sp)
    8000395c:	01413023          	sd	s4,0(sp)
    80003960:	00050493          	mv	s1,a0
    80003964:	00050413          	mv	s0,a0
    80003968:	00000513          	li	a0,0
    8000396c:	14079a63          	bnez	a5,80003ac0 <o1heapInit+0x184>
    80003970:	27f00713          	li	a4,639
    80003974:	00058913          	mv	s2,a1
    80003978:	00078513          	mv	a0,a5
    8000397c:	14b77263          	bgeu	a4,a1,80003ac0 <o1heapInit+0x184>
    80003980:	0074f513          	andi	a0,s1,7
    80003984:	00153513          	seqz	a0,a0
    80003988:	00060a13          	mv	s4,a2
    8000398c:	00068993          	mv	s3,a3
    80003990:	8c1fe0ef          	jal	ra,80002250 <_assert>
    80003994:	20048793          	addi	a5,s1,512
    80003998:	2004b023          	sd	zero,512(s1)
    8000399c:	2144b423          	sd	s4,520(s1)
    800039a0:	2134b823          	sd	s3,528(s1)
    800039a4:	00043023          	sd	zero,0(s0)
    800039a8:	00840413          	addi	s0,s0,8
    800039ac:	fe879ce3          	bne	a5,s0,800039a4 <o1heapInit+0x68>
    800039b0:	fff00793          	li	a5,-1
    800039b4:	dc090413          	addi	s0,s2,-576
    800039b8:	03f79793          	slli	a5,a5,0x3f
    800039bc:	1287f863          	bgeu	a5,s0,80003aec <o1heapInit+0x1b0>
    800039c0:	00078413          	mv	s0,a5
    800039c4:	00100513          	li	a0,1
    800039c8:	889fe0ef          	jal	ra,80002250 <_assert>
    800039cc:	f8300793          	li	a5,-125
    800039d0:	0017d793          	srli	a5,a5,0x1
    800039d4:	fc040513          	addi	a0,s0,-64
    800039d8:	00f53533          	sltu	a0,a0,a5
    800039dc:	875fe0ef          	jal	ra,80002250 <_assert>
    800039e0:	01f4f513          	andi	a0,s1,31
    800039e4:	00153513          	seqz	a0,a0
    800039e8:	869fe0ef          	jal	ra,80002250 <_assert>
    800039ec:	00100513          	li	a0,1
    800039f0:	2404b023          	sd	zero,576(s1)
    800039f4:	2404b423          	sd	zero,584(s1)
    800039f8:	2484b823          	sd	s0,592(s1)
    800039fc:	24048c23          	sb	zero,600(s1)
    80003a00:	2604b023          	sd	zero,608(s1)
    80003a04:	2604b423          	sd	zero,616(s1)
    80003a08:	849fe0ef          	jal	ra,80002250 <_assert>
    80003a0c:	00100513          	li	a0,1
    80003a10:	841fe0ef          	jal	ra,80002250 <_assert>
    80003a14:	2504b503          	ld	a0,592(s1)
    80003a18:	24048a13          	addi	s4,s1,576
    80003a1c:	04053513          	sltiu	a0,a0,64
    80003a20:	00154513          	xori	a0,a0,1
    80003a24:	00157513          	andi	a0,a0,1
    80003a28:	829fe0ef          	jal	ra,80002250 <_assert>
    80003a2c:	2504b503          	ld	a0,592(s1)
    80003a30:	03f57513          	andi	a0,a0,63
    80003a34:	00153513          	seqz	a0,a0
    80003a38:	819fe0ef          	jal	ra,80002250 <_assert>
    80003a3c:	2504b703          	ld	a4,592(s1)
    80003a40:	00100793          	li	a5,1
    80003a44:	00675713          	srli	a4,a4,0x6
    80003a48:	0ae7fc63          	bgeu	a5,a4,80003b00 <o1heapInit+0x1c4>
    80003a4c:	00000793          	li	a5,0
    80003a50:	00100693          	li	a3,1
    80003a54:	0017879b          	addiw	a5,a5,1
    80003a58:	00175713          	srli	a4,a4,0x1
    80003a5c:	0ff7f793          	andi	a5,a5,255
    80003a60:	fed71ae3          	bne	a4,a3,80003a54 <o1heapInit+0x118>
    80003a64:	00078993          	mv	s3,a5
    80003a68:	0407b513          	sltiu	a0,a5,64
    80003a6c:	00f71933          	sll	s2,a4,a5
    80003a70:	fe0fe0ef          	jal	ra,80002250 <_assert>
    80003a74:	00399793          	slli	a5,s3,0x3
    80003a78:	00f487b3          	add	a5,s1,a5
    80003a7c:	0007b703          	ld	a4,0(a5)
    80003a80:	2604b423          	sd	zero,616(s1)
    80003a84:	26e4b023          	sd	a4,608(s1)
    80003a88:	00070463          	beqz	a4,80003a90 <o1heapInit+0x154>
    80003a8c:	03473423          	sd	s4,40(a4)
    80003a90:	0147b023          	sd	s4,0(a5)
    80003a94:	2004b503          	ld	a0,512(s1)
    80003a98:	00a96533          	or	a0,s2,a0
    80003a9c:	20a4b023          	sd	a0,512(s1)
    80003aa0:	00a03533          	snez	a0,a0
    80003aa4:	facfe0ef          	jal	ra,80002250 <_assert>
    80003aa8:	00048513          	mv	a0,s1
    80003aac:	2084bc23          	sd	s0,536(s1)
    80003ab0:	2204b023          	sd	zero,544(s1)
    80003ab4:	2204b423          	sd	zero,552(s1)
    80003ab8:	2204b823          	sd	zero,560(s1)
    80003abc:	2204bc23          	sd	zero,568(s1)
    80003ac0:	02813083          	ld	ra,40(sp)
    80003ac4:	02013403          	ld	s0,32(sp)
    80003ac8:	01813483          	ld	s1,24(sp)
    80003acc:	01013903          	ld	s2,16(sp)
    80003ad0:	00813983          	ld	s3,8(sp)
    80003ad4:	00013a03          	ld	s4,0(sp)
    80003ad8:	03010113          	addi	sp,sp,48
    80003adc:	00008067          	ret
    80003ae0:	00100513          	li	a0,1
    80003ae4:	fff40413          	addi	s0,s0,-1
    80003ae8:	f68fe0ef          	jal	ra,80002250 <_assert>
    80003aec:	03f47793          	andi	a5,s0,63
    80003af0:	fe0798e3          	bnez	a5,80003ae0 <o1heapInit+0x1a4>
    80003af4:	ed1ff06f          	j	800039c4 <o1heapInit+0x88>
    80003af8:	00000513          	li	a0,0
    80003afc:	00008067          	ret
    80003b00:	00100913          	li	s2,1
    80003b04:	00000993          	li	s3,0
    80003b08:	00100513          	li	a0,1
    80003b0c:	f65ff06f          	j	80003a70 <o1heapInit+0x134>
