
/mnt/d/verilog/difftest/riscv-tests/build/addw-riscv64-mycpu.elf:     file format elf64-littleriscv


Disassembly of section .text:

0000000080000000 <_start>:
    80000000:	00000093          	li	ra,0
    80000004:	00000113          	li	sp,0
    80000008:	0020873b          	addw	a4,ra,sp
    8000000c:	00000393          	li	t2,0
    80000010:	00200193          	li	gp,2
    80000014:	4c771663          	bne	a4,t2,800004e0 <fail>

0000000080000018 <test_3>:
    80000018:	00100093          	li	ra,1
    8000001c:	00100113          	li	sp,1
    80000020:	0020873b          	addw	a4,ra,sp
    80000024:	00200393          	li	t2,2
    80000028:	00300193          	li	gp,3
    8000002c:	4a771a63          	bne	a4,t2,800004e0 <fail>

0000000080000030 <test_4>:
    80000030:	00300093          	li	ra,3
    80000034:	00700113          	li	sp,7
    80000038:	0020873b          	addw	a4,ra,sp
    8000003c:	00a00393          	li	t2,10
    80000040:	00400193          	li	gp,4
    80000044:	48771e63          	bne	a4,t2,800004e0 <fail>

0000000080000048 <test_5>:
    80000048:	00000093          	li	ra,0
    8000004c:	ffff8137          	lui	sp,0xffff8
    80000050:	0020873b          	addw	a4,ra,sp
    80000054:	ffff83b7          	lui	t2,0xffff8
    80000058:	00500193          	li	gp,5
    8000005c:	48771263          	bne	a4,t2,800004e0 <fail>

0000000080000060 <test_6>:
    80000060:	800000b7          	lui	ra,0x80000
    80000064:	00000113          	li	sp,0
    80000068:	0020873b          	addw	a4,ra,sp
    8000006c:	800003b7          	lui	t2,0x80000
    80000070:	00600193          	li	gp,6
    80000074:	46771663          	bne	a4,t2,800004e0 <fail>

0000000080000078 <test_7>:
    80000078:	800000b7          	lui	ra,0x80000
    8000007c:	ffff8137          	lui	sp,0xffff8
    80000080:	0020873b          	addw	a4,ra,sp
    80000084:	7fff83b7          	lui	t2,0x7fff8
    80000088:	00700193          	li	gp,7
    8000008c:	44771a63          	bne	a4,t2,800004e0 <fail>

0000000080000090 <test_8>:
    80000090:	00000093          	li	ra,0
    80000094:	00008137          	lui	sp,0x8
    80000098:	fff1011b          	addiw	sp,sp,-1
    8000009c:	0020873b          	addw	a4,ra,sp
    800000a0:	000083b7          	lui	t2,0x8
    800000a4:	fff3839b          	addiw	t2,t2,-1
    800000a8:	00800193          	li	gp,8
    800000ac:	42771a63          	bne	a4,t2,800004e0 <fail>

00000000800000b0 <test_9>:
    800000b0:	800000b7          	lui	ra,0x80000
    800000b4:	fff0809b          	addiw	ra,ra,-1
    800000b8:	00000113          	li	sp,0
    800000bc:	0020873b          	addw	a4,ra,sp
    800000c0:	800003b7          	lui	t2,0x80000
    800000c4:	fff3839b          	addiw	t2,t2,-1
    800000c8:	00900193          	li	gp,9
    800000cc:	40771a63          	bne	a4,t2,800004e0 <fail>

00000000800000d0 <test_10>:
    800000d0:	800000b7          	lui	ra,0x80000
    800000d4:	fff0809b          	addiw	ra,ra,-1
    800000d8:	00008137          	lui	sp,0x8
    800000dc:	fff1011b          	addiw	sp,sp,-1
    800000e0:	0020873b          	addw	a4,ra,sp
    800000e4:	800083b7          	lui	t2,0x80008
    800000e8:	ffe3839b          	addiw	t2,t2,-2
    800000ec:	00a00193          	li	gp,10
    800000f0:	3e771863          	bne	a4,t2,800004e0 <fail>

00000000800000f4 <test_11>:
    800000f4:	800000b7          	lui	ra,0x80000
    800000f8:	00008137          	lui	sp,0x8
    800000fc:	fff1011b          	addiw	sp,sp,-1
    80000100:	0020873b          	addw	a4,ra,sp
    80000104:	800083b7          	lui	t2,0x80008
    80000108:	fff3839b          	addiw	t2,t2,-1
    8000010c:	00b00193          	li	gp,11
    80000110:	3c771863          	bne	a4,t2,800004e0 <fail>

0000000080000114 <test_12>:
    80000114:	800000b7          	lui	ra,0x80000
    80000118:	fff0809b          	addiw	ra,ra,-1
    8000011c:	ffff8137          	lui	sp,0xffff8
    80000120:	0020873b          	addw	a4,ra,sp
    80000124:	7fff83b7          	lui	t2,0x7fff8
    80000128:	fff3839b          	addiw	t2,t2,-1
    8000012c:	00c00193          	li	gp,12
    80000130:	3a771863          	bne	a4,t2,800004e0 <fail>

0000000080000134 <test_13>:
    80000134:	00000093          	li	ra,0
    80000138:	fff00113          	li	sp,-1
    8000013c:	0020873b          	addw	a4,ra,sp
    80000140:	fff00393          	li	t2,-1
    80000144:	00d00193          	li	gp,13
    80000148:	38771c63          	bne	a4,t2,800004e0 <fail>

000000008000014c <test_14>:
    8000014c:	fff00093          	li	ra,-1
    80000150:	00100113          	li	sp,1
    80000154:	0020873b          	addw	a4,ra,sp
    80000158:	00000393          	li	t2,0
    8000015c:	00e00193          	li	gp,14
    80000160:	38771063          	bne	a4,t2,800004e0 <fail>

0000000080000164 <test_15>:
    80000164:	fff00093          	li	ra,-1
    80000168:	fff00113          	li	sp,-1
    8000016c:	0020873b          	addw	a4,ra,sp
    80000170:	ffe00393          	li	t2,-2
    80000174:	00f00193          	li	gp,15
    80000178:	36771463          	bne	a4,t2,800004e0 <fail>

000000008000017c <test_16>:
    8000017c:	00100093          	li	ra,1
    80000180:	80000137          	lui	sp,0x80000
    80000184:	fff1011b          	addiw	sp,sp,-1
    80000188:	0020873b          	addw	a4,ra,sp
    8000018c:	800003b7          	lui	t2,0x80000
    80000190:	01000193          	li	gp,16
    80000194:	34771663          	bne	a4,t2,800004e0 <fail>

0000000080000198 <test_17>:
    80000198:	00d00093          	li	ra,13
    8000019c:	00b00113          	li	sp,11
    800001a0:	002080bb          	addw	ra,ra,sp
    800001a4:	01800393          	li	t2,24
    800001a8:	01100193          	li	gp,17
    800001ac:	32709a63          	bne	ra,t2,800004e0 <fail>

00000000800001b0 <test_18>:
    800001b0:	00e00093          	li	ra,14
    800001b4:	00b00113          	li	sp,11
    800001b8:	0020813b          	addw	sp,ra,sp
    800001bc:	01900393          	li	t2,25
    800001c0:	01200193          	li	gp,18
    800001c4:	30711e63          	bne	sp,t2,800004e0 <fail>

00000000800001c8 <test_19>:
    800001c8:	00d00093          	li	ra,13
    800001cc:	001080bb          	addw	ra,ra,ra
    800001d0:	01a00393          	li	t2,26
    800001d4:	01300193          	li	gp,19
    800001d8:	30709463          	bne	ra,t2,800004e0 <fail>

00000000800001dc <test_20>:
    800001dc:	00000213          	li	tp,0
    800001e0:	00d00093          	li	ra,13
    800001e4:	00b00113          	li	sp,11
    800001e8:	0020873b          	addw	a4,ra,sp
    800001ec:	00070313          	mv	t1,a4
    800001f0:	00120213          	addi	tp,tp,1 # 1 <_entry_offset+0x1>
    800001f4:	00200293          	li	t0,2
    800001f8:	fe5214e3          	bne	tp,t0,800001e0 <test_20+0x4>
    800001fc:	01800393          	li	t2,24
    80000200:	01400193          	li	gp,20
    80000204:	2c731e63          	bne	t1,t2,800004e0 <fail>

0000000080000208 <test_21>:
    80000208:	00000213          	li	tp,0
    8000020c:	00e00093          	li	ra,14
    80000210:	00b00113          	li	sp,11
    80000214:	0020873b          	addw	a4,ra,sp
    80000218:	00000013          	nop
    8000021c:	00070313          	mv	t1,a4
    80000220:	00120213          	addi	tp,tp,1 # 1 <_entry_offset+0x1>
    80000224:	00200293          	li	t0,2
    80000228:	fe5212e3          	bne	tp,t0,8000020c <test_21+0x4>
    8000022c:	01900393          	li	t2,25
    80000230:	01500193          	li	gp,21
    80000234:	2a731663          	bne	t1,t2,800004e0 <fail>

0000000080000238 <test_22>:
    80000238:	00000213          	li	tp,0
    8000023c:	00f00093          	li	ra,15
    80000240:	00b00113          	li	sp,11
    80000244:	0020873b          	addw	a4,ra,sp
    80000248:	00000013          	nop
    8000024c:	00000013          	nop
    80000250:	00070313          	mv	t1,a4
    80000254:	00120213          	addi	tp,tp,1 # 1 <_entry_offset+0x1>
    80000258:	00200293          	li	t0,2
    8000025c:	fe5210e3          	bne	tp,t0,8000023c <test_22+0x4>
    80000260:	01a00393          	li	t2,26
    80000264:	01600193          	li	gp,22
    80000268:	26731c63          	bne	t1,t2,800004e0 <fail>

000000008000026c <test_23>:
    8000026c:	00000213          	li	tp,0
    80000270:	00d00093          	li	ra,13
    80000274:	00b00113          	li	sp,11
    80000278:	0020873b          	addw	a4,ra,sp
    8000027c:	00120213          	addi	tp,tp,1 # 1 <_entry_offset+0x1>
    80000280:	00200293          	li	t0,2
    80000284:	fe5216e3          	bne	tp,t0,80000270 <test_23+0x4>
    80000288:	01800393          	li	t2,24
    8000028c:	01700193          	li	gp,23
    80000290:	24771863          	bne	a4,t2,800004e0 <fail>

0000000080000294 <test_24>:
    80000294:	00000213          	li	tp,0
    80000298:	00e00093          	li	ra,14
    8000029c:	00b00113          	li	sp,11
    800002a0:	00000013          	nop
    800002a4:	0020873b          	addw	a4,ra,sp
    800002a8:	00120213          	addi	tp,tp,1 # 1 <_entry_offset+0x1>
    800002ac:	00200293          	li	t0,2
    800002b0:	fe5214e3          	bne	tp,t0,80000298 <test_24+0x4>
    800002b4:	01900393          	li	t2,25
    800002b8:	01800193          	li	gp,24
    800002bc:	22771263          	bne	a4,t2,800004e0 <fail>

00000000800002c0 <test_25>:
    800002c0:	00000213          	li	tp,0
    800002c4:	00f00093          	li	ra,15
    800002c8:	00b00113          	li	sp,11
    800002cc:	00000013          	nop
    800002d0:	00000013          	nop
    800002d4:	0020873b          	addw	a4,ra,sp
    800002d8:	00120213          	addi	tp,tp,1 # 1 <_entry_offset+0x1>
    800002dc:	00200293          	li	t0,2
    800002e0:	fe5212e3          	bne	tp,t0,800002c4 <test_25+0x4>
    800002e4:	01a00393          	li	t2,26
    800002e8:	01900193          	li	gp,25
    800002ec:	1e771a63          	bne	a4,t2,800004e0 <fail>

00000000800002f0 <test_26>:
    800002f0:	00000213          	li	tp,0
    800002f4:	00d00093          	li	ra,13
    800002f8:	00000013          	nop
    800002fc:	00b00113          	li	sp,11
    80000300:	0020873b          	addw	a4,ra,sp
    80000304:	00120213          	addi	tp,tp,1 # 1 <_entry_offset+0x1>
    80000308:	00200293          	li	t0,2
    8000030c:	fe5214e3          	bne	tp,t0,800002f4 <test_26+0x4>
    80000310:	01800393          	li	t2,24
    80000314:	01a00193          	li	gp,26
    80000318:	1c771463          	bne	a4,t2,800004e0 <fail>

000000008000031c <test_27>:
    8000031c:	00000213          	li	tp,0
    80000320:	00e00093          	li	ra,14
    80000324:	00000013          	nop
    80000328:	00b00113          	li	sp,11
    8000032c:	00000013          	nop
    80000330:	0020873b          	addw	a4,ra,sp
    80000334:	00120213          	addi	tp,tp,1 # 1 <_entry_offset+0x1>
    80000338:	00200293          	li	t0,2
    8000033c:	fe5212e3          	bne	tp,t0,80000320 <test_27+0x4>
    80000340:	01900393          	li	t2,25
    80000344:	01b00193          	li	gp,27
    80000348:	18771c63          	bne	a4,t2,800004e0 <fail>

000000008000034c <test_28>:
    8000034c:	00000213          	li	tp,0
    80000350:	00f00093          	li	ra,15
    80000354:	00000013          	nop
    80000358:	00000013          	nop
    8000035c:	00b00113          	li	sp,11
    80000360:	0020873b          	addw	a4,ra,sp
    80000364:	00120213          	addi	tp,tp,1 # 1 <_entry_offset+0x1>
    80000368:	00200293          	li	t0,2
    8000036c:	fe5212e3          	bne	tp,t0,80000350 <test_28+0x4>
    80000370:	01a00393          	li	t2,26
    80000374:	01c00193          	li	gp,28
    80000378:	16771463          	bne	a4,t2,800004e0 <fail>

000000008000037c <test_29>:
    8000037c:	00000213          	li	tp,0
    80000380:	00b00113          	li	sp,11
    80000384:	00d00093          	li	ra,13
    80000388:	0020873b          	addw	a4,ra,sp
    8000038c:	00120213          	addi	tp,tp,1 # 1 <_entry_offset+0x1>
    80000390:	00200293          	li	t0,2
    80000394:	fe5216e3          	bne	tp,t0,80000380 <test_29+0x4>
    80000398:	01800393          	li	t2,24
    8000039c:	01d00193          	li	gp,29
    800003a0:	14771063          	bne	a4,t2,800004e0 <fail>

00000000800003a4 <test_30>:
    800003a4:	00000213          	li	tp,0
    800003a8:	00b00113          	li	sp,11
    800003ac:	00e00093          	li	ra,14
    800003b0:	00000013          	nop
    800003b4:	0020873b          	addw	a4,ra,sp
    800003b8:	00120213          	addi	tp,tp,1 # 1 <_entry_offset+0x1>
    800003bc:	00200293          	li	t0,2
    800003c0:	fe5214e3          	bne	tp,t0,800003a8 <test_30+0x4>
    800003c4:	01900393          	li	t2,25
    800003c8:	01e00193          	li	gp,30
    800003cc:	10771a63          	bne	a4,t2,800004e0 <fail>

00000000800003d0 <test_31>:
    800003d0:	00000213          	li	tp,0
    800003d4:	00b00113          	li	sp,11
    800003d8:	00f00093          	li	ra,15
    800003dc:	00000013          	nop
    800003e0:	00000013          	nop
    800003e4:	0020873b          	addw	a4,ra,sp
    800003e8:	00120213          	addi	tp,tp,1 # 1 <_entry_offset+0x1>
    800003ec:	00200293          	li	t0,2
    800003f0:	fe5212e3          	bne	tp,t0,800003d4 <test_31+0x4>
    800003f4:	01a00393          	li	t2,26
    800003f8:	01f00193          	li	gp,31
    800003fc:	0e771263          	bne	a4,t2,800004e0 <fail>

0000000080000400 <test_32>:
    80000400:	00000213          	li	tp,0
    80000404:	00b00113          	li	sp,11
    80000408:	00000013          	nop
    8000040c:	00d00093          	li	ra,13
    80000410:	0020873b          	addw	a4,ra,sp
    80000414:	00120213          	addi	tp,tp,1 # 1 <_entry_offset+0x1>
    80000418:	00200293          	li	t0,2
    8000041c:	fe5214e3          	bne	tp,t0,80000404 <test_32+0x4>
    80000420:	01800393          	li	t2,24
    80000424:	02000193          	li	gp,32
    80000428:	0a771c63          	bne	a4,t2,800004e0 <fail>

000000008000042c <test_33>:
    8000042c:	00000213          	li	tp,0
    80000430:	00b00113          	li	sp,11
    80000434:	00000013          	nop
    80000438:	00e00093          	li	ra,14
    8000043c:	00000013          	nop
    80000440:	0020873b          	addw	a4,ra,sp
    80000444:	00120213          	addi	tp,tp,1 # 1 <_entry_offset+0x1>
    80000448:	00200293          	li	t0,2
    8000044c:	fe5212e3          	bne	tp,t0,80000430 <test_33+0x4>
    80000450:	01900393          	li	t2,25
    80000454:	02100193          	li	gp,33
    80000458:	08771463          	bne	a4,t2,800004e0 <fail>

000000008000045c <test_34>:
    8000045c:	00000213          	li	tp,0
    80000460:	00b00113          	li	sp,11
    80000464:	00000013          	nop
    80000468:	00000013          	nop
    8000046c:	00f00093          	li	ra,15
    80000470:	0020873b          	addw	a4,ra,sp
    80000474:	00120213          	addi	tp,tp,1 # 1 <_entry_offset+0x1>
    80000478:	00200293          	li	t0,2
    8000047c:	fe5212e3          	bne	tp,t0,80000460 <test_34+0x4>
    80000480:	01a00393          	li	t2,26
    80000484:	02200193          	li	gp,34
    80000488:	04771c63          	bne	a4,t2,800004e0 <fail>

000000008000048c <test_35>:
    8000048c:	00f00093          	li	ra,15
    80000490:	0010013b          	addw	sp,zero,ra
    80000494:	00f00393          	li	t2,15
    80000498:	02300193          	li	gp,35
    8000049c:	04711263          	bne	sp,t2,800004e0 <fail>

00000000800004a0 <test_36>:
    800004a0:	02000093          	li	ra,32
    800004a4:	0000813b          	addw	sp,ra,zero
    800004a8:	02000393          	li	t2,32
    800004ac:	02400193          	li	gp,36
    800004b0:	02711863          	bne	sp,t2,800004e0 <fail>

00000000800004b4 <test_37>:
    800004b4:	000000bb          	addw	ra,zero,zero
    800004b8:	00000393          	li	t2,0
    800004bc:	02500193          	li	gp,37
    800004c0:	02709063          	bne	ra,t2,800004e0 <fail>

00000000800004c4 <test_38>:
    800004c4:	01000093          	li	ra,16
    800004c8:	01e00113          	li	sp,30
    800004cc:	0020803b          	addw	zero,ra,sp
    800004d0:	00000393          	li	t2,0
    800004d4:	02600193          	li	gp,38
    800004d8:	00701463          	bne	zero,t2,800004e0 <fail>
    800004dc:	00301663          	bne	zero,gp,800004e8 <pass>

00000000800004e0 <fail>:
    800004e0:	00100513          	li	a0,1
    800004e4:	0200006f          	j	80000504 <halt>

00000000800004e8 <pass>:
    800004e8:	00000513          	li	a0,0
    800004ec:	0180006f          	j	80000504 <halt>
    800004f0:	c0001073          	unimp
	...

0000000080000504 <halt>:
    80000504:	00050513          	mv	a0,a0
    80000508:	0000006b          	0x6b
    8000050c:	0000006f          	j	8000050c <halt+0x8>
