
/mnt/d/verilog/difftest/riscv-tests/build/sb-riscv64-mycpu.elf:     file format elf64-littleriscv


Disassembly of section .text:

0000000080000000 <_start>:
    80000000:	00000097          	auipc	ra,0x0
    80000004:	45008093          	addi	ra,ra,1104 # 80000450 <_etext>
    80000008:	faa00113          	li	sp,-86
    8000000c:	00208023          	sb	sp,0(ra)
    80000010:	00008703          	lb	a4,0(ra)
    80000014:	faa00393          	li	t2,-86
    80000018:	00200193          	li	gp,2
    8000001c:	3c771c63          	bne	a4,t2,800003f4 <fail>

0000000080000020 <test_3>:
    80000020:	00000097          	auipc	ra,0x0
    80000024:	43008093          	addi	ra,ra,1072 # 80000450 <_etext>
    80000028:	00000113          	li	sp,0
    8000002c:	002080a3          	sb	sp,1(ra)
    80000030:	00108703          	lb	a4,1(ra)
    80000034:	00000393          	li	t2,0
    80000038:	00300193          	li	gp,3
    8000003c:	3a771c63          	bne	a4,t2,800003f4 <fail>

0000000080000040 <test_4>:
    80000040:	00000097          	auipc	ra,0x0
    80000044:	41008093          	addi	ra,ra,1040 # 80000450 <_etext>
    80000048:	fffff137          	lui	sp,0xfffff
    8000004c:	fa01011b          	addiw	sp,sp,-96
    80000050:	00208123          	sb	sp,2(ra)
    80000054:	00209703          	lh	a4,2(ra)
    80000058:	fffff3b7          	lui	t2,0xfffff
    8000005c:	fa03839b          	addiw	t2,t2,-96
    80000060:	00400193          	li	gp,4
    80000064:	38771863          	bne	a4,t2,800003f4 <fail>

0000000080000068 <test_5>:
    80000068:	00000097          	auipc	ra,0x0
    8000006c:	3e808093          	addi	ra,ra,1000 # 80000450 <_etext>
    80000070:	00a00113          	li	sp,10
    80000074:	002081a3          	sb	sp,3(ra)
    80000078:	00308703          	lb	a4,3(ra)
    8000007c:	00a00393          	li	t2,10
    80000080:	00500193          	li	gp,5
    80000084:	36771863          	bne	a4,t2,800003f4 <fail>

0000000080000088 <test_6>:
    80000088:	00000097          	auipc	ra,0x0
    8000008c:	3cf08093          	addi	ra,ra,975 # 80000457 <tdat8>
    80000090:	faa00113          	li	sp,-86
    80000094:	fe208ea3          	sb	sp,-3(ra)
    80000098:	ffd08703          	lb	a4,-3(ra)
    8000009c:	faa00393          	li	t2,-86
    800000a0:	00600193          	li	gp,6
    800000a4:	34771863          	bne	a4,t2,800003f4 <fail>

00000000800000a8 <test_7>:
    800000a8:	00000097          	auipc	ra,0x0
    800000ac:	3af08093          	addi	ra,ra,943 # 80000457 <tdat8>
    800000b0:	00000113          	li	sp,0
    800000b4:	fe208f23          	sb	sp,-2(ra)
    800000b8:	ffe08703          	lb	a4,-2(ra)
    800000bc:	00000393          	li	t2,0
    800000c0:	00700193          	li	gp,7
    800000c4:	32771863          	bne	a4,t2,800003f4 <fail>

00000000800000c8 <test_8>:
    800000c8:	00000097          	auipc	ra,0x0
    800000cc:	38f08093          	addi	ra,ra,911 # 80000457 <tdat8>
    800000d0:	fa000113          	li	sp,-96
    800000d4:	fe208fa3          	sb	sp,-1(ra)
    800000d8:	fff08703          	lb	a4,-1(ra)
    800000dc:	fa000393          	li	t2,-96
    800000e0:	00800193          	li	gp,8
    800000e4:	30771863          	bne	a4,t2,800003f4 <fail>

00000000800000e8 <test_9>:
    800000e8:	00000097          	auipc	ra,0x0
    800000ec:	36f08093          	addi	ra,ra,879 # 80000457 <tdat8>
    800000f0:	00a00113          	li	sp,10
    800000f4:	00208023          	sb	sp,0(ra)
    800000f8:	00008703          	lb	a4,0(ra)
    800000fc:	00a00393          	li	t2,10
    80000100:	00900193          	li	gp,9
    80000104:	2e771863          	bne	a4,t2,800003f4 <fail>

0000000080000108 <test_10>:
    80000108:	00000097          	auipc	ra,0x0
    8000010c:	35008093          	addi	ra,ra,848 # 80000458 <tdat9>
    80000110:	12345137          	lui	sp,0x12345
    80000114:	6781011b          	addiw	sp,sp,1656
    80000118:	fe008213          	addi	tp,ra,-32
    8000011c:	02220023          	sb	sp,32(tp) # 20 <_entry_offset+0x20>
    80000120:	00008283          	lb	t0,0(ra)
    80000124:	07800393          	li	t2,120
    80000128:	00a00193          	li	gp,10
    8000012c:	2c729463          	bne	t0,t2,800003f4 <fail>

0000000080000130 <test_11>:
    80000130:	00000097          	auipc	ra,0x0
    80000134:	32808093          	addi	ra,ra,808 # 80000458 <tdat9>
    80000138:	00003137          	lui	sp,0x3
    8000013c:	0981011b          	addiw	sp,sp,152
    80000140:	ffa08093          	addi	ra,ra,-6
    80000144:	002083a3          	sb	sp,7(ra)
    80000148:	00000217          	auipc	tp,0x0
    8000014c:	31120213          	addi	tp,tp,785 # 80000459 <tdat10>
    80000150:	00020283          	lb	t0,0(tp) # 0 <_entry_offset>
    80000154:	f9800393          	li	t2,-104
    80000158:	00b00193          	li	gp,11
    8000015c:	28729c63          	bne	t0,t2,800003f4 <fail>

0000000080000160 <test_12>:
    80000160:	00c00193          	li	gp,12
    80000164:	00000213          	li	tp,0
    80000168:	fdd00093          	li	ra,-35
    8000016c:	00000117          	auipc	sp,0x0
    80000170:	2e410113          	addi	sp,sp,740 # 80000450 <_etext>
    80000174:	00110023          	sb	ra,0(sp)
    80000178:	00010703          	lb	a4,0(sp)
    8000017c:	fdd00393          	li	t2,-35
    80000180:	26771a63          	bne	a4,t2,800003f4 <fail>
    80000184:	00120213          	addi	tp,tp,1 # 1 <_entry_offset+0x1>
    80000188:	00200293          	li	t0,2
    8000018c:	fc521ee3          	bne	tp,t0,80000168 <test_12+0x8>

0000000080000190 <test_13>:
    80000190:	00d00193          	li	gp,13
    80000194:	00000213          	li	tp,0
    80000198:	fcd00093          	li	ra,-51
    8000019c:	00000117          	auipc	sp,0x0
    800001a0:	2b410113          	addi	sp,sp,692 # 80000450 <_etext>
    800001a4:	00000013          	nop
    800001a8:	001100a3          	sb	ra,1(sp)
    800001ac:	00110703          	lb	a4,1(sp)
    800001b0:	fcd00393          	li	t2,-51
    800001b4:	24771063          	bne	a4,t2,800003f4 <fail>
    800001b8:	00120213          	addi	tp,tp,1 # 1 <_entry_offset+0x1>
    800001bc:	00200293          	li	t0,2
    800001c0:	fc521ce3          	bne	tp,t0,80000198 <test_13+0x8>

00000000800001c4 <test_14>:
    800001c4:	00e00193          	li	gp,14
    800001c8:	00000213          	li	tp,0
    800001cc:	fcc00093          	li	ra,-52
    800001d0:	00000117          	auipc	sp,0x0
    800001d4:	28010113          	addi	sp,sp,640 # 80000450 <_etext>
    800001d8:	00000013          	nop
    800001dc:	00000013          	nop
    800001e0:	00110123          	sb	ra,2(sp)
    800001e4:	00210703          	lb	a4,2(sp)
    800001e8:	fcc00393          	li	t2,-52
    800001ec:	20771463          	bne	a4,t2,800003f4 <fail>
    800001f0:	00120213          	addi	tp,tp,1 # 1 <_entry_offset+0x1>
    800001f4:	00200293          	li	t0,2
    800001f8:	fc521ae3          	bne	tp,t0,800001cc <test_14+0x8>

00000000800001fc <test_15>:
    800001fc:	00f00193          	li	gp,15
    80000200:	00000213          	li	tp,0
    80000204:	fbc00093          	li	ra,-68
    80000208:	00000013          	nop
    8000020c:	00000117          	auipc	sp,0x0
    80000210:	24410113          	addi	sp,sp,580 # 80000450 <_etext>
    80000214:	001101a3          	sb	ra,3(sp)
    80000218:	00310703          	lb	a4,3(sp)
    8000021c:	fbc00393          	li	t2,-68
    80000220:	1c771a63          	bne	a4,t2,800003f4 <fail>
    80000224:	00120213          	addi	tp,tp,1 # 1 <_entry_offset+0x1>
    80000228:	00200293          	li	t0,2
    8000022c:	fc521ce3          	bne	tp,t0,80000204 <test_15+0x8>

0000000080000230 <test_16>:
    80000230:	01000193          	li	gp,16
    80000234:	00000213          	li	tp,0
    80000238:	fbb00093          	li	ra,-69
    8000023c:	00000013          	nop
    80000240:	00000117          	auipc	sp,0x0
    80000244:	21010113          	addi	sp,sp,528 # 80000450 <_etext>
    80000248:	00000013          	nop
    8000024c:	00110223          	sb	ra,4(sp)
    80000250:	00410703          	lb	a4,4(sp)
    80000254:	fbb00393          	li	t2,-69
    80000258:	18771e63          	bne	a4,t2,800003f4 <fail>
    8000025c:	00120213          	addi	tp,tp,1 # 1 <_entry_offset+0x1>
    80000260:	00200293          	li	t0,2
    80000264:	fc521ae3          	bne	tp,t0,80000238 <test_16+0x8>

0000000080000268 <test_17>:
    80000268:	01100193          	li	gp,17
    8000026c:	00000213          	li	tp,0
    80000270:	fab00093          	li	ra,-85
    80000274:	00000013          	nop
    80000278:	00000013          	nop
    8000027c:	00000117          	auipc	sp,0x0
    80000280:	1d410113          	addi	sp,sp,468 # 80000450 <_etext>
    80000284:	001102a3          	sb	ra,5(sp)
    80000288:	00510703          	lb	a4,5(sp)
    8000028c:	fab00393          	li	t2,-85
    80000290:	16771263          	bne	a4,t2,800003f4 <fail>
    80000294:	00120213          	addi	tp,tp,1 # 1 <_entry_offset+0x1>
    80000298:	00200293          	li	t0,2
    8000029c:	fc521ae3          	bne	tp,t0,80000270 <test_17+0x8>

00000000800002a0 <test_18>:
    800002a0:	01200193          	li	gp,18
    800002a4:	00000213          	li	tp,0
    800002a8:	00000117          	auipc	sp,0x0
    800002ac:	1a810113          	addi	sp,sp,424 # 80000450 <_etext>
    800002b0:	03300093          	li	ra,51
    800002b4:	00110023          	sb	ra,0(sp)
    800002b8:	00010703          	lb	a4,0(sp)
    800002bc:	03300393          	li	t2,51
    800002c0:	12771a63          	bne	a4,t2,800003f4 <fail>
    800002c4:	00120213          	addi	tp,tp,1 # 1 <_entry_offset+0x1>
    800002c8:	00200293          	li	t0,2
    800002cc:	fc521ee3          	bne	tp,t0,800002a8 <test_18+0x8>

00000000800002d0 <test_19>:
    800002d0:	01300193          	li	gp,19
    800002d4:	00000213          	li	tp,0
    800002d8:	00000117          	auipc	sp,0x0
    800002dc:	17810113          	addi	sp,sp,376 # 80000450 <_etext>
    800002e0:	02300093          	li	ra,35
    800002e4:	00000013          	nop
    800002e8:	001100a3          	sb	ra,1(sp)
    800002ec:	00110703          	lb	a4,1(sp)
    800002f0:	02300393          	li	t2,35
    800002f4:	10771063          	bne	a4,t2,800003f4 <fail>
    800002f8:	00120213          	addi	tp,tp,1 # 1 <_entry_offset+0x1>
    800002fc:	00200293          	li	t0,2
    80000300:	fc521ce3          	bne	tp,t0,800002d8 <test_19+0x8>

0000000080000304 <test_20>:
    80000304:	01400193          	li	gp,20
    80000308:	00000213          	li	tp,0
    8000030c:	00000117          	auipc	sp,0x0
    80000310:	14410113          	addi	sp,sp,324 # 80000450 <_etext>
    80000314:	02200093          	li	ra,34
    80000318:	00000013          	nop
    8000031c:	00000013          	nop
    80000320:	00110123          	sb	ra,2(sp)
    80000324:	00210703          	lb	a4,2(sp)
    80000328:	02200393          	li	t2,34
    8000032c:	0c771463          	bne	a4,t2,800003f4 <fail>
    80000330:	00120213          	addi	tp,tp,1 # 1 <_entry_offset+0x1>
    80000334:	00200293          	li	t0,2
    80000338:	fc521ae3          	bne	tp,t0,8000030c <test_20+0x8>

000000008000033c <test_21>:
    8000033c:	01500193          	li	gp,21
    80000340:	00000213          	li	tp,0
    80000344:	00000117          	auipc	sp,0x0
    80000348:	10c10113          	addi	sp,sp,268 # 80000450 <_etext>
    8000034c:	00000013          	nop
    80000350:	01200093          	li	ra,18
    80000354:	001101a3          	sb	ra,3(sp)
    80000358:	00310703          	lb	a4,3(sp)
    8000035c:	01200393          	li	t2,18
    80000360:	08771a63          	bne	a4,t2,800003f4 <fail>
    80000364:	00120213          	addi	tp,tp,1 # 1 <_entry_offset+0x1>
    80000368:	00200293          	li	t0,2
    8000036c:	fc521ce3          	bne	tp,t0,80000344 <test_21+0x8>

0000000080000370 <test_22>:
    80000370:	01600193          	li	gp,22
    80000374:	00000213          	li	tp,0
    80000378:	00000117          	auipc	sp,0x0
    8000037c:	0d810113          	addi	sp,sp,216 # 80000450 <_etext>
    80000380:	00000013          	nop
    80000384:	01100093          	li	ra,17
    80000388:	00000013          	nop
    8000038c:	00110223          	sb	ra,4(sp)
    80000390:	00410703          	lb	a4,4(sp)
    80000394:	01100393          	li	t2,17
    80000398:	04771e63          	bne	a4,t2,800003f4 <fail>
    8000039c:	00120213          	addi	tp,tp,1 # 1 <_entry_offset+0x1>
    800003a0:	00200293          	li	t0,2
    800003a4:	fc521ae3          	bne	tp,t0,80000378 <test_22+0x8>

00000000800003a8 <test_23>:
    800003a8:	01700193          	li	gp,23
    800003ac:	00000213          	li	tp,0
    800003b0:	00000117          	auipc	sp,0x0
    800003b4:	0a010113          	addi	sp,sp,160 # 80000450 <_etext>
    800003b8:	00000013          	nop
    800003bc:	00000013          	nop
    800003c0:	00100093          	li	ra,1
    800003c4:	001102a3          	sb	ra,5(sp)
    800003c8:	00510703          	lb	a4,5(sp)
    800003cc:	00100393          	li	t2,1
    800003d0:	02771263          	bne	a4,t2,800003f4 <fail>
    800003d4:	00120213          	addi	tp,tp,1 # 1 <_entry_offset+0x1>
    800003d8:	00200293          	li	t0,2
    800003dc:	fc521ae3          	bne	tp,t0,800003b0 <test_23+0x8>
    800003e0:	0ef00513          	li	a0,239
    800003e4:	00000597          	auipc	a1,0x0
    800003e8:	06c58593          	addi	a1,a1,108 # 80000450 <_etext>
    800003ec:	00a581a3          	sb	a0,3(a1)
    800003f0:	00301663          	bne	zero,gp,800003fc <pass>

00000000800003f4 <fail>:
    800003f4:	00100513          	li	a0,1
    800003f8:	04c0006f          	j	80000444 <halt>

00000000800003fc <pass>:
    800003fc:	00000513          	li	a0,0
    80000400:	0440006f          	j	80000444 <halt>
    80000404:	c0001073          	unimp
	...

0000000080000444 <halt>:
    80000444:	00050513          	mv	a0,a0
    80000448:	0000006b          	0x6b
    8000044c:	0000006f          	j	8000044c <halt+0x8>
