
/mnt/d/verilog/difftest/riscv-tests/build/sraiw-riscv64-mycpu.elf:     file format elf64-littleriscv


Disassembly of section .text:

0000000080000000 <_start>:
    80000000:	800000b7          	lui	ra,0x80000
    80000004:	4000d71b          	sraiw	a4,ra,0x0
    80000008:	800003b7          	lui	t2,0x80000
    8000000c:	00200193          	li	gp,2
    80000010:	36771463          	bne	a4,t2,80000378 <fail>

0000000080000014 <test_3>:
    80000014:	800000b7          	lui	ra,0x80000
    80000018:	4010d71b          	sraiw	a4,ra,0x1
    8000001c:	c00003b7          	lui	t2,0xc0000
    80000020:	00300193          	li	gp,3
    80000024:	34771a63          	bne	a4,t2,80000378 <fail>

0000000080000028 <test_4>:
    80000028:	800000b7          	lui	ra,0x80000
    8000002c:	4070d71b          	sraiw	a4,ra,0x7
    80000030:	ff0003b7          	lui	t2,0xff000
    80000034:	00400193          	li	gp,4
    80000038:	34771063          	bne	a4,t2,80000378 <fail>

000000008000003c <test_5>:
    8000003c:	800000b7          	lui	ra,0x80000
    80000040:	40e0d71b          	sraiw	a4,ra,0xe
    80000044:	fffe03b7          	lui	t2,0xfffe0
    80000048:	00500193          	li	gp,5
    8000004c:	32771663          	bne	a4,t2,80000378 <fail>

0000000080000050 <test_6>:
    80000050:	800000b7          	lui	ra,0x80000
    80000054:	0010809b          	addiw	ra,ra,1
    80000058:	41f0d71b          	sraiw	a4,ra,0x1f
    8000005c:	fff00393          	li	t2,-1
    80000060:	00600193          	li	gp,6
    80000064:	30771a63          	bne	a4,t2,80000378 <fail>

0000000080000068 <test_7>:
    80000068:	800000b7          	lui	ra,0x80000
    8000006c:	fff0809b          	addiw	ra,ra,-1
    80000070:	4000d71b          	sraiw	a4,ra,0x0
    80000074:	800003b7          	lui	t2,0x80000
    80000078:	fff3839b          	addiw	t2,t2,-1
    8000007c:	00700193          	li	gp,7
    80000080:	2e771c63          	bne	a4,t2,80000378 <fail>

0000000080000084 <test_8>:
    80000084:	800000b7          	lui	ra,0x80000
    80000088:	fff0809b          	addiw	ra,ra,-1
    8000008c:	4010d71b          	sraiw	a4,ra,0x1
    80000090:	400003b7          	lui	t2,0x40000
    80000094:	fff3839b          	addiw	t2,t2,-1
    80000098:	00800193          	li	gp,8
    8000009c:	2c771e63          	bne	a4,t2,80000378 <fail>

00000000800000a0 <test_9>:
    800000a0:	800000b7          	lui	ra,0x80000
    800000a4:	fff0809b          	addiw	ra,ra,-1
    800000a8:	4070d71b          	sraiw	a4,ra,0x7
    800000ac:	010003b7          	lui	t2,0x1000
    800000b0:	fff3839b          	addiw	t2,t2,-1
    800000b4:	00900193          	li	gp,9
    800000b8:	2c771063          	bne	a4,t2,80000378 <fail>

00000000800000bc <test_10>:
    800000bc:	800000b7          	lui	ra,0x80000
    800000c0:	fff0809b          	addiw	ra,ra,-1
    800000c4:	40e0d71b          	sraiw	a4,ra,0xe
    800000c8:	000203b7          	lui	t2,0x20
    800000cc:	fff3839b          	addiw	t2,t2,-1
    800000d0:	00a00193          	li	gp,10
    800000d4:	2a771263          	bne	a4,t2,80000378 <fail>

00000000800000d8 <test_11>:
    800000d8:	800000b7          	lui	ra,0x80000
    800000dc:	fff0809b          	addiw	ra,ra,-1
    800000e0:	41f0d71b          	sraiw	a4,ra,0x1f
    800000e4:	00000393          	li	t2,0
    800000e8:	00b00193          	li	gp,11
    800000ec:	28771663          	bne	a4,t2,80000378 <fail>

00000000800000f0 <test_12>:
    800000f0:	818180b7          	lui	ra,0x81818
    800000f4:	1810809b          	addiw	ra,ra,385
    800000f8:	4000d71b          	sraiw	a4,ra,0x0
    800000fc:	818183b7          	lui	t2,0x81818
    80000100:	1813839b          	addiw	t2,t2,385
    80000104:	00c00193          	li	gp,12
    80000108:	26771863          	bne	a4,t2,80000378 <fail>

000000008000010c <test_13>:
    8000010c:	818180b7          	lui	ra,0x81818
    80000110:	1810809b          	addiw	ra,ra,385
    80000114:	4010d71b          	sraiw	a4,ra,0x1
    80000118:	c0c0c3b7          	lui	t2,0xc0c0c
    8000011c:	0c03839b          	addiw	t2,t2,192
    80000120:	00d00193          	li	gp,13
    80000124:	24771a63          	bne	a4,t2,80000378 <fail>

0000000080000128 <test_14>:
    80000128:	818180b7          	lui	ra,0x81818
    8000012c:	1810809b          	addiw	ra,ra,385
    80000130:	4070d71b          	sraiw	a4,ra,0x7
    80000134:	ff0303b7          	lui	t2,0xff030
    80000138:	3033839b          	addiw	t2,t2,771
    8000013c:	00e00193          	li	gp,14
    80000140:	22771c63          	bne	a4,t2,80000378 <fail>

0000000080000144 <test_15>:
    80000144:	818180b7          	lui	ra,0x81818
    80000148:	1810809b          	addiw	ra,ra,385
    8000014c:	40e0d71b          	sraiw	a4,ra,0xe
    80000150:	fffe03b7          	lui	t2,0xfffe0
    80000154:	6063839b          	addiw	t2,t2,1542
    80000158:	00f00193          	li	gp,15
    8000015c:	20771e63          	bne	a4,t2,80000378 <fail>

0000000080000160 <test_16>:
    80000160:	818180b7          	lui	ra,0x81818
    80000164:	1810809b          	addiw	ra,ra,385
    80000168:	41f0d71b          	sraiw	a4,ra,0x1f
    8000016c:	fff00393          	li	t2,-1
    80000170:	01000193          	li	gp,16
    80000174:	20771263          	bne	a4,t2,80000378 <fail>

0000000080000178 <test_44>:
    80000178:	fff120b7          	lui	ra,0xfff12
    8000017c:	3450809b          	addiw	ra,ra,837
    80000180:	00c09093          	slli	ra,ra,0xc
    80000184:	67808093          	addi	ra,ra,1656 # fffffffffff12678 <_end+0xffffffff7ff09678>
    80000188:	4000d71b          	sraiw	a4,ra,0x0
    8000018c:	123453b7          	lui	t2,0x12345
    80000190:	6783839b          	addiw	t2,t2,1656
    80000194:	02c00193          	li	gp,44
    80000198:	1e771063          	bne	a4,t2,80000378 <fail>

000000008000019c <test_45>:
    8000019c:	fff120b7          	lui	ra,0xfff12
    800001a0:	3450809b          	addiw	ra,ra,837
    800001a4:	00c09093          	slli	ra,ra,0xc
    800001a8:	67808093          	addi	ra,ra,1656 # fffffffffff12678 <_end+0xffffffff7ff09678>
    800001ac:	4040d71b          	sraiw	a4,ra,0x4
    800001b0:	012343b7          	lui	t2,0x1234
    800001b4:	5673839b          	addiw	t2,t2,1383
    800001b8:	02d00193          	li	gp,45
    800001bc:	1a771e63          	bne	a4,t2,80000378 <fail>

00000000800001c0 <test_46>:
    800001c0:	000920b7          	lui	ra,0x92
    800001c4:	3450809b          	addiw	ra,ra,837
    800001c8:	00c09093          	slli	ra,ra,0xc
    800001cc:	67808093          	addi	ra,ra,1656 # 92678 <_entry_offset+0x92678>
    800001d0:	4000d71b          	sraiw	a4,ra,0x0
    800001d4:	923453b7          	lui	t2,0x92345
    800001d8:	6783839b          	addiw	t2,t2,1656
    800001dc:	02e00193          	li	gp,46
    800001e0:	18771c63          	bne	a4,t2,80000378 <fail>

00000000800001e4 <test_47>:
    800001e4:	000920b7          	lui	ra,0x92
    800001e8:	3450809b          	addiw	ra,ra,837
    800001ec:	00c09093          	slli	ra,ra,0xc
    800001f0:	67808093          	addi	ra,ra,1656 # 92678 <_entry_offset+0x92678>
    800001f4:	4040d71b          	sraiw	a4,ra,0x4
    800001f8:	f92343b7          	lui	t2,0xf9234
    800001fc:	5673839b          	addiw	t2,t2,1383
    80000200:	02f00193          	li	gp,47
    80000204:	16771a63          	bne	a4,t2,80000378 <fail>

0000000080000208 <test_17>:
    80000208:	800000b7          	lui	ra,0x80000
    8000020c:	4070d09b          	sraiw	ra,ra,0x7
    80000210:	ff0003b7          	lui	t2,0xff000
    80000214:	01100193          	li	gp,17
    80000218:	16709063          	bne	ra,t2,80000378 <fail>

000000008000021c <test_18>:
    8000021c:	00000213          	li	tp,0
    80000220:	800000b7          	lui	ra,0x80000
    80000224:	4070d71b          	sraiw	a4,ra,0x7
    80000228:	00070313          	mv	t1,a4
    8000022c:	00120213          	addi	tp,tp,1 # 1 <_entry_offset+0x1>
    80000230:	00200293          	li	t0,2
    80000234:	fe5216e3          	bne	tp,t0,80000220 <test_18+0x4>
    80000238:	ff0003b7          	lui	t2,0xff000
    8000023c:	01200193          	li	gp,18
    80000240:	12731c63          	bne	t1,t2,80000378 <fail>

0000000080000244 <test_19>:
    80000244:	00000213          	li	tp,0
    80000248:	800000b7          	lui	ra,0x80000
    8000024c:	40e0d71b          	sraiw	a4,ra,0xe
    80000250:	00000013          	nop
    80000254:	00070313          	mv	t1,a4
    80000258:	00120213          	addi	tp,tp,1 # 1 <_entry_offset+0x1>
    8000025c:	00200293          	li	t0,2
    80000260:	fe5214e3          	bne	tp,t0,80000248 <test_19+0x4>
    80000264:	fffe03b7          	lui	t2,0xfffe0
    80000268:	01300193          	li	gp,19
    8000026c:	10731663          	bne	t1,t2,80000378 <fail>

0000000080000270 <test_20>:
    80000270:	00000213          	li	tp,0
    80000274:	800000b7          	lui	ra,0x80000
    80000278:	0010809b          	addiw	ra,ra,1
    8000027c:	41f0d71b          	sraiw	a4,ra,0x1f
    80000280:	00000013          	nop
    80000284:	00000013          	nop
    80000288:	00070313          	mv	t1,a4
    8000028c:	00120213          	addi	tp,tp,1 # 1 <_entry_offset+0x1>
    80000290:	00200293          	li	t0,2
    80000294:	fe5210e3          	bne	tp,t0,80000274 <test_20+0x4>
    80000298:	fff00393          	li	t2,-1
    8000029c:	01400193          	li	gp,20
    800002a0:	0c731c63          	bne	t1,t2,80000378 <fail>

00000000800002a4 <test_21>:
    800002a4:	00000213          	li	tp,0
    800002a8:	800000b7          	lui	ra,0x80000
    800002ac:	4070d71b          	sraiw	a4,ra,0x7
    800002b0:	00120213          	addi	tp,tp,1 # 1 <_entry_offset+0x1>
    800002b4:	00200293          	li	t0,2
    800002b8:	fe5218e3          	bne	tp,t0,800002a8 <test_21+0x4>
    800002bc:	ff0003b7          	lui	t2,0xff000
    800002c0:	01500193          	li	gp,21
    800002c4:	0a771a63          	bne	a4,t2,80000378 <fail>

00000000800002c8 <test_22>:
    800002c8:	00000213          	li	tp,0
    800002cc:	800000b7          	lui	ra,0x80000
    800002d0:	00000013          	nop
    800002d4:	40e0d71b          	sraiw	a4,ra,0xe
    800002d8:	00120213          	addi	tp,tp,1 # 1 <_entry_offset+0x1>
    800002dc:	00200293          	li	t0,2
    800002e0:	fe5216e3          	bne	tp,t0,800002cc <test_22+0x4>
    800002e4:	fffe03b7          	lui	t2,0xfffe0
    800002e8:	01600193          	li	gp,22
    800002ec:	08771663          	bne	a4,t2,80000378 <fail>

00000000800002f0 <test_23>:
    800002f0:	00000213          	li	tp,0
    800002f4:	800000b7          	lui	ra,0x80000
    800002f8:	0010809b          	addiw	ra,ra,1
    800002fc:	00000013          	nop
    80000300:	00000013          	nop
    80000304:	41f0d71b          	sraiw	a4,ra,0x1f
    80000308:	00120213          	addi	tp,tp,1 # 1 <_entry_offset+0x1>
    8000030c:	00200293          	li	t0,2
    80000310:	fe5212e3          	bne	tp,t0,800002f4 <test_23+0x4>
    80000314:	fff00393          	li	t2,-1
    80000318:	01700193          	li	gp,23
    8000031c:	04771e63          	bne	a4,t2,80000378 <fail>

0000000080000320 <test_24>:
    80000320:	41f0509b          	sraiw	ra,zero,0x1f
    80000324:	00000393          	li	t2,0
    80000328:	01800193          	li	gp,24
    8000032c:	04709663          	bne	ra,t2,80000378 <fail>

0000000080000330 <test_25>:
    80000330:	01f00093          	li	ra,31
    80000334:	41c0d01b          	sraiw	zero,ra,0x1c
    80000338:	00000393          	li	t2,0
    8000033c:	01900193          	li	gp,25
    80000340:	02701c63          	bne	zero,t2,80000378 <fail>

0000000080000344 <test_26>:
    80000344:	0070009b          	addiw	ra,zero,7
    80000348:	03509093          	slli	ra,ra,0x35
    8000034c:	41c0d71b          	sraiw	a4,ra,0x1c
    80000350:	00000393          	li	t2,0
    80000354:	01a00193          	li	gp,26
    80000358:	02771063          	bne	a4,t2,80000378 <fail>

000000008000035c <test_27>:
    8000035c:	00f0009b          	addiw	ra,zero,15
    80000360:	01c09093          	slli	ra,ra,0x1c
    80000364:	4040d71b          	sraiw	a4,ra,0x4
    80000368:	ff0003b7          	lui	t2,0xff000
    8000036c:	01b00193          	li	gp,27
    80000370:	00771463          	bne	a4,t2,80000378 <fail>
    80000374:	00301663          	bne	zero,gp,80000380 <pass>

0000000080000378 <fail>:
    80000378:	00100513          	li	a0,1
    8000037c:	0480006f          	j	800003c4 <halt>

0000000080000380 <pass>:
    80000380:	00000513          	li	a0,0
    80000384:	0400006f          	j	800003c4 <halt>
    80000388:	c0001073          	unimp
	...

00000000800003c4 <halt>:
    800003c4:	00050513          	mv	a0,a0
    800003c8:	0000006b          	0x6b
    800003cc:	0000006f          	j	800003cc <halt+0x8>
