
/mnt/d/verilog/difftest/riscv-tests/build/srli-riscv64-mycpu.elf:     file format elf64-littleriscv


Disassembly of section .text:

0000000080000000 <_start>:
    80000000:	800000b7          	lui	ra,0x80000
    80000004:	0000d713          	srli	a4,ra,0x0
    80000008:	800003b7          	lui	t2,0x80000
    8000000c:	00200193          	li	gp,2
    80000010:	2e771663          	bne	a4,t2,800002fc <fail>

0000000080000014 <test_3>:
    80000014:	800000b7          	lui	ra,0x80000
    80000018:	0010d713          	srli	a4,ra,0x1
    8000001c:	0010039b          	addiw	t2,zero,1
    80000020:	02139393          	slli	t2,t2,0x21
    80000024:	fff38393          	addi	t2,t2,-1 # ffffffff7fffffff <_end+0xfffffffeffff6fff>
    80000028:	01e39393          	slli	t2,t2,0x1e
    8000002c:	00300193          	li	gp,3
    80000030:	2c771663          	bne	a4,t2,800002fc <fail>

0000000080000034 <test_4>:
    80000034:	800000b7          	lui	ra,0x80000
    80000038:	0070d713          	srli	a4,ra,0x7
    8000003c:	0010039b          	addiw	t2,zero,1
    80000040:	02139393          	slli	t2,t2,0x21
    80000044:	fff38393          	addi	t2,t2,-1
    80000048:	01839393          	slli	t2,t2,0x18
    8000004c:	00400193          	li	gp,4
    80000050:	2a771663          	bne	a4,t2,800002fc <fail>

0000000080000054 <test_5>:
    80000054:	800000b7          	lui	ra,0x80000
    80000058:	00e0d713          	srli	a4,ra,0xe
    8000005c:	0010039b          	addiw	t2,zero,1
    80000060:	02139393          	slli	t2,t2,0x21
    80000064:	fff38393          	addi	t2,t2,-1
    80000068:	01139393          	slli	t2,t2,0x11
    8000006c:	00500193          	li	gp,5
    80000070:	28771663          	bne	a4,t2,800002fc <fail>

0000000080000074 <test_6>:
    80000074:	800000b7          	lui	ra,0x80000
    80000078:	0010809b          	addiw	ra,ra,1
    8000007c:	01f0d713          	srli	a4,ra,0x1f
    80000080:	0010039b          	addiw	t2,zero,1
    80000084:	02139393          	slli	t2,t2,0x21
    80000088:	fff38393          	addi	t2,t2,-1
    8000008c:	00600193          	li	gp,6
    80000090:	26771663          	bne	a4,t2,800002fc <fail>

0000000080000094 <test_7>:
    80000094:	fff00093          	li	ra,-1
    80000098:	0000d713          	srli	a4,ra,0x0
    8000009c:	fff00393          	li	t2,-1
    800000a0:	00700193          	li	gp,7
    800000a4:	24771c63          	bne	a4,t2,800002fc <fail>

00000000800000a8 <test_8>:
    800000a8:	fff00093          	li	ra,-1
    800000ac:	0010d713          	srli	a4,ra,0x1
    800000b0:	fff0039b          	addiw	t2,zero,-1
    800000b4:	03f39393          	slli	t2,t2,0x3f
    800000b8:	fff38393          	addi	t2,t2,-1
    800000bc:	00800193          	li	gp,8
    800000c0:	22771e63          	bne	a4,t2,800002fc <fail>

00000000800000c4 <test_9>:
    800000c4:	fff00093          	li	ra,-1
    800000c8:	0070d713          	srli	a4,ra,0x7
    800000cc:	0010039b          	addiw	t2,zero,1
    800000d0:	03939393          	slli	t2,t2,0x39
    800000d4:	fff38393          	addi	t2,t2,-1
    800000d8:	00900193          	li	gp,9
    800000dc:	22771063          	bne	a4,t2,800002fc <fail>

00000000800000e0 <test_10>:
    800000e0:	fff00093          	li	ra,-1
    800000e4:	00e0d713          	srli	a4,ra,0xe
    800000e8:	0010039b          	addiw	t2,zero,1
    800000ec:	03239393          	slli	t2,t2,0x32
    800000f0:	fff38393          	addi	t2,t2,-1
    800000f4:	00a00193          	li	gp,10
    800000f8:	20771263          	bne	a4,t2,800002fc <fail>

00000000800000fc <test_11>:
    800000fc:	fff00093          	li	ra,-1
    80000100:	01f0d713          	srli	a4,ra,0x1f
    80000104:	0010039b          	addiw	t2,zero,1
    80000108:	02139393          	slli	t2,t2,0x21
    8000010c:	fff38393          	addi	t2,t2,-1
    80000110:	00b00193          	li	gp,11
    80000114:	1e771463          	bne	a4,t2,800002fc <fail>

0000000080000118 <test_12>:
    80000118:	212120b7          	lui	ra,0x21212
    8000011c:	1210809b          	addiw	ra,ra,289
    80000120:	0000d713          	srli	a4,ra,0x0
    80000124:	212123b7          	lui	t2,0x21212
    80000128:	1213839b          	addiw	t2,t2,289
    8000012c:	00c00193          	li	gp,12
    80000130:	1c771663          	bne	a4,t2,800002fc <fail>

0000000080000134 <test_13>:
    80000134:	212120b7          	lui	ra,0x21212
    80000138:	1210809b          	addiw	ra,ra,289
    8000013c:	0010d713          	srli	a4,ra,0x1
    80000140:	109093b7          	lui	t2,0x10909
    80000144:	0903839b          	addiw	t2,t2,144
    80000148:	00d00193          	li	gp,13
    8000014c:	1a771863          	bne	a4,t2,800002fc <fail>

0000000080000150 <test_14>:
    80000150:	212120b7          	lui	ra,0x21212
    80000154:	1210809b          	addiw	ra,ra,289
    80000158:	0070d713          	srli	a4,ra,0x7
    8000015c:	004243b7          	lui	t2,0x424
    80000160:	2423839b          	addiw	t2,t2,578
    80000164:	00e00193          	li	gp,14
    80000168:	18771a63          	bne	a4,t2,800002fc <fail>

000000008000016c <test_15>:
    8000016c:	212120b7          	lui	ra,0x21212
    80000170:	1210809b          	addiw	ra,ra,289
    80000174:	00e0d713          	srli	a4,ra,0xe
    80000178:	000083b7          	lui	t2,0x8
    8000017c:	4843839b          	addiw	t2,t2,1156
    80000180:	00f00193          	li	gp,15
    80000184:	16771c63          	bne	a4,t2,800002fc <fail>

0000000080000188 <test_16>:
    80000188:	212120b7          	lui	ra,0x21212
    8000018c:	1210809b          	addiw	ra,ra,289
    80000190:	01f0d713          	srli	a4,ra,0x1f
    80000194:	00000393          	li	t2,0
    80000198:	01000193          	li	gp,16
    8000019c:	16771063          	bne	a4,t2,800002fc <fail>

00000000800001a0 <test_17>:
    800001a0:	0010009b          	addiw	ra,zero,1
    800001a4:	01f09093          	slli	ra,ra,0x1f
    800001a8:	0070d093          	srli	ra,ra,0x7
    800001ac:	010003b7          	lui	t2,0x1000
    800001b0:	01100193          	li	gp,17
    800001b4:	14709463          	bne	ra,t2,800002fc <fail>

00000000800001b8 <test_18>:
    800001b8:	00000213          	li	tp,0
    800001bc:	0010009b          	addiw	ra,zero,1
    800001c0:	01f09093          	slli	ra,ra,0x1f
    800001c4:	0070d713          	srli	a4,ra,0x7
    800001c8:	00070313          	mv	t1,a4
    800001cc:	00120213          	addi	tp,tp,1 # 1 <_entry_offset+0x1>
    800001d0:	00200293          	li	t0,2
    800001d4:	fe5214e3          	bne	tp,t0,800001bc <test_18+0x4>
    800001d8:	010003b7          	lui	t2,0x1000
    800001dc:	01200193          	li	gp,18
    800001e0:	10731e63          	bne	t1,t2,800002fc <fail>

00000000800001e4 <test_19>:
    800001e4:	00000213          	li	tp,0
    800001e8:	0010009b          	addiw	ra,zero,1
    800001ec:	01f09093          	slli	ra,ra,0x1f
    800001f0:	00e0d713          	srli	a4,ra,0xe
    800001f4:	00000013          	nop
    800001f8:	00070313          	mv	t1,a4
    800001fc:	00120213          	addi	tp,tp,1 # 1 <_entry_offset+0x1>
    80000200:	00200293          	li	t0,2
    80000204:	fe5212e3          	bne	tp,t0,800001e8 <test_19+0x4>
    80000208:	000203b7          	lui	t2,0x20
    8000020c:	01300193          	li	gp,19
    80000210:	0e731663          	bne	t1,t2,800002fc <fail>

0000000080000214 <test_20>:
    80000214:	00000213          	li	tp,0
    80000218:	0010009b          	addiw	ra,zero,1
    8000021c:	01f09093          	slli	ra,ra,0x1f
    80000220:	00108093          	addi	ra,ra,1 # 21212001 <_entry_offset+0x21212001>
    80000224:	01f0d713          	srli	a4,ra,0x1f
    80000228:	00000013          	nop
    8000022c:	00000013          	nop
    80000230:	00070313          	mv	t1,a4
    80000234:	00120213          	addi	tp,tp,1 # 1 <_entry_offset+0x1>
    80000238:	00200293          	li	t0,2
    8000023c:	fc521ee3          	bne	tp,t0,80000218 <test_20+0x4>
    80000240:	00100393          	li	t2,1
    80000244:	01400193          	li	gp,20
    80000248:	0a731a63          	bne	t1,t2,800002fc <fail>

000000008000024c <test_21>:
    8000024c:	00000213          	li	tp,0
    80000250:	0010009b          	addiw	ra,zero,1
    80000254:	01f09093          	slli	ra,ra,0x1f
    80000258:	0070d713          	srli	a4,ra,0x7
    8000025c:	00120213          	addi	tp,tp,1 # 1 <_entry_offset+0x1>
    80000260:	00200293          	li	t0,2
    80000264:	fe5216e3          	bne	tp,t0,80000250 <test_21+0x4>
    80000268:	010003b7          	lui	t2,0x1000
    8000026c:	01500193          	li	gp,21
    80000270:	08771663          	bne	a4,t2,800002fc <fail>

0000000080000274 <test_22>:
    80000274:	00000213          	li	tp,0
    80000278:	0010009b          	addiw	ra,zero,1
    8000027c:	01f09093          	slli	ra,ra,0x1f
    80000280:	00000013          	nop
    80000284:	00e0d713          	srli	a4,ra,0xe
    80000288:	00120213          	addi	tp,tp,1 # 1 <_entry_offset+0x1>
    8000028c:	00200293          	li	t0,2
    80000290:	fe5214e3          	bne	tp,t0,80000278 <test_22+0x4>
    80000294:	000203b7          	lui	t2,0x20
    80000298:	01600193          	li	gp,22
    8000029c:	06771063          	bne	a4,t2,800002fc <fail>

00000000800002a0 <test_23>:
    800002a0:	00000213          	li	tp,0
    800002a4:	0010009b          	addiw	ra,zero,1
    800002a8:	01f09093          	slli	ra,ra,0x1f
    800002ac:	00108093          	addi	ra,ra,1
    800002b0:	00000013          	nop
    800002b4:	00000013          	nop
    800002b8:	01f0d713          	srli	a4,ra,0x1f
    800002bc:	00120213          	addi	tp,tp,1 # 1 <_entry_offset+0x1>
    800002c0:	00200293          	li	t0,2
    800002c4:	fe5210e3          	bne	tp,t0,800002a4 <test_23+0x4>
    800002c8:	00100393          	li	t2,1
    800002cc:	01700193          	li	gp,23
    800002d0:	02771663          	bne	a4,t2,800002fc <fail>

00000000800002d4 <test_24>:
    800002d4:	00405093          	srli	ra,zero,0x4
    800002d8:	00000393          	li	t2,0
    800002dc:	01800193          	li	gp,24
    800002e0:	00709e63          	bne	ra,t2,800002fc <fail>

00000000800002e4 <test_25>:
    800002e4:	02100093          	li	ra,33
    800002e8:	00a0d013          	srli	zero,ra,0xa
    800002ec:	00000393          	li	t2,0
    800002f0:	01900193          	li	gp,25
    800002f4:	00701463          	bne	zero,t2,800002fc <fail>
    800002f8:	00301663          	bne	zero,gp,80000304 <pass>

00000000800002fc <fail>:
    800002fc:	00100513          	li	a0,1
    80000300:	0440006f          	j	80000344 <halt>

0000000080000304 <pass>:
    80000304:	00000513          	li	a0,0
    80000308:	03c0006f          	j	80000344 <halt>
    8000030c:	c0001073          	unimp
	...

0000000080000344 <halt>:
    80000344:	00050513          	mv	a0,a0
    80000348:	0000006b          	0x6b
    8000034c:	0000006f          	j	8000034c <halt+0x8>
