
/mnt/d/verilog/difftest/riscv-tests/build/xori-riscv64-mycpu.elf:     file format elf64-littleriscv


Disassembly of section .text:

0000000080000000 <_start>:
    80000000:	00ff10b7          	lui	ra,0xff1
    80000004:	f000809b          	addiw	ra,ra,-256
    80000008:	f0f0c713          	xori	a4,ra,-241
    8000000c:	ff00f3b7          	lui	t2,0xff00f
    80000010:	00f3839b          	addiw	t2,t2,15
    80000014:	00200193          	li	gp,2
    80000018:	1c771663          	bne	a4,t2,800001e4 <fail>

000000008000001c <test_3>:
    8000001c:	0ff010b7          	lui	ra,0xff01
    80000020:	ff00809b          	addiw	ra,ra,-16
    80000024:	0f00c713          	xori	a4,ra,240
    80000028:	0ff013b7          	lui	t2,0xff01
    8000002c:	f003839b          	addiw	t2,t2,-256
    80000030:	00300193          	li	gp,3
    80000034:	1a771863          	bne	a4,t2,800001e4 <fail>

0000000080000038 <test_4>:
    80000038:	00ff10b7          	lui	ra,0xff1
    8000003c:	8ff0809b          	addiw	ra,ra,-1793
    80000040:	70f0c713          	xori	a4,ra,1807
    80000044:	00ff13b7          	lui	t2,0xff1
    80000048:	ff03839b          	addiw	t2,t2,-16
    8000004c:	00400193          	li	gp,4
    80000050:	18771a63          	bne	a4,t2,800001e4 <fail>

0000000080000054 <test_5>:
    80000054:	f00ff0b7          	lui	ra,0xf00ff
    80000058:	00f0809b          	addiw	ra,ra,15
    8000005c:	0f00c713          	xori	a4,ra,240
    80000060:	f00ff3b7          	lui	t2,0xf00ff
    80000064:	0ff3839b          	addiw	t2,t2,255
    80000068:	00500193          	li	gp,5
    8000006c:	16771c63          	bne	a4,t2,800001e4 <fail>

0000000080000070 <test_6>:
    80000070:	ff00f0b7          	lui	ra,0xff00f
    80000074:	7000809b          	addiw	ra,ra,1792
    80000078:	70f0c093          	xori	ra,ra,1807
    8000007c:	ff00f3b7          	lui	t2,0xff00f
    80000080:	00f3839b          	addiw	t2,t2,15
    80000084:	00600193          	li	gp,6
    80000088:	14709e63          	bne	ra,t2,800001e4 <fail>

000000008000008c <test_7>:
    8000008c:	00000213          	li	tp,0
    80000090:	0ff010b7          	lui	ra,0xff01
    80000094:	ff00809b          	addiw	ra,ra,-16
    80000098:	0f00c713          	xori	a4,ra,240
    8000009c:	00070313          	mv	t1,a4
    800000a0:	00120213          	addi	tp,tp,1 # 1 <_entry_offset+0x1>
    800000a4:	00200293          	li	t0,2
    800000a8:	fe5214e3          	bne	tp,t0,80000090 <test_7+0x4>
    800000ac:	0ff013b7          	lui	t2,0xff01
    800000b0:	f003839b          	addiw	t2,t2,-256
    800000b4:	00700193          	li	gp,7
    800000b8:	12731663          	bne	t1,t2,800001e4 <fail>

00000000800000bc <test_8>:
    800000bc:	00000213          	li	tp,0
    800000c0:	00ff10b7          	lui	ra,0xff1
    800000c4:	8ff0809b          	addiw	ra,ra,-1793
    800000c8:	70f0c713          	xori	a4,ra,1807
    800000cc:	00000013          	nop
    800000d0:	00070313          	mv	t1,a4
    800000d4:	00120213          	addi	tp,tp,1 # 1 <_entry_offset+0x1>
    800000d8:	00200293          	li	t0,2
    800000dc:	fe5212e3          	bne	tp,t0,800000c0 <test_8+0x4>
    800000e0:	00ff13b7          	lui	t2,0xff1
    800000e4:	ff03839b          	addiw	t2,t2,-16
    800000e8:	00800193          	li	gp,8
    800000ec:	0e731c63          	bne	t1,t2,800001e4 <fail>

00000000800000f0 <test_9>:
    800000f0:	00000213          	li	tp,0
    800000f4:	f00ff0b7          	lui	ra,0xf00ff
    800000f8:	00f0809b          	addiw	ra,ra,15
    800000fc:	0f00c713          	xori	a4,ra,240
    80000100:	00000013          	nop
    80000104:	00000013          	nop
    80000108:	00070313          	mv	t1,a4
    8000010c:	00120213          	addi	tp,tp,1 # 1 <_entry_offset+0x1>
    80000110:	00200293          	li	t0,2
    80000114:	fe5210e3          	bne	tp,t0,800000f4 <test_9+0x4>
    80000118:	f00ff3b7          	lui	t2,0xf00ff
    8000011c:	0ff3839b          	addiw	t2,t2,255
    80000120:	00900193          	li	gp,9
    80000124:	0c731063          	bne	t1,t2,800001e4 <fail>

0000000080000128 <test_10>:
    80000128:	00000213          	li	tp,0
    8000012c:	0ff010b7          	lui	ra,0xff01
    80000130:	ff00809b          	addiw	ra,ra,-16
    80000134:	0f00c713          	xori	a4,ra,240
    80000138:	00120213          	addi	tp,tp,1 # 1 <_entry_offset+0x1>
    8000013c:	00200293          	li	t0,2
    80000140:	fe5216e3          	bne	tp,t0,8000012c <test_10+0x4>
    80000144:	0ff013b7          	lui	t2,0xff01
    80000148:	f003839b          	addiw	t2,t2,-256
    8000014c:	00a00193          	li	gp,10
    80000150:	08771a63          	bne	a4,t2,800001e4 <fail>

0000000080000154 <test_11>:
    80000154:	00000213          	li	tp,0
    80000158:	00ff10b7          	lui	ra,0xff1
    8000015c:	fff0809b          	addiw	ra,ra,-1
    80000160:	00000013          	nop
    80000164:	00f0c713          	xori	a4,ra,15
    80000168:	00120213          	addi	tp,tp,1 # 1 <_entry_offset+0x1>
    8000016c:	00200293          	li	t0,2
    80000170:	fe5214e3          	bne	tp,t0,80000158 <test_11+0x4>
    80000174:	00ff13b7          	lui	t2,0xff1
    80000178:	ff03839b          	addiw	t2,t2,-16
    8000017c:	00b00193          	li	gp,11
    80000180:	06771263          	bne	a4,t2,800001e4 <fail>

0000000080000184 <test_12>:
    80000184:	00000213          	li	tp,0
    80000188:	f00ff0b7          	lui	ra,0xf00ff
    8000018c:	00f0809b          	addiw	ra,ra,15
    80000190:	00000013          	nop
    80000194:	00000013          	nop
    80000198:	0f00c713          	xori	a4,ra,240
    8000019c:	00120213          	addi	tp,tp,1 # 1 <_entry_offset+0x1>
    800001a0:	00200293          	li	t0,2
    800001a4:	fe5212e3          	bne	tp,t0,80000188 <test_12+0x4>
    800001a8:	f00ff3b7          	lui	t2,0xf00ff
    800001ac:	0ff3839b          	addiw	t2,t2,255
    800001b0:	00c00193          	li	gp,12
    800001b4:	02771863          	bne	a4,t2,800001e4 <fail>

00000000800001b8 <test_13>:
    800001b8:	0f004093          	xori	ra,zero,240
    800001bc:	0f000393          	li	t2,240
    800001c0:	00d00193          	li	gp,13
    800001c4:	02709063          	bne	ra,t2,800001e4 <fail>

00000000800001c8 <test_14>:
    800001c8:	00ff00b7          	lui	ra,0xff0
    800001cc:	0ff0809b          	addiw	ra,ra,255
    800001d0:	70f0c013          	xori	zero,ra,1807
    800001d4:	00000393          	li	t2,0
    800001d8:	00e00193          	li	gp,14
    800001dc:	00701463          	bne	zero,t2,800001e4 <fail>
    800001e0:	00301663          	bne	zero,gp,800001ec <pass>

00000000800001e4 <fail>:
    800001e4:	00100513          	li	a0,1
    800001e8:	01c0006f          	j	80000204 <halt>

00000000800001ec <pass>:
    800001ec:	00000513          	li	a0,0
    800001f0:	0140006f          	j	80000204 <halt>
    800001f4:	c0001073          	unimp
	...

0000000080000204 <halt>:
    80000204:	00050513          	mv	a0,a0
    80000208:	0000006b          	0x6b
    8000020c:	0000006f          	j	8000020c <halt+0x8>
