
/home/hzb/test/am-kernels/benchmarks/microbench/build/microbench-riscv64-mycpu.elf:     file format elf64-littleriscv


Disassembly of section .text:

0000000080000000 <_start>:
    80000000:	00000413          	li	s0,0
    80000004:	00010117          	auipc	sp,0x10
    80000008:	ffc10113          	addi	sp,sp,-4 # 80010000 <_end>
    8000000c:	0a5040ef          	jal	ra,800048b0 <_trm_init>

0000000080000010 <format_time>:
    80000010:	fd010113          	addi	sp,sp,-48
    80000014:	3e800593          	li	a1,1000
    80000018:	02813023          	sd	s0,32(sp)
    8000001c:	02113423          	sd	ra,40(sp)
    80000020:	00050413          	mv	s0,a0
    80000024:	00913c23          	sd	s1,24(sp)
    80000028:	01213823          	sd	s2,16(sp)
    8000002c:	01313423          	sd	s3,8(sp)
    80000030:	111040ef          	jal	ra,80004940 <__udivdi3>
    80000034:	0055179b          	slliw	a5,a0,0x5
    80000038:	40a787bb          	subw	a5,a5,a0
    8000003c:	0027979b          	slliw	a5,a5,0x2
    80000040:	00a787bb          	addw	a5,a5,a0
    80000044:	0037979b          	slliw	a5,a5,0x3
    80000048:	02079793          	slli	a5,a5,0x20
    8000004c:	0207d793          	srli	a5,a5,0x20
    80000050:	40f40433          	sub	s0,s0,a5
    80000054:	3e700793          	li	a5,999
    80000058:	0887e263          	bltu	a5,s0,800000dc <format_time+0xcc>
    8000005c:	00008497          	auipc	s1,0x8
    80000060:	88448493          	addi	s1,s1,-1916 # 800078e0 <buf.1583>
    80000064:	0005061b          	sext.w	a2,a0
    80000068:	00006597          	auipc	a1,0x6
    8000006c:	1d858593          	addi	a1,a1,472 # 80006240 <_etext+0x60>
    80000070:	00048513          	mv	a0,s1
    80000074:	669050ef          	jal	ra,80005edc <sprintf_>
    80000078:	fff5051b          	addiw	a0,a0,-1
    8000007c:	00a484b3          	add	s1,s1,a0
    80000080:	02040c63          	beqz	s0,800000b8 <format_time+0xa8>
    80000084:	00900993          	li	s3,9
    80000088:	00a00593          	li	a1,10
    8000008c:	00040513          	mv	a0,s0
    80000090:	0f9040ef          	jal	ra,80004988 <__umoddi3>
    80000094:	0305079b          	addiw	a5,a0,48
    80000098:	00f48023          	sb	a5,0(s1)
    8000009c:	00040513          	mv	a0,s0
    800000a0:	00a00593          	li	a1,10
    800000a4:	00040913          	mv	s2,s0
    800000a8:	099040ef          	jal	ra,80004940 <__udivdi3>
    800000ac:	fff48493          	addi	s1,s1,-1
    800000b0:	00050413          	mv	s0,a0
    800000b4:	fd29eae3          	bltu	s3,s2,80000088 <format_time+0x78>
    800000b8:	02813083          	ld	ra,40(sp)
    800000bc:	02013403          	ld	s0,32(sp)
    800000c0:	01813483          	ld	s1,24(sp)
    800000c4:	01013903          	ld	s2,16(sp)
    800000c8:	00813983          	ld	s3,8(sp)
    800000cc:	00008517          	auipc	a0,0x8
    800000d0:	81450513          	addi	a0,a0,-2028 # 800078e0 <buf.1583>
    800000d4:	03010113          	addi	sp,sp,48
    800000d8:	00008067          	ret
    800000dc:	01100613          	li	a2,17
    800000e0:	00006597          	auipc	a1,0x6
    800000e4:	10058593          	addi	a1,a1,256 # 800061e0 <_etext>
    800000e8:	00006517          	auipc	a0,0x6
    800000ec:	13850513          	addi	a0,a0,312 # 80006220 <_etext+0x40>
    800000f0:	599050ef          	jal	ra,80005e88 <printf_>
    800000f4:	00100513          	li	a0,1
    800000f8:	794040ef          	jal	ra,8000488c <halt>

00000000800000fc <main>:
    800000fc:	f5010113          	addi	sp,sp,-176
    80000100:	0a113423          	sd	ra,168(sp)
    80000104:	0a813023          	sd	s0,160(sp)
    80000108:	08913c23          	sd	s1,152(sp)
    8000010c:	09213823          	sd	s2,144(sp)
    80000110:	09313423          	sd	s3,136(sp)
    80000114:	09413023          	sd	s4,128(sp)
    80000118:	07513c23          	sd	s5,120(sp)
    8000011c:	07613823          	sd	s6,112(sp)
    80000120:	07713423          	sd	s7,104(sp)
    80000124:	07813023          	sd	s8,96(sp)
    80000128:	05913c23          	sd	s9,88(sp)
    8000012c:	05a13823          	sd	s10,80(sp)
    80000130:	05b13423          	sd	s11,72(sp)
    80000134:	30050c63          	beqz	a0,8000044c <main+0x350>
    80000138:	00006597          	auipc	a1,0x6
    8000013c:	1d858593          	addi	a1,a1,472 # 80006310 <_etext+0x130>
    80000140:	00050413          	mv	s0,a0
    80000144:	459040ef          	jal	ra,80004d9c <strcmp>
    80000148:	30050263          	beqz	a0,8000044c <main+0x350>
    8000014c:	00006597          	auipc	a1,0x6
    80000150:	13c58593          	addi	a1,a1,316 # 80006288 <_etext+0xa8>
    80000154:	00040513          	mv	a0,s0
    80000158:	445040ef          	jal	ra,80004d9c <strcmp>
    8000015c:	00a13423          	sd	a0,8(sp)
    80000160:	02050063          	beqz	a0,80000180 <main+0x84>
    80000164:	00006597          	auipc	a1,0x6
    80000168:	12c58593          	addi	a1,a1,300 # 80006290 <_etext+0xb0>
    8000016c:	00040513          	mv	a0,s0
    80000170:	42d040ef          	jal	ra,80004d9c <strcmp>
    80000174:	00100793          	li	a5,1
    80000178:	00f13423          	sd	a5,8(sp)
    8000017c:	34051663          	bnez	a0,800004c8 <main+0x3cc>
    80000180:	0fd040ef          	jal	ra,80004a7c <ioe_init>
    80000184:	00040593          	mv	a1,s0
    80000188:	00006517          	auipc	a0,0x6
    8000018c:	15850513          	addi	a0,a0,344 # 800062e0 <_etext+0x100>
    80000190:	4f9050ef          	jal	ra,80005e88 <printf_>
    80000194:	03810593          	addi	a1,sp,56
    80000198:	00600513          	li	a0,6
    8000019c:	135040ef          	jal	ra,80004ad0 <ioe_read>
    800001a0:	00813783          	ld	a5,8(sp)
    800001a4:	00007c17          	auipc	s8,0x7
    800001a8:	b94c0c13          	addi	s8,s8,-1132 # 80006d38 <benchmarks>
    800001ac:	00007b97          	auipc	s7,0x7
    800001b0:	21cb8b93          	addi	s7,s7,540 # 800073c8 <seed>
    800001b4:	00178993          	addi	s3,a5,1
    800001b8:	03813783          	ld	a5,56(sp)
    800001bc:	00599993          	slli	s3,s3,0x5
    800001c0:	fe098b13          	addi	s6,s3,-32
    800001c4:	02f13423          	sd	a5,40(sp)
    800001c8:	00100793          	li	a5,1
    800001cc:	00000d93          	li	s11,0
    800001d0:	00f13c23          	sd	a5,24(sp)
    800001d4:	02013023          	sd	zero,32(sp)
    800001d8:	00008497          	auipc	s1,0x8
    800001dc:	83848493          	addi	s1,s1,-1992 # 80007a10 <current>
    800001e0:	00008a97          	auipc	s5,0x8
    800001e4:	838a8a93          	addi	s5,s5,-1992 # 80007a18 <setting>
    800001e8:	00898993          	addi	s3,s3,8
    800001ec:	00007417          	auipc	s0,0x7
    800001f0:	2e440413          	addi	s0,s0,740 # 800074d0 <heap>
    800001f4:	00006a17          	auipc	s4,0x6
    800001f8:	124a0a13          	addi	s4,s4,292 # 80006318 <_etext+0x138>
    800001fc:	00006d17          	auipc	s10,0x6
    80000200:	12cd0d13          	addi	s10,s10,300 # 80006328 <_etext+0x148>
    80000204:	00006c97          	auipc	s9,0x6
    80000208:	13cc8c93          	addi	s9,s9,316 # 80006340 <_etext+0x160>
    8000020c:	01c0006f          	j	80000228 <main+0x12c>
    80000210:	479050ef          	jal	ra,80005e88 <printf_>
    80000214:	000d0593          	mv	a1,s10
    80000218:	000c8513          	mv	a0,s9
    8000021c:	0a8c0c13          	addi	s8,s8,168
    80000220:	469050ef          	jal	ra,80005e88 <printf_>
    80000224:	137c0a63          	beq	s8,s7,80000358 <main+0x25c>
    80000228:	00043603          	ld	a2,0(s0)
    8000022c:	00843703          	ld	a4,8(s0)
    80000230:	016c06b3          	add	a3,s8,s6
    80000234:	0306b683          	ld	a3,48(a3)
    80000238:	018985b3          	add	a1,s3,s8
    8000023c:	00bab023          	sd	a1,0(s5)
    80000240:	40c70733          	sub	a4,a4,a2
    80000244:	0184b023          	sd	s8,0(s1)
    80000248:	018c3583          	ld	a1,24(s8)
    8000024c:	020c3603          	ld	a2,32(s8)
    80000250:	000a0513          	mv	a0,s4
    80000254:	fad76ee3          	bltu	a4,a3,80000210 <main+0x114>
    80000258:	431050ef          	jal	ra,80005e88 <printf_>
    8000025c:	0004b683          	ld	a3,0(s1)
    80000260:	00043703          	ld	a4,0(s0)
    80000264:	00007797          	auipc	a5,0x7
    80000268:	69c78793          	addi	a5,a5,1692 # 80007900 <hbrk>
    8000026c:	0006b683          	ld	a3,0(a3)
    80000270:	00770713          	addi	a4,a4,7
    80000274:	ff877713          	andi	a4,a4,-8
    80000278:	00e7b023          	sd	a4,0(a5)
    8000027c:	000680e7          	jalr	a3
    80000280:	03810593          	addi	a1,sp,56
    80000284:	00600513          	li	a0,6
    80000288:	049040ef          	jal	ra,80004ad0 <ioe_read>
    8000028c:	0004b703          	ld	a4,0(s1)
    80000290:	03813903          	ld	s2,56(sp)
    80000294:	00873703          	ld	a4,8(a4)
    80000298:	000700e7          	jalr	a4
    8000029c:	03810593          	addi	a1,sp,56
    800002a0:	00600513          	li	a0,6
    800002a4:	02d040ef          	jal	ra,80004ad0 <ioe_read>
    800002a8:	0004b703          	ld	a4,0(s1)
    800002ac:	03813683          	ld	a3,56(sp)
    800002b0:	01073703          	ld	a4,16(a4)
    800002b4:	41268933          	sub	s2,a3,s2
    800002b8:	000700e7          	jalr	a4
    800002bc:	1c050663          	beqz	a0,80000488 <main+0x38c>
    800002c0:	00a13823          	sd	a0,16(sp)
    800002c4:	00006517          	auipc	a0,0x6
    800002c8:	08c50513          	addi	a0,a0,140 # 80006350 <_etext+0x170>
    800002cc:	3bd050ef          	jal	ra,80005e88 <printf_>
    800002d0:	01013703          	ld	a4,16(sp)
    800002d4:	00177713          	andi	a4,a4,1
    800002d8:	1a070e63          	beqz	a4,80000494 <main+0x398>
    800002dc:	00006517          	auipc	a0,0x6
    800002e0:	07c50513          	addi	a0,a0,124 # 80006358 <_etext+0x178>
    800002e4:	3a5050ef          	jal	ra,80005e88 <printf_>
    800002e8:	00013823          	sd	zero,16(sp)
    800002ec:	04090663          	beqz	s2,80000338 <main+0x23c>
    800002f0:	000ab703          	ld	a4,0(s5)
    800002f4:	00090593          	mv	a1,s2
    800002f8:	01073683          	ld	a3,16(a4)
    800002fc:	00169713          	slli	a4,a3,0x1
    80000300:	00d70733          	add	a4,a4,a3
    80000304:	00671513          	slli	a0,a4,0x6
    80000308:	00a70533          	add	a0,a4,a0
    8000030c:	00251513          	slli	a0,a0,0x2
    80000310:	00d50533          	add	a0,a0,a3
    80000314:	00251513          	slli	a0,a0,0x2
    80000318:	00d50533          	add	a0,a0,a3
    8000031c:	00551513          	slli	a0,a0,0x5
    80000320:	620040ef          	jal	ra,80004940 <__udivdi3>
    80000324:	0005079b          	sext.w	a5,a0
    80000328:	00f13823          	sd	a5,16(sp)
    8000032c:	02013783          	ld	a5,32(sp)
    80000330:	00f507bb          	addw	a5,a0,a5
    80000334:	02f13023          	sd	a5,32(sp)
    80000338:	00006517          	auipc	a0,0x6
    8000033c:	0b050513          	addi	a0,a0,176 # 800063e8 <_etext+0x208>
    80000340:	349050ef          	jal	ra,80005e88 <printf_>
    80000344:	00813783          	ld	a5,8(sp)
    80000348:	10079e63          	bnez	a5,80000464 <main+0x368>
    8000034c:	012d8db3          	add	s11,s11,s2
    80000350:	0a8c0c13          	addi	s8,s8,168
    80000354:	ed7c1ae3          	bne	s8,s7,80000228 <main+0x12c>
    80000358:	03810593          	addi	a1,sp,56
    8000035c:	00600513          	li	a0,6
    80000360:	770040ef          	jal	ra,80004ad0 <ioe_read>
    80000364:	02813783          	ld	a5,40(sp)
    80000368:	03813403          	ld	s0,56(sp)
    8000036c:	00006517          	auipc	a0,0x6
    80000370:	02450513          	addi	a0,a0,36 # 80006390 <_etext+0x1b0>
    80000374:	40f40433          	sub	s0,s0,a5
    80000378:	311050ef          	jal	ra,80005e88 <printf_>
    8000037c:	01813783          	ld	a5,24(sp)
    80000380:	00006597          	auipc	a1,0x6
    80000384:	ed058593          	addi	a1,a1,-304 # 80006250 <_etext+0x70>
    80000388:	12078263          	beqz	a5,800004ac <main+0x3b0>
    8000038c:	00006517          	auipc	a0,0x6
    80000390:	03c50513          	addi	a0,a0,60 # 800063c8 <_etext+0x1e8>
    80000394:	2f5050ef          	jal	ra,80005e88 <printf_>
    80000398:	00813703          	ld	a4,8(sp)
    8000039c:	00100793          	li	a5,1
    800003a0:	10e7dc63          	bge	a5,a4,800004b8 <main+0x3bc>
    800003a4:	02016503          	lwu	a0,32(sp)
    800003a8:	00a00593          	li	a1,10
    800003ac:	594040ef          	jal	ra,80004940 <__udivdi3>
    800003b0:	0005059b          	sext.w	a1,a0
    800003b4:	00006517          	auipc	a0,0x6
    800003b8:	02450513          	addi	a0,a0,36 # 800063d8 <_etext+0x1f8>
    800003bc:	2cd050ef          	jal	ra,80005e88 <printf_>
    800003c0:	000185b7          	lui	a1,0x18
    800003c4:	00006617          	auipc	a2,0x6
    800003c8:	02c60613          	addi	a2,a2,44 # 800063f0 <_etext+0x210>
    800003cc:	6a058593          	addi	a1,a1,1696 # 186a0 <_entry_offset+0x186a0>
    800003d0:	00006517          	auipc	a0,0x6
    800003d4:	03850513          	addi	a0,a0,56 # 80006408 <_etext+0x228>
    800003d8:	2b1050ef          	jal	ra,80005e88 <printf_>
    800003dc:	000d8513          	mv	a0,s11
    800003e0:	c31ff0ef          	jal	ra,80000010 <format_time>
    800003e4:	00050593          	mv	a1,a0
    800003e8:	00006517          	auipc	a0,0x6
    800003ec:	04850513          	addi	a0,a0,72 # 80006430 <_etext+0x250>
    800003f0:	299050ef          	jal	ra,80005e88 <printf_>
    800003f4:	00040513          	mv	a0,s0
    800003f8:	c19ff0ef          	jal	ra,80000010 <format_time>
    800003fc:	00050593          	mv	a1,a0
    80000400:	00006517          	auipc	a0,0x6
    80000404:	04850513          	addi	a0,a0,72 # 80006448 <_etext+0x268>
    80000408:	281050ef          	jal	ra,80005e88 <printf_>
    8000040c:	0a813083          	ld	ra,168(sp)
    80000410:	0a013403          	ld	s0,160(sp)
    80000414:	09813483          	ld	s1,152(sp)
    80000418:	09013903          	ld	s2,144(sp)
    8000041c:	08813983          	ld	s3,136(sp)
    80000420:	08013a03          	ld	s4,128(sp)
    80000424:	07813a83          	ld	s5,120(sp)
    80000428:	07013b03          	ld	s6,112(sp)
    8000042c:	06813b83          	ld	s7,104(sp)
    80000430:	06013c03          	ld	s8,96(sp)
    80000434:	05813c83          	ld	s9,88(sp)
    80000438:	05013d03          	ld	s10,80(sp)
    8000043c:	04813d83          	ld	s11,72(sp)
    80000440:	00000513          	li	a0,0
    80000444:	0b010113          	addi	sp,sp,176
    80000448:	00008067          	ret
    8000044c:	00006517          	auipc	a0,0x6
    80000450:	e1450513          	addi	a0,a0,-492 # 80006260 <_etext+0x80>
    80000454:	235050ef          	jal	ra,80005e88 <printf_>
    80000458:	00006417          	auipc	s0,0x6
    8000045c:	df040413          	addi	s0,s0,-528 # 80006248 <_etext+0x68>
    80000460:	cedff06f          	j	8000014c <main+0x50>
    80000464:	00090513          	mv	a0,s2
    80000468:	ba9ff0ef          	jal	ra,80000010 <format_time>
    8000046c:	01013603          	ld	a2,16(sp)
    80000470:	00050593          	mv	a1,a0
    80000474:	00006517          	auipc	a0,0x6
    80000478:	f0450513          	addi	a0,a0,-252 # 80006378 <_etext+0x198>
    8000047c:	20d050ef          	jal	ra,80005e88 <printf_>
    80000480:	012d8db3          	add	s11,s11,s2
    80000484:	ecdff06f          	j	80000350 <main+0x254>
    80000488:	00006517          	auipc	a0,0x6
    8000048c:	fd850513          	addi	a0,a0,-40 # 80006460 <_etext+0x280>
    80000490:	1f9050ef          	jal	ra,80005e88 <printf_>
    80000494:	00006517          	auipc	a0,0x6
    80000498:	ed450513          	addi	a0,a0,-300 # 80006368 <_etext+0x188>
    8000049c:	1ed050ef          	jal	ra,80005e88 <printf_>
    800004a0:	00013c23          	sd	zero,24(sp)
    800004a4:	00013823          	sd	zero,16(sp)
    800004a8:	e91ff06f          	j	80000338 <main+0x23c>
    800004ac:	00006597          	auipc	a1,0x6
    800004b0:	dac58593          	addi	a1,a1,-596 # 80006258 <_etext+0x78>
    800004b4:	ed9ff06f          	j	8000038c <main+0x290>
    800004b8:	00006517          	auipc	a0,0x6
    800004bc:	f3050513          	addi	a0,a0,-208 # 800063e8 <_etext+0x208>
    800004c0:	1c9050ef          	jal	ra,80005e88 <printf_>
    800004c4:	f19ff06f          	j	800003dc <main+0x2e0>
    800004c8:	00006597          	auipc	a1,0x6
    800004cc:	d8058593          	addi	a1,a1,-640 # 80006248 <_etext+0x68>
    800004d0:	00040513          	mv	a0,s0
    800004d4:	0c9040ef          	jal	ra,80004d9c <strcmp>
    800004d8:	00200793          	li	a5,2
    800004dc:	00f13423          	sd	a5,8(sp)
    800004e0:	ca0500e3          	beqz	a0,80000180 <main+0x84>
    800004e4:	00006597          	auipc	a1,0x6
    800004e8:	db458593          	addi	a1,a1,-588 # 80006298 <_etext+0xb8>
    800004ec:	00040513          	mv	a0,s0
    800004f0:	0ad040ef          	jal	ra,80004d9c <strcmp>
    800004f4:	00300793          	li	a5,3
    800004f8:	00f13423          	sd	a5,8(sp)
    800004fc:	c80502e3          	beqz	a0,80000180 <main+0x84>
    80000500:	00040593          	mv	a1,s0
    80000504:	00006517          	auipc	a0,0x6
    80000508:	d9c50513          	addi	a0,a0,-612 # 800062a0 <_etext+0xc0>
    8000050c:	17d050ef          	jal	ra,80005e88 <printf_>
    80000510:	00100513          	li	a0,1
    80000514:	378040ef          	jal	ra,8000488c <halt>

0000000080000518 <bench_alloc>:
    80000518:	00007597          	auipc	a1,0x7
    8000051c:	3e858593          	addi	a1,a1,1000 # 80007900 <hbrk>
    80000520:	0005b683          	ld	a3,0(a1)
    80000524:	00750713          	addi	a4,a0,7
    80000528:	00007797          	auipc	a5,0x7
    8000052c:	fa878793          	addi	a5,a5,-88 # 800074d0 <heap>
    80000530:	ff010113          	addi	sp,sp,-16
    80000534:	ff877713          	andi	a4,a4,-8
    80000538:	0007b603          	ld	a2,0(a5)
    8000053c:	00113423          	sd	ra,8(sp)
    80000540:	00e68733          	add	a4,a3,a4
    80000544:	00e5b023          	sd	a4,0(a1)
    80000548:	04c76263          	bltu	a4,a2,8000058c <bench_alloc+0x74>
    8000054c:	0087b783          	ld	a5,8(a5)
    80000550:	02f77e63          	bgeu	a4,a5,8000058c <bench_alloc+0x74>
    80000554:	00068793          	mv	a5,a3
    80000558:	00d70863          	beq	a4,a3,80000568 <bench_alloc+0x50>
    8000055c:	0007b023          	sd	zero,0(a5)
    80000560:	00878793          	addi	a5,a5,8
    80000564:	fef71ce3          	bne	a4,a5,8000055c <bench_alloc+0x44>
    80000568:	00007797          	auipc	a5,0x7
    8000056c:	4b07b783          	ld	a5,1200(a5) # 80007a18 <setting>
    80000570:	0087b783          	ld	a5,8(a5)
    80000574:	40c70733          	sub	a4,a4,a2
    80000578:	02e7ea63          	bltu	a5,a4,800005ac <bench_alloc+0x94>
    8000057c:	00813083          	ld	ra,8(sp)
    80000580:	00068513          	mv	a0,a3
    80000584:	01010113          	addi	sp,sp,16
    80000588:	00008067          	ret
    8000058c:	0a100613          	li	a2,161
    80000590:	00006597          	auipc	a1,0x6
    80000594:	c5058593          	addi	a1,a1,-944 # 800061e0 <_etext>
    80000598:	00006517          	auipc	a0,0x6
    8000059c:	c8850513          	addi	a0,a0,-888 # 80006220 <_etext+0x40>
    800005a0:	0e9050ef          	jal	ra,80005e88 <printf_>
    800005a4:	00100513          	li	a0,1
    800005a8:	2e4040ef          	jal	ra,8000488c <halt>
    800005ac:	0a500613          	li	a2,165
    800005b0:	fe1ff06f          	j	80000590 <bench_alloc+0x78>

00000000800005b4 <bench_srand>:
    800005b4:	03151513          	slli	a0,a0,0x31
    800005b8:	03155513          	srli	a0,a0,0x31
    800005bc:	00007797          	auipc	a5,0x7
    800005c0:	e0a7a623          	sw	a0,-500(a5) # 800073c8 <seed>
    800005c4:	00008067          	ret

00000000800005c8 <bench_rand>:
    800005c8:	00007697          	auipc	a3,0x7
    800005cc:	e0068693          	addi	a3,a3,-512 # 800073c8 <seed>
    800005d0:	0006a703          	lw	a4,0(a3)
    800005d4:	0017179b          	slliw	a5,a4,0x1
    800005d8:	00e787bb          	addw	a5,a5,a4
    800005dc:	0027979b          	slliw	a5,a5,0x2
    800005e0:	00e787bb          	addw	a5,a5,a4
    800005e4:	0047979b          	slliw	a5,a5,0x4
    800005e8:	00e787bb          	addw	a5,a5,a4
    800005ec:	0087979b          	slliw	a5,a5,0x8
    800005f0:	40e787bb          	subw	a5,a5,a4
    800005f4:	0027979b          	slliw	a5,a5,0x2
    800005f8:	00e787bb          	addw	a5,a5,a4
    800005fc:	0026a737          	lui	a4,0x26a
    80000600:	ec37071b          	addiw	a4,a4,-317
    80000604:	00e787bb          	addw	a5,a5,a4
    80000608:	02179513          	slli	a0,a5,0x21
    8000060c:	00f6a023          	sw	a5,0(a3)
    80000610:	03155513          	srli	a0,a0,0x31
    80000614:	00008067          	ret

0000000080000618 <checksum>:
    80000618:	00450613          	addi	a2,a0,4
    8000061c:	08b67063          	bgeu	a2,a1,8000069c <checksum+0x84>
    80000620:	811ca737          	lui	a4,0x811ca
    80000624:	dc570713          	addi	a4,a4,-571 # ffffffff811c9dc5 <_end+0xffffffff011b9dc5>
    80000628:	00050693          	mv	a3,a0
    8000062c:	0006c783          	lbu	a5,0(a3)
    80000630:	00168693          	addi	a3,a3,1
    80000634:	00f74733          	xor	a4,a4,a5
    80000638:	00f7179b          	slliw	a5,a4,0xf
    8000063c:	00e787bb          	addw	a5,a5,a4
    80000640:	0027979b          	slliw	a5,a5,0x2
    80000644:	40e787bb          	subw	a5,a5,a4
    80000648:	0037979b          	slliw	a5,a5,0x3
    8000064c:	00e787bb          	addw	a5,a5,a4
    80000650:	0027979b          	slliw	a5,a5,0x2
    80000654:	00e787bb          	addw	a5,a5,a4
    80000658:	0027979b          	slliw	a5,a5,0x2
    8000065c:	40e7873b          	subw	a4,a5,a4
    80000660:	fcd616e3          	bne	a2,a3,8000062c <checksum+0x14>
    80000664:	00460613          	addi	a2,a2,4
    80000668:	00450513          	addi	a0,a0,4
    8000066c:	fab66ee3          	bltu	a2,a1,80000628 <checksum+0x10>
    80000670:	00d7151b          	slliw	a0,a4,0xd
    80000674:	00e5073b          	addw	a4,a0,a4
    80000678:	4077551b          	sraiw	a0,a4,0x7
    8000067c:	00a74733          	xor	a4,a4,a0
    80000680:	0037151b          	slliw	a0,a4,0x3
    80000684:	00e5053b          	addw	a0,a0,a4
    80000688:	4115579b          	sraiw	a5,a0,0x11
    8000068c:	00f54533          	xor	a0,a0,a5
    80000690:	0055179b          	slliw	a5,a0,0x5
    80000694:	00a7853b          	addw	a0,a5,a0
    80000698:	00008067          	ret
    8000069c:	a6f00537          	lui	a0,0xa6f00
    800006a0:	79e50513          	addi	a0,a0,1950 # ffffffffa6f0079e <_end+0xffffffff26ef079e>
    800006a4:	00008067          	ret

00000000800006a8 <_ZN5Dinic3DFSEii>:
    800006a8:	00c52783          	lw	a5,12(a0)
    800006ac:	fc010113          	addi	sp,sp,-64
    800006b0:	01413823          	sd	s4,16(sp)
    800006b4:	01513423          	sd	s5,8(sp)
    800006b8:	02113c23          	sd	ra,56(sp)
    800006bc:	02813823          	sd	s0,48(sp)
    800006c0:	02913423          	sd	s1,40(sp)
    800006c4:	03213023          	sd	s2,32(sp)
    800006c8:	01313c23          	sd	s3,24(sp)
    800006cc:	01613023          	sd	s6,0(sp)
    800006d0:	00060a13          	mv	s4,a2
    800006d4:	00060a93          	mv	s5,a2
    800006d8:	0cb78663          	beq	a5,a1,800007a4 <_ZN5Dinic3DFSEii+0xfc>
    800006dc:	00000a93          	li	s5,0
    800006e0:	0c060263          	beqz	a2,800007a4 <_ZN5Dinic3DFSEii+0xfc>
    800006e4:	03053783          	ld	a5,48(a0)
    800006e8:	00259993          	slli	s3,a1,0x2
    800006ec:	fff00713          	li	a4,-1
    800006f0:	013787b3          	add	a5,a5,s3
    800006f4:	0007a403          	lw	s0,0(a5)
    800006f8:	00050913          	mv	s2,a0
    800006fc:	0ae40463          	beq	s0,a4,800007a4 <_ZN5Dinic3DFSEii+0xfc>
    80000700:	fff00b13          	li	s6,-1
    80000704:	0180006f          	j	8000071c <_ZN5Dinic3DFSEii+0x74>
    80000708:	02093783          	ld	a5,32(s2)
    8000070c:	00241413          	slli	s0,s0,0x2
    80000710:	00878433          	add	s0,a5,s0
    80000714:	00042403          	lw	s0,0(s0)
    80000718:	09640663          	beq	s0,s6,800007a4 <_ZN5Dinic3DFSEii+0xfc>
    8000071c:	01093703          	ld	a4,16(s2)
    80000720:	00441493          	slli	s1,s0,0x4
    80000724:	02893783          	ld	a5,40(s2)
    80000728:	009704b3          	add	s1,a4,s1
    8000072c:	0044a583          	lw	a1,4(s1)
    80000730:	01378733          	add	a4,a5,s3
    80000734:	00072703          	lw	a4,0(a4)
    80000738:	00259693          	slli	a3,a1,0x2
    8000073c:	00d787b3          	add	a5,a5,a3
    80000740:	0007a683          	lw	a3,0(a5)
    80000744:	0017079b          	addiw	a5,a4,1
    80000748:	fcd790e3          	bne	a5,a3,80000708 <_ZN5Dinic3DFSEii+0x60>
    8000074c:	0084a603          	lw	a2,8(s1)
    80000750:	00c4a783          	lw	a5,12(s1)
    80000754:	00090513          	mv	a0,s2
    80000758:	40f607bb          	subw	a5,a2,a5
    8000075c:	00078613          	mv	a2,a5
    80000760:	00fa5463          	bge	s4,a5,80000768 <_ZN5Dinic3DFSEii+0xc0>
    80000764:	000a061b          	sext.w	a2,s4
    80000768:	f41ff0ef          	jal	ra,800006a8 <_ZN5Dinic3DFSEii>
    8000076c:	00144793          	xori	a5,s0,1
    80000770:	00479793          	slli	a5,a5,0x4
    80000774:	f8a05ae3          	blez	a0,80000708 <_ZN5Dinic3DFSEii+0x60>
    80000778:	00c4a683          	lw	a3,12(s1)
    8000077c:	01093703          	ld	a4,16(s2)
    80000780:	40aa0a3b          	subw	s4,s4,a0
    80000784:	00a686bb          	addw	a3,a3,a0
    80000788:	00d4a623          	sw	a3,12(s1)
    8000078c:	00f707b3          	add	a5,a4,a5
    80000790:	00c7a703          	lw	a4,12(a5)
    80000794:	01550abb          	addw	s5,a0,s5
    80000798:	40a7053b          	subw	a0,a4,a0
    8000079c:	00a7a623          	sw	a0,12(a5)
    800007a0:	f60a14e3          	bnez	s4,80000708 <_ZN5Dinic3DFSEii+0x60>
    800007a4:	03813083          	ld	ra,56(sp)
    800007a8:	03013403          	ld	s0,48(sp)
    800007ac:	02813483          	ld	s1,40(sp)
    800007b0:	02013903          	ld	s2,32(sp)
    800007b4:	01813983          	ld	s3,24(sp)
    800007b8:	01013a03          	ld	s4,16(sp)
    800007bc:	00013b03          	ld	s6,0(sp)
    800007c0:	000a8513          	mv	a0,s5
    800007c4:	00813a83          	ld	s5,8(sp)
    800007c8:	04010113          	addi	sp,sp,64
    800007cc:	00008067          	ret

00000000800007d0 <bench_dinic_prepare>:
    800007d0:	00007797          	auipc	a5,0x7
    800007d4:	2487b783          	ld	a5,584(a5) # 80007a18 <setting>
    800007d8:	0007a783          	lw	a5,0(a5)
    800007dc:	fa010113          	addi	sp,sp,-96
    800007e0:	05213023          	sd	s2,64(sp)
    800007e4:	00100513          	li	a0,1
    800007e8:	00007917          	auipc	s2,0x7
    800007ec:	12890913          	addi	s2,s2,296 # 80007910 <_ZL1N>
    800007f0:	04113c23          	sd	ra,88(sp)
    800007f4:	00f92023          	sw	a5,0(s2)
    800007f8:	04913423          	sd	s1,72(sp)
    800007fc:	03313c23          	sd	s3,56(sp)
    80000800:	03413823          	sd	s4,48(sp)
    80000804:	03513423          	sd	s5,40(sp)
    80000808:	03613023          	sd	s6,32(sp)
    8000080c:	01713c23          	sd	s7,24(sp)
    80000810:	01813823          	sd	s8,16(sp)
    80000814:	04813823          	sd	s0,80(sp)
    80000818:	01913423          	sd	s9,8(sp)
    8000081c:	01a13023          	sd	s10,0(sp)
    80000820:	d95ff0ef          	jal	ra,800005b4 <bench_srand>
    80000824:	04800513          	li	a0,72
    80000828:	00092b03          	lw	s6,0(s2)
    8000082c:	cedff0ef          	jal	ra,80000518 <bench_alloc>
    80000830:	00092783          	lw	a5,0(s2)
    80000834:	00007997          	auipc	s3,0x7
    80000838:	0d498993          	addi	s3,s3,212 # 80007908 <_ZL1G>
    8000083c:	00050493          	mv	s1,a0
    80000840:	0017879b          	addiw	a5,a5,1
    80000844:	00179c1b          	slliw	s8,a5,0x1
    80000848:	ffec0a1b          	addiw	s4,s8,-2
    8000084c:	401a559b          	sraiw	a1,s4,0x1
    80000850:	00058a13          	mv	s4,a1
    80000854:	00a9b023          	sd	a0,0(s3)
    80000858:	00058513          	mv	a0,a1
    8000085c:	078040ef          	jal	ra,800048d4 <__muldi3>
    80000860:	001a1a1b          	slliw	s4,s4,0x1
    80000864:	00aa0a3b          	addw	s4,s4,a0
    80000868:	001a1a1b          	slliw	s4,s4,0x1
    8000086c:	004a1513          	slli	a0,s4,0x4
    80000870:	002c1a93          	slli	s5,s8,0x2
    80000874:	ca5ff0ef          	jal	ra,80000518 <bench_alloc>
    80000878:	00a4b823          	sd	a0,16(s1)
    8000087c:	000a8513          	mv	a0,s5
    80000880:	c99ff0ef          	jal	ra,80000518 <bench_alloc>
    80000884:	00a4bc23          	sd	a0,24(s1)
    80000888:	002a1513          	slli	a0,s4,0x2
    8000088c:	c8dff0ef          	jal	ra,80000518 <bench_alloc>
    80000890:	02a4b023          	sd	a0,32(s1)
    80000894:	000c0513          	mv	a0,s8
    80000898:	c81ff0ef          	jal	ra,80000518 <bench_alloc>
    8000089c:	04a4b023          	sd	a0,64(s1)
    800008a0:	000a8513          	mv	a0,s5
    800008a4:	c75ff0ef          	jal	ra,80000518 <bench_alloc>
    800008a8:	02a4b423          	sd	a0,40(s1)
    800008ac:	000a8513          	mv	a0,s5
    800008b0:	c69ff0ef          	jal	ra,80000518 <bench_alloc>
    800008b4:	02a4b823          	sd	a0,48(s1)
    800008b8:	000a8513          	mv	a0,s5
    800008bc:	c5dff0ef          	jal	ra,80000518 <bench_alloc>
    800008c0:	001b1b9b          	slliw	s7,s6,0x1
    800008c4:	02a4bc23          	sd	a0,56(s1)
    800008c8:	0184a023          	sw	s8,0(s1)
    800008cc:	001b8b1b          	addiw	s6,s7,1
    800008d0:	03805863          	blez	s8,80000900 <bench_dinic_prepare+0x130>
    800008d4:	fffc071b          	addiw	a4,s8,-1
    800008d8:	02071713          	slli	a4,a4,0x20
    800008dc:	0184b783          	ld	a5,24(s1)
    800008e0:	02075713          	srli	a4,a4,0x20
    800008e4:	00170713          	addi	a4,a4,1
    800008e8:	00271713          	slli	a4,a4,0x2
    800008ec:	00f70733          	add	a4,a4,a5
    800008f0:	fff00693          	li	a3,-1
    800008f4:	00d7a023          	sw	a3,0(a5)
    800008f8:	00478793          	addi	a5,a5,4
    800008fc:	fee79ce3          	bne	a5,a4,800008f4 <bench_dinic_prepare+0x124>
    80000900:	00092c83          	lw	s9,0(s2)
    80000904:	0004a223          	sw	zero,4(s1)
    80000908:	27905c63          	blez	s9,80000b80 <bench_dinic_prepare+0x3b0>
    8000090c:	00000a93          	li	s5,0
    80000910:	00000493          	li	s1,0
    80000914:	002a9a13          	slli	s4,s5,0x2
    80000918:	00000c13          	li	s8,0
    8000091c:	0d905463          	blez	s9,800009e4 <bench_dinic_prepare+0x214>
    80000920:	0009b403          	ld	s0,0(s3)
    80000924:	ca5ff0ef          	jal	ra,800005c8 <bench_rand>
    80000928:	02051513          	slli	a0,a0,0x20
    8000092c:	00a00593          	li	a1,10
    80000930:	02055513          	srli	a0,a0,0x20
    80000934:	054040ef          	jal	ra,80004988 <__umoddi3>
    80000938:	018c873b          	addw	a4,s9,s8
    8000093c:	0005051b          	sext.w	a0,a0
    80000940:	00092c83          	lw	s9,0(s2)
    80000944:	00070813          	mv	a6,a4
    80000948:	00271593          	slli	a1,a4,0x2
    8000094c:	001c0c1b          	addiw	s8,s8,1
    80000950:	08050863          	beqz	a0,800009e0 <bench_dinic_prepare+0x210>
    80000954:	00442703          	lw	a4,4(s0)
    80000958:	01043783          	ld	a5,16(s0)
    8000095c:	01843603          	ld	a2,24(s0)
    80000960:	00471693          	slli	a3,a4,0x4
    80000964:	00d786b3          	add	a3,a5,a3
    80000968:	0096a023          	sw	s1,0(a3)
    8000096c:	00a6a423          	sw	a0,8(a3)
    80000970:	0106a223          	sw	a6,4(a3)
    80000974:	0006a623          	sw	zero,12(a3)
    80000978:	01460533          	add	a0,a2,s4
    8000097c:	02043683          	ld	a3,32(s0)
    80000980:	00052883          	lw	a7,0(a0)
    80000984:	00271713          	slli	a4,a4,0x2
    80000988:	00e68733          	add	a4,a3,a4
    8000098c:	01172023          	sw	a7,0(a4)
    80000990:	00442883          	lw	a7,4(s0)
    80000994:	00b60733          	add	a4,a2,a1
    80000998:	0018861b          	addiw	a2,a7,1
    8000099c:	00c42223          	sw	a2,4(s0)
    800009a0:	01152023          	sw	a7,0(a0)
    800009a4:	00442603          	lw	a2,4(s0)
    800009a8:	00461593          	slli	a1,a2,0x4
    800009ac:	00b787b3          	add	a5,a5,a1
    800009b0:	0107a023          	sw	a6,0(a5)
    800009b4:	0097a223          	sw	s1,4(a5)
    800009b8:	0007a423          	sw	zero,8(a5)
    800009bc:	0007a623          	sw	zero,12(a5)
    800009c0:	00072783          	lw	a5,0(a4)
    800009c4:	00261613          	slli	a2,a2,0x2
    800009c8:	00c686b3          	add	a3,a3,a2
    800009cc:	00f6a023          	sw	a5,0(a3)
    800009d0:	00442783          	lw	a5,4(s0)
    800009d4:	0017869b          	addiw	a3,a5,1
    800009d8:	00d42223          	sw	a3,4(s0)
    800009dc:	00f72023          	sw	a5,0(a4)
    800009e0:	f59c40e3          	blt	s8,s9,80000920 <bench_dinic_prepare+0x150>
    800009e4:	001a8a93          	addi	s5,s5,1
    800009e8:	000a849b          	sext.w	s1,s5
    800009ec:	f394c4e3          	blt	s1,s9,80000914 <bench_dinic_prepare+0x144>
    800009f0:	19905863          	blez	s9,80000b80 <bench_dinic_prepare+0x3b0>
    800009f4:	002b9a93          	slli	s5,s7,0x2
    800009f8:	002b1a13          	slli	s4,s6,0x2
    800009fc:	00000c13          	li	s8,0
    80000a00:	00000c93          	li	s9,0
    80000a04:	0009b483          	ld	s1,0(s3)
    80000a08:	bc1ff0ef          	jal	ra,800005c8 <bench_rand>
    80000a0c:	02051513          	slli	a0,a0,0x20
    80000a10:	3e800593          	li	a1,1000
    80000a14:	02055513          	srli	a0,a0,0x20
    80000a18:	771030ef          	jal	ra,80004988 <__umoddi3>
    80000a1c:	0005051b          	sext.w	a0,a0
    80000a20:	002c1813          	slli	a6,s8,0x2
    80000a24:	0009b403          	ld	s0,0(s3)
    80000a28:	00092d03          	lw	s10,0(s2)
    80000a2c:	001c0c13          	addi	s8,s8,1
    80000a30:	08050863          	beqz	a0,80000ac0 <bench_dinic_prepare+0x2f0>
    80000a34:	0044a703          	lw	a4,4(s1)
    80000a38:	0104b783          	ld	a5,16(s1)
    80000a3c:	0184b603          	ld	a2,24(s1)
    80000a40:	00471693          	slli	a3,a4,0x4
    80000a44:	00d786b3          	add	a3,a5,a3
    80000a48:	0176a023          	sw	s7,0(a3)
    80000a4c:	0196a223          	sw	s9,4(a3)
    80000a50:	00a6a423          	sw	a0,8(a3)
    80000a54:	0006a623          	sw	zero,12(a3)
    80000a58:	015605b3          	add	a1,a2,s5
    80000a5c:	0204b683          	ld	a3,32(s1)
    80000a60:	0005a503          	lw	a0,0(a1)
    80000a64:	00271713          	slli	a4,a4,0x2
    80000a68:	00e68733          	add	a4,a3,a4
    80000a6c:	00a72023          	sw	a0,0(a4)
    80000a70:	0044a503          	lw	a0,4(s1)
    80000a74:	01060733          	add	a4,a2,a6
    80000a78:	0015061b          	addiw	a2,a0,1
    80000a7c:	00c4a223          	sw	a2,4(s1)
    80000a80:	00a5a023          	sw	a0,0(a1)
    80000a84:	0044a603          	lw	a2,4(s1)
    80000a88:	00461593          	slli	a1,a2,0x4
    80000a8c:	00b787b3          	add	a5,a5,a1
    80000a90:	0197a023          	sw	s9,0(a5)
    80000a94:	0177a223          	sw	s7,4(a5)
    80000a98:	0007a423          	sw	zero,8(a5)
    80000a9c:	0007a623          	sw	zero,12(a5)
    80000aa0:	00072783          	lw	a5,0(a4)
    80000aa4:	00261613          	slli	a2,a2,0x2
    80000aa8:	00c686b3          	add	a3,a3,a2
    80000aac:	00f6a023          	sw	a5,0(a3)
    80000ab0:	0044a783          	lw	a5,4(s1)
    80000ab4:	0017869b          	addiw	a3,a5,1
    80000ab8:	00d4a223          	sw	a3,4(s1)
    80000abc:	00f72023          	sw	a5,0(a4)
    80000ac0:	b09ff0ef          	jal	ra,800005c8 <bench_rand>
    80000ac4:	02051513          	slli	a0,a0,0x20
    80000ac8:	3e800593          	li	a1,1000
    80000acc:	02055513          	srli	a0,a0,0x20
    80000ad0:	6b9030ef          	jal	ra,80004988 <__umoddi3>
    80000ad4:	019d07bb          	addw	a5,s10,s9
    80000ad8:	0005051b          	sext.w	a0,a0
    80000adc:	00078813          	mv	a6,a5
    80000ae0:	00092883          	lw	a7,0(s2)
    80000ae4:	00279793          	slli	a5,a5,0x2
    80000ae8:	000c0c9b          	sext.w	s9,s8
    80000aec:	08050863          	beqz	a0,80000b7c <bench_dinic_prepare+0x3ac>
    80000af0:	00442683          	lw	a3,4(s0)
    80000af4:	01043703          	ld	a4,16(s0)
    80000af8:	01843583          	ld	a1,24(s0)
    80000afc:	00469613          	slli	a2,a3,0x4
    80000b00:	00c70633          	add	a2,a4,a2
    80000b04:	01062023          	sw	a6,0(a2)
    80000b08:	01662223          	sw	s6,4(a2)
    80000b0c:	00a62423          	sw	a0,8(a2)
    80000b10:	00062623          	sw	zero,12(a2)
    80000b14:	00f587b3          	add	a5,a1,a5
    80000b18:	02043603          	ld	a2,32(s0)
    80000b1c:	0007a503          	lw	a0,0(a5)
    80000b20:	00269693          	slli	a3,a3,0x2
    80000b24:	00d606b3          	add	a3,a2,a3
    80000b28:	00a6a023          	sw	a0,0(a3)
    80000b2c:	00442503          	lw	a0,4(s0)
    80000b30:	014586b3          	add	a3,a1,s4
    80000b34:	0015059b          	addiw	a1,a0,1
    80000b38:	00b42223          	sw	a1,4(s0)
    80000b3c:	00a7a023          	sw	a0,0(a5)
    80000b40:	00442583          	lw	a1,4(s0)
    80000b44:	00459793          	slli	a5,a1,0x4
    80000b48:	00f707b3          	add	a5,a4,a5
    80000b4c:	0167a023          	sw	s6,0(a5)
    80000b50:	0107a223          	sw	a6,4(a5)
    80000b54:	0007a423          	sw	zero,8(a5)
    80000b58:	0007a623          	sw	zero,12(a5)
    80000b5c:	0006a783          	lw	a5,0(a3)
    80000b60:	00259593          	slli	a1,a1,0x2
    80000b64:	00b60633          	add	a2,a2,a1
    80000b68:	00f62023          	sw	a5,0(a2)
    80000b6c:	00442783          	lw	a5,4(s0)
    80000b70:	0017871b          	addiw	a4,a5,1
    80000b74:	00e42223          	sw	a4,4(s0)
    80000b78:	00f6a023          	sw	a5,0(a3)
    80000b7c:	e91cc4e3          	blt	s9,a7,80000a04 <bench_dinic_prepare+0x234>
    80000b80:	05813083          	ld	ra,88(sp)
    80000b84:	05013403          	ld	s0,80(sp)
    80000b88:	04813483          	ld	s1,72(sp)
    80000b8c:	04013903          	ld	s2,64(sp)
    80000b90:	03813983          	ld	s3,56(sp)
    80000b94:	03013a03          	ld	s4,48(sp)
    80000b98:	02813a83          	ld	s5,40(sp)
    80000b9c:	02013b03          	ld	s6,32(sp)
    80000ba0:	01813b83          	ld	s7,24(sp)
    80000ba4:	01013c03          	ld	s8,16(sp)
    80000ba8:	00813c83          	ld	s9,8(sp)
    80000bac:	00013d03          	ld	s10,0(sp)
    80000bb0:	06010113          	addi	sp,sp,96
    80000bb4:	00008067          	ret

0000000080000bb8 <bench_dinic_run>:
    80000bb8:	f3010113          	addi	sp,sp,-208
    80000bbc:	0c813023          	sd	s0,192(sp)
    80000bc0:	00007717          	auipc	a4,0x7
    80000bc4:	d5072703          	lw	a4,-688(a4) # 80007910 <_ZL1N>
    80000bc8:	00007417          	auipc	s0,0x7
    80000bcc:	d4043403          	ld	s0,-704(s0) # 80007908 <_ZL1G>
    80000bd0:	00171f1b          	slliw	t5,a4,0x1
    80000bd4:	04043683          	ld	a3,64(s0)
    80000bd8:	03843583          	ld	a1,56(s0)
    80000bdc:	02843783          	ld	a5,40(s0)
    80000be0:	01843503          	ld	a0,24(s0)
    80000be4:	09513c23          	sd	s5,152(sp)
    80000be8:	0c113423          	sd	ra,200(sp)
    80000bec:	0a913c23          	sd	s1,184(sp)
    80000bf0:	0b213823          	sd	s2,176(sp)
    80000bf4:	0b313423          	sd	s3,168(sp)
    80000bf8:	0b413023          	sd	s4,160(sp)
    80000bfc:	09613823          	sd	s6,144(sp)
    80000c00:	09713423          	sd	s7,136(sp)
    80000c04:	09813023          	sd	s8,128(sp)
    80000c08:	07913c23          	sd	s9,120(sp)
    80000c0c:	07a13823          	sd	s10,112(sp)
    80000c10:	07b13423          	sd	s11,104(sp)
    80000c14:	001f061b          	addiw	a2,t5,1
    80000c18:	002f1713          	slli	a4,t5,0x2
    80000c1c:	01e42423          	sw	t5,8(s0)
    80000c20:	00c42623          	sw	a2,12(s0)
    80000c24:	00e13023          	sd	a4,0(sp)
    80000c28:	000f0893          	mv	a7,t5
    80000c2c:	00000813          	li	a6,0
    80000c30:	fff00a93          	li	s5,-1
    80000c34:	00042703          	lw	a4,0(s0)
    80000c38:	02e05463          	blez	a4,80000c60 <bench_dinic_run+0xa8>
    80000c3c:	fff7071b          	addiw	a4,a4,-1
    80000c40:	02071713          	slli	a4,a4,0x20
    80000c44:	02075713          	srli	a4,a4,0x20
    80000c48:	00170713          	addi	a4,a4,1
    80000c4c:	00068613          	mv	a2,a3
    80000c50:	00d70733          	add	a4,a4,a3
    80000c54:	00060023          	sb	zero,0(a2)
    80000c58:	00160613          	addi	a2,a2,1
    80000c5c:	fec71ce3          	bne	a4,a2,80000c54 <bench_dinic_run+0x9c>
    80000c60:	0115a023          	sw	a7,0(a1)
    80000c64:	00842703          	lw	a4,8(s0)
    80000c68:	00100613          	li	a2,1
    80000c6c:	00058e93          	mv	t4,a1
    80000c70:	00271713          	slli	a4,a4,0x2
    80000c74:	00e78733          	add	a4,a5,a4
    80000c78:	00072023          	sw	zero,0(a4)
    80000c7c:	00842703          	lw	a4,8(s0)
    80000c80:	00100e13          	li	t3,1
    80000c84:	00000f93          	li	t6,0
    80000c88:	00e68733          	add	a4,a3,a4
    80000c8c:	00c70023          	sb	a2,0(a4)
    80000c90:	000ea603          	lw	a2,0(t4)
    80000c94:	001f8f9b          	addiw	t6,t6,1
    80000c98:	00261613          	slli	a2,a2,0x2
    80000c9c:	00c50733          	add	a4,a0,a2
    80000ca0:	00072703          	lw	a4,0(a4)
    80000ca4:	07570a63          	beq	a4,s5,80000d18 <bench_dinic_run+0x160>
    80000ca8:	01043903          	ld	s2,16(s0)
    80000cac:	02043483          	ld	s1,32(s0)
    80000cb0:	00c788b3          	add	a7,a5,a2
    80000cb4:	00471313          	slli	t1,a4,0x4
    80000cb8:	00690333          	add	t1,s2,t1
    80000cbc:	00432603          	lw	a2,4(t1)
    80000cc0:	00271713          	slli	a4,a4,0x2
    80000cc4:	00e48733          	add	a4,s1,a4
    80000cc8:	00c689b3          	add	s3,a3,a2
    80000ccc:	0009c283          	lbu	t0,0(s3)
    80000cd0:	04029063          	bnez	t0,80000d10 <bench_dinic_run+0x158>
    80000cd4:	00832a03          	lw	s4,8(t1)
    80000cd8:	00c32383          	lw	t2,12(t1)
    80000cdc:	00261613          	slli	a2,a2,0x2
    80000ce0:	002e1293          	slli	t0,t3,0x2
    80000ce4:	00c78633          	add	a2,a5,a2
    80000ce8:	005582b3          	add	t0,a1,t0
    80000cec:	0343d263          	bge	t2,s4,80000d10 <bench_dinic_run+0x158>
    80000cf0:	0008a383          	lw	t2,0(a7)
    80000cf4:	00100a13          	li	s4,1
    80000cf8:	01498023          	sb	s4,0(s3)
    80000cfc:	0013839b          	addiw	t2,t2,1
    80000d00:	00762023          	sw	t2,0(a2)
    80000d04:	00432603          	lw	a2,4(t1)
    80000d08:	001e0e1b          	addiw	t3,t3,1
    80000d0c:	00c2a023          	sw	a2,0(t0)
    80000d10:	00072703          	lw	a4,0(a4)
    80000d14:	fb5710e3          	bne	a4,s5,80000cb4 <bench_dinic_run+0xfc>
    80000d18:	004e8e93          	addi	t4,t4,4
    80000d1c:	f7cf9ae3          	bne	t6,t3,80000c90 <bench_dinic_run+0xd8>
    80000d20:	00c42703          	lw	a4,12(s0)
    80000d24:	00e68633          	add	a2,a3,a4
    80000d28:	00064603          	lbu	a2,0(a2)
    80000d2c:	38060063          	beqz	a2,800010ac <bench_dinic_run+0x4f4>
    80000d30:	00042603          	lw	a2,0(s0)
    80000d34:	02c05863          	blez	a2,80000d64 <bench_dinic_run+0x1ac>
    80000d38:	03043883          	ld	a7,48(s0)
    80000d3c:	00050613          	mv	a2,a0
    80000d40:	00000713          	li	a4,0
    80000d44:	00062303          	lw	t1,0(a2)
    80000d48:	0017071b          	addiw	a4,a4,1
    80000d4c:	00460613          	addi	a2,a2,4
    80000d50:	0068a023          	sw	t1,0(a7)
    80000d54:	00042303          	lw	t1,0(s0)
    80000d58:	00488893          	addi	a7,a7,4
    80000d5c:	fe6744e3          	blt	a4,t1,80000d44 <bench_dinic_run+0x18c>
    80000d60:	00c42703          	lw	a4,12(s0)
    80000d64:	38ef0663          	beq	t5,a4,800010f0 <bench_dinic_run+0x538>
    80000d68:	03043703          	ld	a4,48(s0)
    80000d6c:	00013603          	ld	a2,0(sp)
    80000d70:	00c70733          	add	a4,a4,a2
    80000d74:	00072b83          	lw	s7,0(a4)
    80000d78:	335b8663          	beq	s7,s5,800010a4 <bench_dinic_run+0x4ec>
    80000d7c:	003f4db7          	lui	s11,0x3f4
    80000d80:	00000e93          	li	t4,0
    80000d84:	f3fd8d93          	addi	s11,s11,-193 # 3f3f3f <_entry_offset+0x3f3f3f>
    80000d88:	0180006f          	j	80000da0 <bench_dinic_run+0x1e8>
    80000d8c:	02043703          	ld	a4,32(s0)
    80000d90:	002b9b93          	slli	s7,s7,0x2
    80000d94:	01770bb3          	add	s7,a4,s7
    80000d98:	000bab83          	lw	s7,0(s7)
    80000d9c:	2f5b8c63          	beq	s7,s5,80001094 <bench_dinic_run+0x4dc>
    80000da0:	01043a03          	ld	s4,16(s0)
    80000da4:	004b9b13          	slli	s6,s7,0x4
    80000da8:	00013703          	ld	a4,0(sp)
    80000dac:	016a0b33          	add	s6,s4,s6
    80000db0:	004b2603          	lw	a2,4(s6)
    80000db4:	00e78733          	add	a4,a5,a4
    80000db8:	00072703          	lw	a4,0(a4)
    80000dbc:	00261f93          	slli	t6,a2,0x2
    80000dc0:	01f786b3          	add	a3,a5,t6
    80000dc4:	0006a683          	lw	a3,0(a3)
    80000dc8:	0017071b          	addiw	a4,a4,1
    80000dcc:	fcd710e3          	bne	a4,a3,80000d8c <bench_dinic_run+0x1d4>
    80000dd0:	008b2483          	lw	s1,8(s6)
    80000dd4:	00cb2703          	lw	a4,12(s6)
    80000dd8:	40e4873b          	subw	a4,s1,a4
    80000ddc:	00070493          	mv	s1,a4
    80000de0:	00edd463          	bge	s11,a4,80000de8 <bench_dinic_run+0x230>
    80000de4:	000d849b          	sext.w	s1,s11
    80000de8:	00c42703          	lw	a4,12(s0)
    80000dec:	34c70663          	beq	a4,a2,80001138 <bench_dinic_run+0x580>
    80000df0:	f8048ee3          	beqz	s1,80000d8c <bench_dinic_run+0x1d4>
    80000df4:	03043703          	ld	a4,48(s0)
    80000df8:	01f70733          	add	a4,a4,t6
    80000dfc:	00072c03          	lw	s8,0(a4)
    80000e00:	f95c06e3          	beq	s8,s5,80000d8c <bench_dinic_run+0x1d4>
    80000e04:	00048893          	mv	a7,s1
    80000e08:	00000493          	li	s1,0
    80000e0c:	0240006f          	j	80000e30 <bench_dinic_run+0x278>
    80000e10:	02043703          	ld	a4,32(s0)
    80000e14:	002c1c13          	slli	s8,s8,0x2
    80000e18:	01870c33          	add	s8,a4,s8
    80000e1c:	000c2c03          	lw	s8,0(s8)
    80000e20:	315c0c63          	beq	s8,s5,80001138 <bench_dinic_run+0x580>
    80000e24:	01f78733          	add	a4,a5,t6
    80000e28:	01043a03          	ld	s4,16(s0)
    80000e2c:	00072683          	lw	a3,0(a4)
    80000e30:	004c1713          	slli	a4,s8,0x4
    80000e34:	00ea0733          	add	a4,s4,a4
    80000e38:	00472583          	lw	a1,4(a4)
    80000e3c:	0016869b          	addiw	a3,a3,1
    80000e40:	00259293          	slli	t0,a1,0x2
    80000e44:	00578633          	add	a2,a5,t0
    80000e48:	00062603          	lw	a2,0(a2)
    80000e4c:	fcc692e3          	bne	a3,a2,80000e10 <bench_dinic_run+0x258>
    80000e50:	00872903          	lw	s2,8(a4)
    80000e54:	00c72683          	lw	a3,12(a4)
    80000e58:	40d906bb          	subw	a3,s2,a3
    80000e5c:	00068913          	mv	s2,a3
    80000e60:	00d8d463          	bge	a7,a3,80000e68 <bench_dinic_run+0x2b0>
    80000e64:	0008891b          	sext.w	s2,a7
    80000e68:	00c42683          	lw	a3,12(s0)
    80000e6c:	2cb68063          	beq	a3,a1,8000112c <bench_dinic_run+0x574>
    80000e70:	fa0900e3          	beqz	s2,80000e10 <bench_dinic_run+0x258>
    80000e74:	03043683          	ld	a3,48(s0)
    80000e78:	005686b3          	add	a3,a3,t0
    80000e7c:	0006ac83          	lw	s9,0(a3)
    80000e80:	f95c88e3          	beq	s9,s5,80000e10 <bench_dinic_run+0x258>
    80000e84:	00090313          	mv	t1,s2
    80000e88:	00000913          	li	s2,0
    80000e8c:	0240006f          	j	80000eb0 <bench_dinic_run+0x2f8>
    80000e90:	02043683          	ld	a3,32(s0)
    80000e94:	002c9c93          	slli	s9,s9,0x2
    80000e98:	01968cb3          	add	s9,a3,s9
    80000e9c:	000cac83          	lw	s9,0(s9)
    80000ea0:	295c8663          	beq	s9,s5,8000112c <bench_dinic_run+0x574>
    80000ea4:	005786b3          	add	a3,a5,t0
    80000ea8:	01043a03          	ld	s4,16(s0)
    80000eac:	0006a603          	lw	a2,0(a3)
    80000eb0:	004c9693          	slli	a3,s9,0x4
    80000eb4:	00da06b3          	add	a3,s4,a3
    80000eb8:	0046a583          	lw	a1,4(a3)
    80000ebc:	0016051b          	addiw	a0,a2,1
    80000ec0:	00259393          	slli	t2,a1,0x2
    80000ec4:	00778633          	add	a2,a5,t2
    80000ec8:	00062603          	lw	a2,0(a2)
    80000ecc:	fcc512e3          	bne	a0,a2,80000e90 <bench_dinic_run+0x2d8>
    80000ed0:	0086a983          	lw	s3,8(a3)
    80000ed4:	00c6a503          	lw	a0,12(a3)
    80000ed8:	40a9853b          	subw	a0,s3,a0
    80000edc:	00050993          	mv	s3,a0
    80000ee0:	00a35463          	bge	t1,a0,80000ee8 <bench_dinic_run+0x330>
    80000ee4:	0003099b          	sext.w	s3,t1
    80000ee8:	00c42503          	lw	a0,12(s0)
    80000eec:	22b50a63          	beq	a0,a1,80001120 <bench_dinic_run+0x568>
    80000ef0:	fa0980e3          	beqz	s3,80000e90 <bench_dinic_run+0x2d8>
    80000ef4:	03043583          	ld	a1,48(s0)
    80000ef8:	007585b3          	add	a1,a1,t2
    80000efc:	0005ad03          	lw	s10,0(a1)
    80000f00:	f95d08e3          	beq	s10,s5,80000e90 <bench_dinic_run+0x2d8>
    80000f04:	00098e13          	mv	t3,s3
    80000f08:	00000993          	li	s3,0
    80000f0c:	0240006f          	j	80000f30 <bench_dinic_run+0x378>
    80000f10:	02043583          	ld	a1,32(s0)
    80000f14:	002d1d13          	slli	s10,s10,0x2
    80000f18:	00778633          	add	a2,a5,t2
    80000f1c:	01a58d33          	add	s10,a1,s10
    80000f20:	000d2d03          	lw	s10,0(s10)
    80000f24:	1f5d0e63          	beq	s10,s5,80001120 <bench_dinic_run+0x568>
    80000f28:	01043a03          	ld	s4,16(s0)
    80000f2c:	00062603          	lw	a2,0(a2)
    80000f30:	004d1593          	slli	a1,s10,0x4
    80000f34:	00ba0a33          	add	s4,s4,a1
    80000f38:	004a2583          	lw	a1,4(s4)
    80000f3c:	0016051b          	addiw	a0,a2,1
    80000f40:	00259613          	slli	a2,a1,0x2
    80000f44:	00c78633          	add	a2,a5,a2
    80000f48:	00062603          	lw	a2,0(a2)
    80000f4c:	fcc512e3          	bne	a0,a2,80000f10 <bench_dinic_run+0x358>
    80000f50:	008a2603          	lw	a2,8(s4)
    80000f54:	00ca2783          	lw	a5,12(s4)
    80000f58:	00040513          	mv	a0,s0
    80000f5c:	40f607bb          	subw	a5,a2,a5
    80000f60:	00078613          	mv	a2,a5
    80000f64:	00fe5463          	bge	t3,a5,80000f6c <bench_dinic_run+0x3b4>
    80000f68:	000e061b          	sext.w	a2,t3
    80000f6c:	05c13c23          	sd	t3,88(sp)
    80000f70:	04613823          	sd	t1,80(sp)
    80000f74:	04713423          	sd	t2,72(sp)
    80000f78:	04d13023          	sd	a3,64(sp)
    80000f7c:	03113c23          	sd	a7,56(sp)
    80000f80:	02513823          	sd	t0,48(sp)
    80000f84:	02e13423          	sd	a4,40(sp)
    80000f88:	03d13023          	sd	t4,32(sp)
    80000f8c:	01f13c23          	sd	t6,24(sp)
    80000f90:	01013823          	sd	a6,16(sp)
    80000f94:	01e13423          	sd	t5,8(sp)
    80000f98:	f10ff0ef          	jal	ra,800006a8 <_ZN5Dinic3DFSEii>
    80000f9c:	001d4593          	xori	a1,s10,1
    80000fa0:	00813f03          	ld	t5,8(sp)
    80000fa4:	01013803          	ld	a6,16(sp)
    80000fa8:	01813f83          	ld	t6,24(sp)
    80000fac:	02013e83          	ld	t4,32(sp)
    80000fb0:	02813703          	ld	a4,40(sp)
    80000fb4:	03013283          	ld	t0,48(sp)
    80000fb8:	03813883          	ld	a7,56(sp)
    80000fbc:	04013683          	ld	a3,64(sp)
    80000fc0:	04813383          	ld	t2,72(sp)
    80000fc4:	05013303          	ld	t1,80(sp)
    80000fc8:	05813e03          	ld	t3,88(sp)
    80000fcc:	00459593          	slli	a1,a1,0x4
    80000fd0:	12a05a63          	blez	a0,80001104 <bench_dinic_run+0x54c>
    80000fd4:	00ca2783          	lw	a5,12(s4)
    80000fd8:	01043603          	ld	a2,16(s0)
    80000fdc:	40ae0e3b          	subw	t3,t3,a0
    80000fe0:	00a787bb          	addw	a5,a5,a0
    80000fe4:	00fa2623          	sw	a5,12(s4)
    80000fe8:	00b605b3          	add	a1,a2,a1
    80000fec:	00c5aa03          	lw	s4,12(a1)
    80000ff0:	00a989bb          	addw	s3,s3,a0
    80000ff4:	02843783          	ld	a5,40(s0)
    80000ff8:	40aa053b          	subw	a0,s4,a0
    80000ffc:	00a5a623          	sw	a0,12(a1)
    80001000:	f00e18e3          	bnez	t3,80000f10 <bench_dinic_run+0x358>
    80001004:	00c6a503          	lw	a0,12(a3)
    80001008:	001cc593          	xori	a1,s9,1
    8000100c:	00459593          	slli	a1,a1,0x4
    80001010:	0135053b          	addw	a0,a0,s3
    80001014:	00a6a623          	sw	a0,12(a3)
    80001018:	00b606b3          	add	a3,a2,a1
    8000101c:	00c6a583          	lw	a1,12(a3)
    80001020:	4133033b          	subw	t1,t1,s3
    80001024:	0139093b          	addw	s2,s2,s3
    80001028:	413589bb          	subw	s3,a1,s3
    8000102c:	0136a623          	sw	s3,12(a3)
    80001030:	e60310e3          	bnez	t1,80000e90 <bench_dinic_run+0x2d8>
    80001034:	00c72583          	lw	a1,12(a4)
    80001038:	001c4693          	xori	a3,s8,1
    8000103c:	00469693          	slli	a3,a3,0x4
    80001040:	012585bb          	addw	a1,a1,s2
    80001044:	00b72623          	sw	a1,12(a4)
    80001048:	00d60733          	add	a4,a2,a3
    8000104c:	00c72683          	lw	a3,12(a4)
    80001050:	412888bb          	subw	a7,a7,s2
    80001054:	012484bb          	addw	s1,s1,s2
    80001058:	4126893b          	subw	s2,a3,s2
    8000105c:	01272623          	sw	s2,12(a4)
    80001060:	da0898e3          	bnez	a7,80000e10 <bench_dinic_run+0x258>
    80001064:	00cb2683          	lw	a3,12(s6)
    80001068:	001bc713          	xori	a4,s7,1
    8000106c:	00471713          	slli	a4,a4,0x4
    80001070:	009686bb          	addw	a3,a3,s1
    80001074:	00db2623          	sw	a3,12(s6)
    80001078:	00e60633          	add	a2,a2,a4
    8000107c:	00c62703          	lw	a4,12(a2)
    80001080:	409d8dbb          	subw	s11,s11,s1
    80001084:	009e8ebb          	addw	t4,t4,s1
    80001088:	409704bb          	subw	s1,a4,s1
    8000108c:	00962623          	sw	s1,12(a2)
    80001090:	ce0d9ee3          	bnez	s11,80000d8c <bench_dinic_run+0x1d4>
    80001094:	04043683          	ld	a3,64(s0)
    80001098:	03843583          	ld	a1,56(s0)
    8000109c:	01843503          	ld	a0,24(s0)
    800010a0:	01d8083b          	addw	a6,a6,t4
    800010a4:	00842883          	lw	a7,8(s0)
    800010a8:	b8dff06f          	j	80000c34 <bench_dinic_run+0x7c>
    800010ac:	0c813083          	ld	ra,200(sp)
    800010b0:	0c013403          	ld	s0,192(sp)
    800010b4:	00007797          	auipc	a5,0x7
    800010b8:	8707a023          	sw	a6,-1952(a5) # 80007914 <_ZL3ans>
    800010bc:	0b813483          	ld	s1,184(sp)
    800010c0:	0b013903          	ld	s2,176(sp)
    800010c4:	0a813983          	ld	s3,168(sp)
    800010c8:	0a013a03          	ld	s4,160(sp)
    800010cc:	09813a83          	ld	s5,152(sp)
    800010d0:	09013b03          	ld	s6,144(sp)
    800010d4:	08813b83          	ld	s7,136(sp)
    800010d8:	08013c03          	ld	s8,128(sp)
    800010dc:	07813c83          	ld	s9,120(sp)
    800010e0:	07013d03          	ld	s10,112(sp)
    800010e4:	06813d83          	ld	s11,104(sp)
    800010e8:	0d010113          	addi	sp,sp,208
    800010ec:	00008067          	ret
    800010f0:	003f4737          	lui	a4,0x3f4
    800010f4:	f3f7071b          	addiw	a4,a4,-193
    800010f8:	00842883          	lw	a7,8(s0)
    800010fc:	0107083b          	addw	a6,a4,a6
    80001100:	b35ff06f          	j	80000c34 <bench_dinic_run+0x7c>
    80001104:	02043583          	ld	a1,32(s0)
    80001108:	002d1d13          	slli	s10,s10,0x2
    8000110c:	02843783          	ld	a5,40(s0)
    80001110:	01a58d33          	add	s10,a1,s10
    80001114:	000d2d03          	lw	s10,0(s10)
    80001118:	00778633          	add	a2,a5,t2
    8000111c:	e15d16e3          	bne	s10,s5,80000f28 <bench_dinic_run+0x370>
    80001120:	d73058e3          	blez	s3,80000e90 <bench_dinic_run+0x2d8>
    80001124:	01043603          	ld	a2,16(s0)
    80001128:	eddff06f          	j	80001004 <bench_dinic_run+0x44c>
    8000112c:	cf2052e3          	blez	s2,80000e10 <bench_dinic_run+0x258>
    80001130:	01043603          	ld	a2,16(s0)
    80001134:	f01ff06f          	j	80001034 <bench_dinic_run+0x47c>
    80001138:	c4905ae3          	blez	s1,80000d8c <bench_dinic_run+0x1d4>
    8000113c:	01043603          	ld	a2,16(s0)
    80001140:	f25ff06f          	j	80001064 <bench_dinic_run+0x4ac>

0000000080001144 <bench_dinic_validate>:
    80001144:	00007797          	auipc	a5,0x7
    80001148:	8d47b783          	ld	a5,-1836(a5) # 80007a18 <setting>
    8000114c:	0187a503          	lw	a0,24(a5)
    80001150:	00006797          	auipc	a5,0x6
    80001154:	7c47a783          	lw	a5,1988(a5) # 80007914 <_ZL3ans>
    80001158:	40f50533          	sub	a0,a0,a5
    8000115c:	00153513          	seqz	a0,a0
    80001160:	00008067          	ret

0000000080001164 <_ZL9radixPassPiS_S_ii>:
    80001164:	fd010113          	addi	sp,sp,-48
    80001168:	0017079b          	addiw	a5,a4,1
    8000116c:	02813023          	sd	s0,32(sp)
    80001170:	01413023          	sd	s4,0(sp)
    80001174:	00050413          	mv	s0,a0
    80001178:	00070a13          	mv	s4,a4
    8000117c:	00279513          	slli	a0,a5,0x2
    80001180:	00913c23          	sd	s1,24(sp)
    80001184:	01213823          	sd	s2,16(sp)
    80001188:	01313423          	sd	s3,8(sp)
    8000118c:	02113423          	sd	ra,40(sp)
    80001190:	00058993          	mv	s3,a1
    80001194:	00060493          	mv	s1,a2
    80001198:	00068913          	mv	s2,a3
    8000119c:	b7cff0ef          	jal	ra,80000518 <bench_alloc>
    800011a0:	0e0a4c63          	bltz	s4,80001298 <_ZL9radixPassPiS_S_ii+0x134>
    800011a4:	001a0713          	addi	a4,s4,1
    800011a8:	00271713          	slli	a4,a4,0x2
    800011ac:	00050793          	mv	a5,a0
    800011b0:	00a70733          	add	a4,a4,a0
    800011b4:	0007a023          	sw	zero,0(a5)
    800011b8:	00478793          	addi	a5,a5,4
    800011bc:	fef71ce3          	bne	a4,a5,800011b4 <_ZL9radixPassPiS_S_ii+0x50>
    800011c0:	05205663          	blez	s2,8000120c <_ZL9radixPassPiS_S_ii+0xa8>
    800011c4:	fff9071b          	addiw	a4,s2,-1
    800011c8:	02071713          	slli	a4,a4,0x20
    800011cc:	01e75793          	srli	a5,a4,0x1e
    800011d0:	00440713          	addi	a4,s0,4
    800011d4:	00040813          	mv	a6,s0
    800011d8:	00e78733          	add	a4,a5,a4
    800011dc:	00082783          	lw	a5,0(a6)
    800011e0:	00480813          	addi	a6,a6,4
    800011e4:	00279793          	slli	a5,a5,0x2
    800011e8:	00f487b3          	add	a5,s1,a5
    800011ec:	0007a783          	lw	a5,0(a5)
    800011f0:	00279793          	slli	a5,a5,0x2
    800011f4:	00f507b3          	add	a5,a0,a5
    800011f8:	0007a883          	lw	a7,0(a5)
    800011fc:	0018889b          	addiw	a7,a7,1
    80001200:	0117a023          	sw	a7,0(a5)
    80001204:	fd071ce3          	bne	a4,a6,800011dc <_ZL9radixPassPiS_S_ii+0x78>
    80001208:	020a4663          	bltz	s4,80001234 <_ZL9radixPassPiS_S_ii+0xd0>
    8000120c:	00050793          	mv	a5,a0
    80001210:	00000693          	li	a3,0
    80001214:	00000813          	li	a6,0
    80001218:	0007a603          	lw	a2,0(a5)
    8000121c:	0018081b          	addiw	a6,a6,1
    80001220:	00d7a023          	sw	a3,0(a5)
    80001224:	00d606bb          	addw	a3,a2,a3
    80001228:	00478793          	addi	a5,a5,4
    8000122c:	ff0a56e3          	bge	s4,a6,80001218 <_ZL9radixPassPiS_S_ii+0xb4>
    80001230:	05205463          	blez	s2,80001278 <_ZL9radixPassPiS_S_ii+0x114>
    80001234:	00040893          	mv	a7,s0
    80001238:	00000813          	li	a6,0
    8000123c:	0008a683          	lw	a3,0(a7)
    80001240:	0018081b          	addiw	a6,a6,1
    80001244:	00488893          	addi	a7,a7,4
    80001248:	00269793          	slli	a5,a3,0x2
    8000124c:	00f487b3          	add	a5,s1,a5
    80001250:	0007a703          	lw	a4,0(a5)
    80001254:	00271713          	slli	a4,a4,0x2
    80001258:	00e50733          	add	a4,a0,a4
    8000125c:	00072783          	lw	a5,0(a4) # 3f4000 <_entry_offset+0x3f4000>
    80001260:	0017861b          	addiw	a2,a5,1
    80001264:	00279793          	slli	a5,a5,0x2
    80001268:	00c72023          	sw	a2,0(a4)
    8000126c:	00f987b3          	add	a5,s3,a5
    80001270:	00d7a023          	sw	a3,0(a5)
    80001274:	fd2844e3          	blt	a6,s2,8000123c <_ZL9radixPassPiS_S_ii+0xd8>
    80001278:	02813083          	ld	ra,40(sp)
    8000127c:	02013403          	ld	s0,32(sp)
    80001280:	01813483          	ld	s1,24(sp)
    80001284:	01013903          	ld	s2,16(sp)
    80001288:	00813983          	ld	s3,8(sp)
    8000128c:	00013a03          	ld	s4,0(sp)
    80001290:	03010113          	addi	sp,sp,48
    80001294:	00008067          	ret
    80001298:	f32046e3          	bgtz	s2,800011c4 <_ZL9radixPassPiS_S_ii+0x60>
    8000129c:	fddff06f          	j	80001278 <_ZL9radixPassPiS_S_ii+0x114>

00000000800012a0 <_Z11suffixArrayPiS_ii>:
    800012a0:	f4010113          	addi	sp,sp,-192
    800012a4:	09313c23          	sd	s3,152(sp)
    800012a8:	07813823          	sd	s8,112(sp)
    800012ac:	00050993          	mv	s3,a0
    800012b0:	00058c13          	mv	s8,a1
    800012b4:	0026051b          	addiw	a0,a2,2
    800012b8:	00300593          	li	a1,3
    800012bc:	0a113c23          	sd	ra,184(sp)
    800012c0:	02c13423          	sd	a2,40(sp)
    800012c4:	02d13823          	sd	a3,48(sp)
    800012c8:	0a813823          	sd	s0,176(sp)
    800012cc:	0a913423          	sd	s1,168(sp)
    800012d0:	0b213023          	sd	s2,160(sp)
    800012d4:	00060493          	mv	s1,a2
    800012d8:	09413823          	sd	s4,144(sp)
    800012dc:	09513423          	sd	s5,136(sp)
    800012e0:	09613023          	sd	s6,128(sp)
    800012e4:	07713c23          	sd	s7,120(sp)
    800012e8:	07913423          	sd	s9,104(sp)
    800012ec:	07a13023          	sd	s10,96(sp)
    800012f0:	01813823          	sd	s8,16(sp)
    800012f4:	05b13c23          	sd	s11,88(sp)
    800012f8:	640030ef          	jal	ra,80004938 <__divdi3>
    800012fc:	00300593          	li	a1,3
    80001300:	00050413          	mv	s0,a0
    80001304:	00048513          	mv	a0,s1
    80001308:	630030ef          	jal	ra,80004938 <__divdi3>
    8000130c:	0004041b          	sext.w	s0,s0
    80001310:	00850abb          	addw	s5,a0,s0
    80001314:	003a8a1b          	addiw	s4,s5,3
    80001318:	002a1a13          	slli	s4,s4,0x2
    8000131c:	000a0513          	mv	a0,s4
    80001320:	002a8913          	addi	s2,s5,2
    80001324:	9f4ff0ef          	jal	ra,80000518 <bench_alloc>
    80001328:	00291913          	slli	s2,s2,0x2
    8000132c:	012507b3          	add	a5,a0,s2
    80001330:	ffc90c93          	addi	s9,s2,-4
    80001334:	0007a023          	sw	zero,0(a5)
    80001338:	ff890b93          	addi	s7,s2,-8
    8000133c:	019507b3          	add	a5,a0,s9
    80001340:	0007a023          	sw	zero,0(a5)
    80001344:	017507b3          	add	a5,a0,s7
    80001348:	00048c13          	mv	s8,s1
    8000134c:	0007a023          	sw	zero,0(a5)
    80001350:	00050493          	mv	s1,a0
    80001354:	000a0513          	mv	a0,s4
    80001358:	9c0ff0ef          	jal	ra,80000518 <bench_alloc>
    8000135c:	01250933          	add	s2,a0,s2
    80001360:	00092023          	sw	zero,0(s2)
    80001364:	01950cb3          	add	s9,a0,s9
    80001368:	000ca023          	sw	zero,0(s9)
    8000136c:	00241913          	slli	s2,s0,0x2
    80001370:	01750bb3          	add	s7,a0,s7
    80001374:	000ba023          	sw	zero,0(s7)
    80001378:	00050a13          	mv	s4,a0
    8000137c:	00090513          	mv	a0,s2
    80001380:	998ff0ef          	jal	ra,80000518 <bench_alloc>
    80001384:	00050c93          	mv	s9,a0
    80001388:	00090513          	mv	a0,s2
    8000138c:	01913c23          	sd	s9,24(sp)
    80001390:	988ff0ef          	jal	ra,80000518 <bench_alloc>
    80001394:	00050b93          	mv	s7,a0
    80001398:	00300593          	li	a1,3
    8000139c:	001c051b          	addiw	a0,s8,1
    800013a0:	03713023          	sd	s7,32(sp)
    800013a4:	594030ef          	jal	ra,80004938 <__divdi3>
    800013a8:	40a4093b          	subw	s2,s0,a0
    800013ac:	01890d3b          	addw	s10,s2,s8
    800013b0:	000a8b13          	mv	s6,s5
    800013b4:	00000c13          	li	s8,0
    800013b8:	00000b93          	li	s7,0
    800013bc:	05a05463          	blez	s10,80001404 <_Z11suffixArrayPiS_ii+0x164>
    800013c0:	001c0c1b          	addiw	s8,s8,1
    800013c4:	00300593          	li	a1,3
    800013c8:	000c0c93          	mv	s9,s8
    800013cc:	000c0513          	mv	a0,s8
    800013d0:	03ac0a63          	beq	s8,s10,80001404 <_Z11suffixArrayPiS_ii+0x164>
    800013d4:	5e8030ef          	jal	ra,800049bc <__moddi3>
    800013d8:	002b9793          	slli	a5,s7,0x2
    800013dc:	0005051b          	sext.w	a0,a0
    800013e0:	00f487b3          	add	a5,s1,a5
    800013e4:	fc050ee3          	beqz	a0,800013c0 <_Z11suffixArrayPiS_ii+0x120>
    800013e8:	001c0c1b          	addiw	s8,s8,1
    800013ec:	0197a023          	sw	s9,0(a5)
    800013f0:	001b8b9b          	addiw	s7,s7,1
    800013f4:	00300593          	li	a1,3
    800013f8:	000c0c93          	mv	s9,s8
    800013fc:	000c0513          	mv	a0,s8
    80001400:	fdac1ae3          	bne	s8,s10,800013d4 <_Z11suffixArrayPiS_ii+0x134>
    80001404:	03013b83          	ld	s7,48(sp)
    80001408:	00898613          	addi	a2,s3,8
    8000140c:	000a0593          	mv	a1,s4
    80001410:	00048513          	mv	a0,s1
    80001414:	000b8713          	mv	a4,s7
    80001418:	000a8693          	mv	a3,s5
    8000141c:	d49ff0ef          	jal	ra,80001164 <_ZL9radixPassPiS_S_ii>
    80001420:	000b8713          	mv	a4,s7
    80001424:	000a8693          	mv	a3,s5
    80001428:	00498613          	addi	a2,s3,4
    8000142c:	00048593          	mv	a1,s1
    80001430:	000a0513          	mv	a0,s4
    80001434:	d31ff0ef          	jal	ra,80001164 <_ZL9radixPassPiS_S_ii>
    80001438:	000b8713          	mv	a4,s7
    8000143c:	000a8693          	mv	a3,s5
    80001440:	00098613          	mv	a2,s3
    80001444:	000a0593          	mv	a1,s4
    80001448:	00048513          	mv	a0,s1
    8000144c:	d19ff0ef          	jal	ra,80001164 <_ZL9radixPassPiS_S_ii>
    80001450:	13505c63          	blez	s5,80001588 <_Z11suffixArrayPiS_ii+0x2e8>
    80001454:	fffb089b          	addiw	a7,s6,-1
    80001458:	02089893          	slli	a7,a7,0x20
    8000145c:	0208d893          	srli	a7,a7,0x20
    80001460:	00188893          	addi	a7,a7,1
    80001464:	00289893          	slli	a7,a7,0x2
    80001468:	000a0d93          	mv	s11,s4
    8000146c:	01488d33          	add	s10,a7,s4
    80001470:	000a0613          	mv	a2,s4
    80001474:	fff00b13          	li	s6,-1
    80001478:	fff00b93          	li	s7,-1
    8000147c:	fff00c93          	li	s9,-1
    80001480:	00000c13          	li	s8,0
    80001484:	0600006f          	j	800014e4 <_Z11suffixArrayPiS_ii+0x244>
    80001488:	001c0c1b          	addiw	s8,s8,1
    8000148c:	000f0c93          	mv	s9,t5
    80001490:	00c13423          	sd	a2,8(sp)
    80001494:	00e13023          	sd	a4,0(sp)
    80001498:	4a0030ef          	jal	ra,80004938 <__divdi3>
    8000149c:	00013703          	ld	a4,0(sp)
    800014a0:	00050793          	mv	a5,a0
    800014a4:	0007879b          	sext.w	a5,a5
    800014a8:	00070513          	mv	a0,a4
    800014ac:	00300593          	li	a1,3
    800014b0:	00f13023          	sd	a5,0(sp)
    800014b4:	508030ef          	jal	ra,800049bc <__moddi3>
    800014b8:	00013783          	ld	a5,0(sp)
    800014bc:	0005051b          	sext.w	a0,a0
    800014c0:	00100693          	li	a3,1
    800014c4:	00f4073b          	addw	a4,s0,a5
    800014c8:	00271713          	slli	a4,a4,0x2
    800014cc:	00813603          	ld	a2,8(sp)
    800014d0:	00e48733          	add	a4,s1,a4
    800014d4:	04d50463          	beq	a0,a3,8000151c <_Z11suffixArrayPiS_ii+0x27c>
    800014d8:	01872023          	sw	s8,0(a4)
    800014dc:	00460613          	addi	a2,a2,4
    800014e0:	04cd0863          	beq	s10,a2,80001530 <_Z11suffixArrayPiS_ii+0x290>
    800014e4:	00062703          	lw	a4,0(a2)
    800014e8:	000b8f93          	mv	t6,s7
    800014ec:	000b0293          	mv	t0,s6
    800014f0:	00271793          	slli	a5,a4,0x2
    800014f4:	00f987b3          	add	a5,s3,a5
    800014f8:	0007af03          	lw	t5,0(a5)
    800014fc:	0047ab83          	lw	s7,4(a5)
    80001500:	0087ab03          	lw	s6,8(a5)
    80001504:	00300593          	li	a1,3
    80001508:	00070513          	mv	a0,a4
    8000150c:	f79f1ee3          	bne	t5,s9,80001488 <_Z11suffixArrayPiS_ii+0x1e8>
    80001510:	f77f9ce3          	bne	t6,s7,80001488 <_Z11suffixArrayPiS_ii+0x1e8>
    80001514:	f7629ae3          	bne	t0,s6,80001488 <_Z11suffixArrayPiS_ii+0x1e8>
    80001518:	f79ff06f          	j	80001490 <_Z11suffixArrayPiS_ii+0x1f0>
    8000151c:	00279793          	slli	a5,a5,0x2
    80001520:	00f487b3          	add	a5,s1,a5
    80001524:	0187a023          	sw	s8,0(a5)
    80001528:	00460613          	addi	a2,a2,4
    8000152c:	facd1ce3          	bne	s10,a2,800014e4 <_Z11suffixArrayPiS_ii+0x244>
    80001530:	00048613          	mv	a2,s1
    80001534:	00000713          	li	a4,0
    80001538:	315c4863          	blt	s8,s5,80001848 <_Z11suffixArrayPiS_ii+0x5a8>
    8000153c:	00062783          	lw	a5,0(a2)
    80001540:	00460613          	addi	a2,a2,4
    80001544:	00279793          	slli	a5,a5,0x2
    80001548:	00fa07b3          	add	a5,s4,a5
    8000154c:	fee7ae23          	sw	a4,-4(a5)
    80001550:	0017071b          	addiw	a4,a4,1
    80001554:	feea94e3          	bne	s5,a4,8000153c <_Z11suffixArrayPiS_ii+0x29c>
    80001558:	00000613          	li	a2,0
    8000155c:	000da703          	lw	a4,0(s11)
    80001560:	01813583          	ld	a1,24(sp)
    80001564:	00261793          	slli	a5,a2,0x2
    80001568:	0017169b          	slliw	a3,a4,0x1
    8000156c:	004d8d93          	addi	s11,s11,4
    80001570:	00f587b3          	add	a5,a1,a5
    80001574:	00e686bb          	addw	a3,a3,a4
    80001578:	00875663          	bge	a4,s0,80001584 <_Z11suffixArrayPiS_ii+0x2e4>
    8000157c:	00d7a023          	sw	a3,0(a5)
    80001580:	0016061b          	addiw	a2,a2,1
    80001584:	fdad9ce3          	bne	s11,s10,8000155c <_Z11suffixArrayPiS_ii+0x2bc>
    80001588:	02013b03          	ld	s6,32(sp)
    8000158c:	03013703          	ld	a4,48(sp)
    80001590:	01813503          	ld	a0,24(sp)
    80001594:	00040693          	mv	a3,s0
    80001598:	00098613          	mv	a2,s3
    8000159c:	000b0593          	mv	a1,s6
    800015a0:	bc5ff0ef          	jal	ra,80001164 <_ZL9radixPassPiS_S_ii>
    800015a4:	02813783          	ld	a5,40(sp)
    800015a8:	0ef05463          	blez	a5,80001690 <_Z11suffixArrayPiS_ii+0x3f0>
    800015ac:	000a879b          	sext.w	a5,s5
    800015b0:	02f13c23          	sd	a5,56(sp)
    800015b4:	fffa879b          	addiw	a5,s5,-1
    800015b8:	04f12223          	sw	a5,68(sp)
    800015bc:	004a0793          	addi	a5,s4,4
    800015c0:	04f13423          	sd	a5,72(sp)
    800015c4:	0004079b          	sext.w	a5,s0
    800015c8:	00f13423          	sd	a5,8(sp)
    800015cc:	fff4079b          	addiw	a5,s0,-1
    800015d0:	00f12c23          	sw	a5,24(sp)
    800015d4:	004b0793          	addi	a5,s6,4
    800015d8:	00000d13          	li	s10,0
    800015dc:	00000c93          	li	s9,0
    800015e0:	02f13823          	sd	a5,48(sp)
    800015e4:	02013703          	ld	a4,32(sp)
    800015e8:	002c9793          	slli	a5,s9,0x2
    800015ec:	00291613          	slli	a2,s2,0x2
    800015f0:	00f70c33          	add	s8,a4,a5
    800015f4:	000c2b83          	lw	s7,0(s8)
    800015f8:	00ca0b33          	add	s6,s4,a2
    800015fc:	000b2783          	lw	a5,0(s6)
    80001600:	002b9813          	slli	a6,s7,0x2
    80001604:	00300593          	li	a1,3
    80001608:	000b8513          	mv	a0,s7
    8000160c:	00f13023          	sd	a5,0(sp)
    80001610:	01098db3          	add	s11,s3,a6
    80001614:	324030ef          	jal	ra,80004938 <__divdi3>
    80001618:	00013783          	ld	a5,0(sp)
    8000161c:	000dae83          	lw	t4,0(s11)
    80001620:	0005071b          	sext.w	a4,a0
    80001624:	1c87d463          	bge	a5,s0,800017ec <_Z11suffixArrayPiS_ii+0x54c>
    80001628:	0017959b          	slliw	a1,a5,0x1
    8000162c:	00f585bb          	addw	a1,a1,a5
    80001630:	0015859b          	addiw	a1,a1,1
    80001634:	00259513          	slli	a0,a1,0x2
    80001638:	00a98533          	add	a0,s3,a0
    8000163c:	008787bb          	addw	a5,a5,s0
    80001640:	00052503          	lw	a0,0(a0)
    80001644:	00279793          	slli	a5,a5,0x2
    80001648:	00271713          	slli	a4,a4,0x2
    8000164c:	00f487b3          	add	a5,s1,a5
    80001650:	00e48733          	add	a4,s1,a4
    80001654:	0007a803          	lw	a6,0(a5)
    80001658:	00072783          	lw	a5,0(a4)
    8000165c:	11d54663          	blt	a0,t4,80001768 <_Z11suffixArrayPiS_ii+0x4c8>
    80001660:	11d50263          	beq	a0,t4,80001764 <_Z11suffixArrayPiS_ii+0x4c4>
    80001664:	01013783          	ld	a5,16(sp)
    80001668:	002d1693          	slli	a3,s10,0x2
    8000166c:	001d051b          	addiw	a0,s10,1
    80001670:	00d787b3          	add	a5,a5,a3
    80001674:	0177a023          	sw	s7,0(a5)
    80001678:	001c8c9b          	addiw	s9,s9,1
    8000167c:	0005079b          	sext.w	a5,a0
    80001680:	05940663          	beq	s0,s9,800016cc <_Z11suffixArrayPiS_ii+0x42c>
    80001684:	00078d13          	mv	s10,a5
    80001688:	02813783          	ld	a5,40(sp)
    8000168c:	f4fd4ce3          	blt	s10,a5,800015e4 <_Z11suffixArrayPiS_ii+0x344>
    80001690:	0b813083          	ld	ra,184(sp)
    80001694:	0b013403          	ld	s0,176(sp)
    80001698:	0a813483          	ld	s1,168(sp)
    8000169c:	0a013903          	ld	s2,160(sp)
    800016a0:	09813983          	ld	s3,152(sp)
    800016a4:	09013a03          	ld	s4,144(sp)
    800016a8:	08813a83          	ld	s5,136(sp)
    800016ac:	08013b03          	ld	s6,128(sp)
    800016b0:	07813b83          	ld	s7,120(sp)
    800016b4:	07013c03          	ld	s8,112(sp)
    800016b8:	06813c83          	ld	s9,104(sp)
    800016bc:	06013d03          	ld	s10,96(sp)
    800016c0:	05813d83          	ld	s11,88(sp)
    800016c4:	0c010113          	addi	sp,sp,192
    800016c8:	00008067          	ret
    800016cc:	1b595c63          	bge	s2,s5,80001884 <_Z11suffixArrayPiS_ii+0x5e4>
    800016d0:	04412783          	lw	a5,68(sp)
    800016d4:	00468693          	addi	a3,a3,4
    800016d8:	000b0613          	mv	a2,s6
    800016dc:	41278e3b          	subw	t3,a5,s2
    800016e0:	01013783          	ld	a5,16(sp)
    800016e4:	020e1e13          	slli	t3,t3,0x20
    800016e8:	020e5e13          	srli	t3,t3,0x20
    800016ec:	00d786b3          	add	a3,a5,a3
    800016f0:	04813783          	ld	a5,72(sp)
    800016f4:	012e0e33          	add	t3,t3,s2
    800016f8:	002e1e13          	slli	t3,t3,0x2
    800016fc:	0009089b          	sext.w	a7,s2
    80001700:	00fe0e33          	add	t3,t3,a5
    80001704:	0180006f          	j	8000171c <_Z11suffixArrayPiS_ii+0x47c>
    80001708:	0015879b          	addiw	a5,a1,1
    8000170c:	00f6a023          	sw	a5,0(a3)
    80001710:	00460613          	addi	a2,a2,4
    80001714:	00468693          	addi	a3,a3,4
    80001718:	02ce0a63          	beq	t3,a2,8000174c <_Z11suffixArrayPiS_ii+0x4ac>
    8000171c:	00062703          	lw	a4,0(a2)
    80001720:	4087083b          	subw	a6,a4,s0
    80001724:	0017159b          	slliw	a1,a4,0x1
    80001728:	0018179b          	slliw	a5,a6,0x1
    8000172c:	00e585bb          	addw	a1,a1,a4
    80001730:	010787bb          	addw	a5,a5,a6
    80001734:	fc874ae3          	blt	a4,s0,80001708 <_Z11suffixArrayPiS_ii+0x468>
    80001738:	0027879b          	addiw	a5,a5,2
    8000173c:	00f6a023          	sw	a5,0(a3)
    80001740:	00460613          	addi	a2,a2,4
    80001744:	00468693          	addi	a3,a3,4
    80001748:	fcce1ae3          	bne	t3,a2,8000171c <_Z11suffixArrayPiS_ii+0x47c>
    8000174c:	03813783          	ld	a5,56(sp)
    80001750:	411508bb          	subw	a7,a0,a7
    80001754:	000a8913          	mv	s2,s5
    80001758:	00f888bb          	addw	a7,a7,a5
    8000175c:	00188d1b          	addiw	s10,a7,1
    80001760:	f29ff06f          	j	80001688 <_Z11suffixArrayPiS_ii+0x3e8>
    80001764:	f107c0e3          	blt	a5,a6,80001664 <_Z11suffixArrayPiS_ii+0x3c4>
    80001768:	01013783          	ld	a5,16(sp)
    8000176c:	002d1713          	slli	a4,s10,0x2
    80001770:	001d061b          	addiw	a2,s10,1
    80001774:	00e787b3          	add	a5,a5,a4
    80001778:	00b7a023          	sw	a1,0(a5)
    8000177c:	0019091b          	addiw	s2,s2,1
    80001780:	0006079b          	sext.w	a5,a2
    80001784:	f12a90e3          	bne	s5,s2,80001684 <_Z11suffixArrayPiS_ii+0x3e4>
    80001788:	0e8cde63          	bge	s9,s0,80001884 <_Z11suffixArrayPiS_ii+0x5e4>
    8000178c:	01812783          	lw	a5,24(sp)
    80001790:	01013683          	ld	a3,16(sp)
    80001794:	00470713          	addi	a4,a4,4
    80001798:	419785bb          	subw	a1,a5,s9
    8000179c:	02059593          	slli	a1,a1,0x20
    800017a0:	0205d593          	srli	a1,a1,0x20
    800017a4:	00e68733          	add	a4,a3,a4
    800017a8:	03013683          	ld	a3,48(sp)
    800017ac:	019585b3          	add	a1,a1,s9
    800017b0:	00259593          	slli	a1,a1,0x2
    800017b4:	000c0793          	mv	a5,s8
    800017b8:	000c889b          	sext.w	a7,s9
    800017bc:	00d585b3          	add	a1,a1,a3
    800017c0:	0007a683          	lw	a3,0(a5)
    800017c4:	00478793          	addi	a5,a5,4
    800017c8:	00470713          	addi	a4,a4,4
    800017cc:	fed72e23          	sw	a3,-4(a4)
    800017d0:	fef598e3          	bne	a1,a5,800017c0 <_Z11suffixArrayPiS_ii+0x520>
    800017d4:	00813783          	ld	a5,8(sp)
    800017d8:	411608bb          	subw	a7,a2,a7
    800017dc:	00040c93          	mv	s9,s0
    800017e0:	00f888bb          	addw	a7,a7,a5
    800017e4:	00188d1b          	addiw	s10,a7,1
    800017e8:	ea1ff06f          	j	80001688 <_Z11suffixArrayPiS_ii+0x3e8>
    800017ec:	408787bb          	subw	a5,a5,s0
    800017f0:	0017959b          	slliw	a1,a5,0x1
    800017f4:	00f585bb          	addw	a1,a1,a5
    800017f8:	0025859b          	addiw	a1,a1,2
    800017fc:	00259f13          	slli	t5,a1,0x2
    80001800:	01e98f33          	add	t5,s3,t5
    80001804:	000f2f83          	lw	t6,0(t5)
    80001808:	00178793          	addi	a5,a5,1
    8000180c:	00e4073b          	addw	a4,s0,a4
    80001810:	00279793          	slli	a5,a5,0x2
    80001814:	00271713          	slli	a4,a4,0x2
    80001818:	00f487b3          	add	a5,s1,a5
    8000181c:	00e48733          	add	a4,s1,a4
    80001820:	004f2503          	lw	a0,4(t5)
    80001824:	00072703          	lw	a4,0(a4)
    80001828:	0007af03          	lw	t5,0(a5)
    8000182c:	004da783          	lw	a5,4(s11)
    80001830:	f3dfcce3          	blt	t6,t4,80001768 <_Z11suffixArrayPiS_ii+0x4c8>
    80001834:	e3df98e3          	bne	t6,t4,80001664 <_Z11suffixArrayPiS_ii+0x3c4>
    80001838:	f2f548e3          	blt	a0,a5,80001768 <_Z11suffixArrayPiS_ii+0x4c8>
    8000183c:	e2f514e3          	bne	a0,a5,80001664 <_Z11suffixArrayPiS_ii+0x3c4>
    80001840:	e3e742e3          	blt	a4,t5,80001664 <_Z11suffixArrayPiS_ii+0x3c4>
    80001844:	f25ff06f          	j	80001768 <_Z11suffixArrayPiS_ii+0x4c8>
    80001848:	000c0693          	mv	a3,s8
    8000184c:	000a8613          	mv	a2,s5
    80001850:	000a0593          	mv	a1,s4
    80001854:	00048513          	mv	a0,s1
    80001858:	a49ff0ef          	jal	ra,800012a0 <_Z11suffixArrayPiS_ii>
    8000185c:	000a0693          	mv	a3,s4
    80001860:	00000713          	li	a4,0
    80001864:	0006a783          	lw	a5,0(a3)
    80001868:	0017071b          	addiw	a4,a4,1
    8000186c:	00468693          	addi	a3,a3,4
    80001870:	00279793          	slli	a5,a5,0x2
    80001874:	00f487b3          	add	a5,s1,a5
    80001878:	00e7a023          	sw	a4,0(a5)
    8000187c:	ff5714e3          	bne	a4,s5,80001864 <_Z11suffixArrayPiS_ii+0x5c4>
    80001880:	cd9ff06f          	j	80001558 <_Z11suffixArrayPiS_ii+0x2b8>
    80001884:	002d0d1b          	addiw	s10,s10,2
    80001888:	e01ff06f          	j	80001688 <_Z11suffixArrayPiS_ii+0x3e8>

000000008000188c <bench_ssort_prepare>:
    8000188c:	00006797          	auipc	a5,0x6
    80001890:	18c7b783          	ld	a5,396(a5) # 80007a18 <setting>
    80001894:	0007a783          	lw	a5,0(a5)
    80001898:	fd010113          	addi	sp,sp,-48
    8000189c:	01213823          	sd	s2,16(sp)
    800018a0:	00100513          	li	a0,1
    800018a4:	00006917          	auipc	s2,0x6
    800018a8:	07490913          	addi	s2,s2,116 # 80007918 <_ZL1N>
    800018ac:	02113423          	sd	ra,40(sp)
    800018b0:	00f92023          	sw	a5,0(s2)
    800018b4:	01313423          	sd	s3,8(sp)
    800018b8:	02813023          	sd	s0,32(sp)
    800018bc:	00913c23          	sd	s1,24(sp)
    800018c0:	cf5fe0ef          	jal	ra,800005b4 <bench_srand>
    800018c4:	00092503          	lw	a0,0(s2)
    800018c8:	00006997          	auipc	s3,0x6
    800018cc:	05898993          	addi	s3,s3,88 # 80007920 <_ZL1s>
    800018d0:	00a5051b          	addiw	a0,a0,10
    800018d4:	00251513          	slli	a0,a0,0x2
    800018d8:	c41fe0ef          	jal	ra,80000518 <bench_alloc>
    800018dc:	00092783          	lw	a5,0(s2)
    800018e0:	00a9b023          	sd	a0,0(s3)
    800018e4:	00a7851b          	addiw	a0,a5,10
    800018e8:	00251513          	slli	a0,a0,0x2
    800018ec:	c2dfe0ef          	jal	ra,80000518 <bench_alloc>
    800018f0:	00092783          	lw	a5,0(s2)
    800018f4:	00006717          	auipc	a4,0x6
    800018f8:	02a73a23          	sd	a0,52(a4) # 80007928 <_ZL2sa>
    800018fc:	02f05e63          	blez	a5,80001938 <bench_ssort_prepare+0xac>
    80001900:	00000413          	li	s0,0
    80001904:	cc5fe0ef          	jal	ra,800005c8 <bench_rand>
    80001908:	0009b483          	ld	s1,0(s3)
    8000190c:	02051513          	slli	a0,a0,0x20
    80001910:	00241793          	slli	a5,s0,0x2
    80001914:	01a00593          	li	a1,26
    80001918:	02055513          	srli	a0,a0,0x20
    8000191c:	00f484b3          	add	s1,s1,a5
    80001920:	068030ef          	jal	ra,80004988 <__umoddi3>
    80001924:	00092703          	lw	a4,0(s2)
    80001928:	00140413          	addi	s0,s0,1
    8000192c:	00a4a023          	sw	a0,0(s1)
    80001930:	0004079b          	sext.w	a5,s0
    80001934:	fce7c8e3          	blt	a5,a4,80001904 <bench_ssort_prepare+0x78>
    80001938:	02813083          	ld	ra,40(sp)
    8000193c:	02013403          	ld	s0,32(sp)
    80001940:	01813483          	ld	s1,24(sp)
    80001944:	01013903          	ld	s2,16(sp)
    80001948:	00813983          	ld	s3,8(sp)
    8000194c:	03010113          	addi	sp,sp,48
    80001950:	00008067          	ret

0000000080001954 <bench_ssort_run>:
    80001954:	01a00693          	li	a3,26
    80001958:	00006617          	auipc	a2,0x6
    8000195c:	fc062603          	lw	a2,-64(a2) # 80007918 <_ZL1N>
    80001960:	00006597          	auipc	a1,0x6
    80001964:	fc85b583          	ld	a1,-56(a1) # 80007928 <_ZL2sa>
    80001968:	00006517          	auipc	a0,0x6
    8000196c:	fb853503          	ld	a0,-72(a0) # 80007920 <_ZL1s>
    80001970:	931ff06f          	j	800012a0 <_Z11suffixArrayPiS_ii>

0000000080001974 <bench_ssort_validate>:
    80001974:	00006597          	auipc	a1,0x6
    80001978:	fa45a583          	lw	a1,-92(a1) # 80007918 <_ZL1N>
    8000197c:	00006517          	auipc	a0,0x6
    80001980:	fac53503          	ld	a0,-84(a0) # 80007928 <_ZL2sa>
    80001984:	00259593          	slli	a1,a1,0x2
    80001988:	ff010113          	addi	sp,sp,-16
    8000198c:	00b505b3          	add	a1,a0,a1
    80001990:	00113423          	sd	ra,8(sp)
    80001994:	c85fe0ef          	jal	ra,80000618 <checksum>
    80001998:	00006797          	auipc	a5,0x6
    8000199c:	0807b783          	ld	a5,128(a5) # 80007a18 <setting>
    800019a0:	0187a783          	lw	a5,24(a5)
    800019a4:	00813083          	ld	ra,8(sp)
    800019a8:	0005051b          	sext.w	a0,a0
    800019ac:	40a78533          	sub	a0,a5,a0
    800019b0:	00153513          	seqz	a0,a0
    800019b4:	01010113          	addi	sp,sp,16
    800019b8:	00008067          	ret

00000000800019bc <bench_15pz_prepare>:
    800019bc:	00008067          	ret

00000000800019c0 <bench_15pz_validate>:
    800019c0:	00006797          	auipc	a5,0x6
    800019c4:	0587b783          	ld	a5,88(a5) # 80007a18 <setting>
    800019c8:	0187a503          	lw	a0,24(a5)
    800019cc:	00006797          	auipc	a5,0x6
    800019d0:	f647a783          	lw	a5,-156(a5) # 80007930 <_ZL3ans>
    800019d4:	40f50533          	sub	a0,a0,a5
    800019d8:	00153513          	seqz	a0,a0
    800019dc:	00008067          	ret

00000000800019e0 <_ZN8N_puzzleILi4EEC1Ev>:
    800019e0:	f6010113          	addi	sp,sp,-160
    800019e4:	07613023          	sd	s6,96(sp)
    800019e8:	08113c23          	sd	ra,152(sp)
    800019ec:	08813823          	sd	s0,144(sp)
    800019f0:	08913423          	sd	s1,136(sp)
    800019f4:	09213023          	sd	s2,128(sp)
    800019f8:	07313c23          	sd	s3,120(sp)
    800019fc:	07413823          	sd	s4,112(sp)
    80001a00:	07513423          	sd	s5,104(sp)
    80001a04:	05713c23          	sd	s7,88(sp)
    80001a08:	05813823          	sd	s8,80(sp)
    80001a0c:	05913423          	sd	s9,72(sp)
    80001a10:	00100793          	li	a5,1
    80001a14:	00f50023          	sb	a5,0(a0)
    80001a18:	00050b13          	mv	s6,a0
    80001a1c:	000501a3          	sb	zero,3(a0)
    80001a20:	00010713          	mv	a4,sp
    80001a24:	00000793          	li	a5,0
    80001a28:	01000693          	li	a3,16
    80001a2c:	00f72023          	sw	a5,0(a4)
    80001a30:	0017879b          	addiw	a5,a5,1
    80001a34:	00470713          	addi	a4,a4,4
    80001a38:	fed79ae3          	bne	a5,a3,80001a2c <_ZN8N_puzzleILi4EEC1Ev+0x4c>
    80001a3c:	03c10a13          	addi	s4,sp,60
    80001a40:	000b0413          	mv	s0,s6
    80001a44:	00000993          	li	s3,0
    80001a48:	00000c93          	li	s9,0
    80001a4c:	00400913          	li	s2,4
    80001a50:	ff000a93          	li	s5,-16
    80001a54:	000a0c13          	mv	s8,s4
    80001a58:	00000b93          	li	s7,0
    80001a5c:	0109849b          	addiw	s1,s3,16
    80001a60:	b69fe0ef          	jal	ra,800005c8 <bench_rand>
    80001a64:	417485bb          	subw	a1,s1,s7
    80001a68:	02059593          	slli	a1,a1,0x20
    80001a6c:	02051513          	slli	a0,a0,0x20
    80001a70:	0205d593          	srli	a1,a1,0x20
    80001a74:	02055513          	srli	a0,a0,0x20
    80001a78:	711020ef          	jal	ra,80004988 <__umoddi3>
    80001a7c:	0005051b          	sext.w	a0,a0
    80001a80:	00251513          	slli	a0,a0,0x2
    80001a84:	04010793          	addi	a5,sp,64
    80001a88:	00a787b3          	add	a5,a5,a0
    80001a8c:	fc07a583          	lw	a1,-64(a5)
    80001a90:	000b871b          	sext.w	a4,s7
    80001a94:	01740833          	add	a6,s0,s7
    80001a98:	fff5879b          	addiw	a5,a1,-1
    80001a9c:	41f7d69b          	sraiw	a3,a5,0x1f
    80001aa0:	01e6d61b          	srliw	a2,a3,0x1e
    80001aa4:	00f607bb          	addw	a5,a2,a5
    80001aa8:	0037f693          	andi	a3,a5,3
    80001aac:	40c686bb          	subw	a3,a3,a2
    80001ab0:	4027d79b          	sraiw	a5,a5,0x2
    80001ab4:	419787bb          	subw	a5,a5,s9
    80001ab8:	40e6873b          	subw	a4,a3,a4
    80001abc:	41f7d61b          	sraiw	a2,a5,0x1f
    80001ac0:	41f7569b          	sraiw	a3,a4,0x1f
    80001ac4:	00f647b3          	xor	a5,a2,a5
    80001ac8:	00e6c733          	xor	a4,a3,a4
    80001acc:	40c787bb          	subw	a5,a5,a2
    80001ad0:	40d7073b          	subw	a4,a4,a3
    80001ad4:	00b80223          	sb	a1,4(a6)
    80001ad8:	00e787bb          	addw	a5,a5,a4
    80001adc:	0c059063          	bnez	a1,80001b9c <_ZN8N_puzzleILi4EEC1Ev+0x1bc>
    80001ae0:	019b00a3          	sb	s9,1(s6)
    80001ae4:	017b0123          	sb	s7,2(s6)
    80001ae8:	000c2783          	lw	a5,0(s8)
    80001aec:	04010713          	addi	a4,sp,64
    80001af0:	00a70533          	add	a0,a4,a0
    80001af4:	001b8b93          	addi	s7,s7,1
    80001af8:	fcf52023          	sw	a5,-64(a0)
    80001afc:	ffcc0c13          	addi	s8,s8,-4
    80001b00:	f72b90e3          	bne	s7,s2,80001a60 <_ZN8N_puzzleILi4EEC1Ev+0x80>
    80001b04:	ffc9899b          	addiw	s3,s3,-4
    80001b08:	001c8c9b          	addiw	s9,s9,1
    80001b0c:	ff0a0a13          	addi	s4,s4,-16
    80001b10:	00440413          	addi	s0,s0,4
    80001b14:	f55990e3          	bne	s3,s5,80001a54 <_ZN8N_puzzleILi4EEC1Ev+0x74>
    80001b18:	000b2a23          	sw	zero,20(s6)
    80001b1c:	004b0593          	addi	a1,s6,4
    80001b20:	014b0513          	addi	a0,s6,20
    80001b24:	00000713          	li	a4,0
    80001b28:	ffc58693          	addi	a3,a1,-4
    80001b2c:	0057179b          	slliw	a5,a4,0x5
    80001b30:	40e787bb          	subw	a5,a5,a4
    80001b34:	0027979b          	slliw	a5,a5,0x2
    80001b38:	40e787bb          	subw	a5,a5,a4
    80001b3c:	0027979b          	slliw	a5,a5,0x2
    80001b40:	00468603          	lb	a2,4(a3)
    80001b44:	00e787bb          	addw	a5,a5,a4
    80001b48:	0027979b          	slliw	a5,a5,0x2
    80001b4c:	00e7873b          	addw	a4,a5,a4
    80001b50:	00168693          	addi	a3,a3,1
    80001b54:	00c7073b          	addw	a4,a4,a2
    80001b58:	fcb69ae3          	bne	a3,a1,80001b2c <_ZN8N_puzzleILi4EEC1Ev+0x14c>
    80001b5c:	00468593          	addi	a1,a3,4
    80001b60:	fcb514e3          	bne	a0,a1,80001b28 <_ZN8N_puzzleILi4EEC1Ev+0x148>
    80001b64:	09813083          	ld	ra,152(sp)
    80001b68:	09013403          	ld	s0,144(sp)
    80001b6c:	00eb2a23          	sw	a4,20(s6)
    80001b70:	08813483          	ld	s1,136(sp)
    80001b74:	08013903          	ld	s2,128(sp)
    80001b78:	07813983          	ld	s3,120(sp)
    80001b7c:	07013a03          	ld	s4,112(sp)
    80001b80:	06813a83          	ld	s5,104(sp)
    80001b84:	06013b03          	ld	s6,96(sp)
    80001b88:	05813b83          	ld	s7,88(sp)
    80001b8c:	05013c03          	ld	s8,80(sp)
    80001b90:	04813c83          	ld	s9,72(sp)
    80001b94:	0a010113          	addi	sp,sp,160
    80001b98:	00008067          	ret
    80001b9c:	003b4703          	lbu	a4,3(s6)
    80001ba0:	00e787bb          	addw	a5,a5,a4
    80001ba4:	00fb01a3          	sb	a5,3(s6)
    80001ba8:	f41ff06f          	j	80001ae8 <_ZN8N_puzzleILi4EEC1Ev+0x108>

0000000080001bac <_ZN8N_puzzleILi4EEC1EPi>:
    80001bac:	fe010113          	addi	sp,sp,-32
    80001bb0:	00100793          	li	a5,1
    80001bb4:	00010e93          	mv	t4,sp
    80001bb8:	00f50023          	sb	a5,0(a0)
    80001bbc:	00813c23          	sd	s0,24(sp)
    80001bc0:	000501a3          	sb	zero,3(a0)
    80001bc4:	01010f13          	addi	t5,sp,16
    80001bc8:	000e8793          	mv	a5,t4
    80001bcc:	00078023          	sb	zero,0(a5)
    80001bd0:	00178793          	addi	a5,a5,1
    80001bd4:	ffe79ce3          	bne	a5,t5,80001bcc <_ZN8N_puzzleILi4EEC1EPi+0x20>
    80001bd8:	00050f93          	mv	t6,a0
    80001bdc:	00000e13          	li	t3,0
    80001be0:	00100393          	li	t2,1
    80001be4:	00400293          	li	t0,4
    80001be8:	00058313          	mv	t1,a1
    80001bec:	00000613          	li	a2,0
    80001bf0:	00032803          	lw	a6,0(t1)
    80001bf4:	0006071b          	sext.w	a4,a2
    80001bf8:	00cf8433          	add	s0,t6,a2
    80001bfc:	fff8079b          	addiw	a5,a6,-1
    80001c00:	41f7d69b          	sraiw	a3,a5,0x1f
    80001c04:	01e6d89b          	srliw	a7,a3,0x1e
    80001c08:	00f887bb          	addw	a5,a7,a5
    80001c0c:	0037f693          	andi	a3,a5,3
    80001c10:	411686bb          	subw	a3,a3,a7
    80001c14:	40e6873b          	subw	a4,a3,a4
    80001c18:	41f7569b          	sraiw	a3,a4,0x1f
    80001c1c:	4027d79b          	sraiw	a5,a5,0x2
    80001c20:	41c787bb          	subw	a5,a5,t3
    80001c24:	00e6c733          	xor	a4,a3,a4
    80001c28:	41f7d89b          	sraiw	a7,a5,0x1f
    80001c2c:	40d7073b          	subw	a4,a4,a3
    80001c30:	01010693          	addi	a3,sp,16
    80001c34:	00f8c7b3          	xor	a5,a7,a5
    80001c38:	010686b3          	add	a3,a3,a6
    80001c3c:	411787bb          	subw	a5,a5,a7
    80001c40:	01040223          	sb	a6,4(s0)
    80001c44:	fe768823          	sb	t2,-16(a3)
    80001c48:	00e787bb          	addw	a5,a5,a4
    80001c4c:	08081a63          	bnez	a6,80001ce0 <_ZN8N_puzzleILi4EEC1EPi+0x134>
    80001c50:	01c500a3          	sb	t3,1(a0)
    80001c54:	00c50123          	sb	a2,2(a0)
    80001c58:	00160613          	addi	a2,a2,1
    80001c5c:	00430313          	addi	t1,t1,4
    80001c60:	f85618e3          	bne	a2,t0,80001bf0 <_ZN8N_puzzleILi4EEC1EPi+0x44>
    80001c64:	001e0e1b          	addiw	t3,t3,1
    80001c68:	01058593          	addi	a1,a1,16
    80001c6c:	004f8f93          	addi	t6,t6,4
    80001c70:	f65e1ce3          	bne	t3,t0,80001be8 <_ZN8N_puzzleILi4EEC1EPi+0x3c>
    80001c74:	000ec783          	lbu	a5,0(t4)
    80001c78:	001e8e93          	addi	t4,t4,1
    80001c7c:	06078a63          	beqz	a5,80001cf0 <_ZN8N_puzzleILi4EEC1EPi+0x144>
    80001c80:	ffee9ae3          	bne	t4,t5,80001c74 <_ZN8N_puzzleILi4EEC1EPi+0xc8>
    80001c84:	00052a23          	sw	zero,20(a0)
    80001c88:	00450593          	addi	a1,a0,4
    80001c8c:	01450813          	addi	a6,a0,20
    80001c90:	00000713          	li	a4,0
    80001c94:	ffc58693          	addi	a3,a1,-4
    80001c98:	0057179b          	slliw	a5,a4,0x5
    80001c9c:	40e787bb          	subw	a5,a5,a4
    80001ca0:	0027979b          	slliw	a5,a5,0x2
    80001ca4:	40e787bb          	subw	a5,a5,a4
    80001ca8:	0027979b          	slliw	a5,a5,0x2
    80001cac:	00468603          	lb	a2,4(a3)
    80001cb0:	00e787bb          	addw	a5,a5,a4
    80001cb4:	0027979b          	slliw	a5,a5,0x2
    80001cb8:	00e7873b          	addw	a4,a5,a4
    80001cbc:	00168693          	addi	a3,a3,1
    80001cc0:	00c7073b          	addw	a4,a4,a2
    80001cc4:	fcb69ae3          	bne	a3,a1,80001c98 <_ZN8N_puzzleILi4EEC1EPi+0xec>
    80001cc8:	00468593          	addi	a1,a3,4
    80001ccc:	fcb814e3          	bne	a6,a1,80001c94 <_ZN8N_puzzleILi4EEC1EPi+0xe8>
    80001cd0:	01813403          	ld	s0,24(sp)
    80001cd4:	00e52a23          	sw	a4,20(a0)
    80001cd8:	02010113          	addi	sp,sp,32
    80001cdc:	00008067          	ret
    80001ce0:	00354703          	lbu	a4,3(a0)
    80001ce4:	00e787bb          	addw	a5,a5,a4
    80001ce8:	00f501a3          	sb	a5,3(a0)
    80001cec:	f6dff06f          	j	80001c58 <_ZN8N_puzzleILi4EEC1EPi+0xac>
    80001cf0:	01813403          	ld	s0,24(sp)
    80001cf4:	00050023          	sb	zero,0(a0)
    80001cf8:	02010113          	addi	sp,sp,32
    80001cfc:	00008067          	ret

0000000080001d00 <_ZNK8N_puzzleILi4EEeqERKS0_>:
    80001d00:	00050713          	mv	a4,a0
    80001d04:	00054503          	lbu	a0,0(a0)
    80001d08:	04050863          	beqz	a0,80001d58 <_ZNK8N_puzzleILi4EEeqERKS0_+0x58>
    80001d0c:	0005c503          	lbu	a0,0(a1)
    80001d10:	04050463          	beqz	a0,80001d58 <_ZNK8N_puzzleILi4EEeqERKS0_+0x58>
    80001d14:	0145a683          	lw	a3,20(a1)
    80001d18:	01472783          	lw	a5,20(a4)
    80001d1c:	02f69c63          	bne	a3,a5,80001d54 <_ZNK8N_puzzleILi4EEeqERKS0_+0x54>
    80001d20:	00800693          	li	a3,8
    80001d24:	01800893          	li	a7,24
    80001d28:	ffc68793          	addi	a5,a3,-4
    80001d2c:	00f70833          	add	a6,a4,a5
    80001d30:	00f58633          	add	a2,a1,a5
    80001d34:	00084803          	lbu	a6,0(a6)
    80001d38:	00064603          	lbu	a2,0(a2)
    80001d3c:	00178793          	addi	a5,a5,1
    80001d40:	00c81a63          	bne	a6,a2,80001d54 <_ZNK8N_puzzleILi4EEeqERKS0_+0x54>
    80001d44:	fed794e3          	bne	a5,a3,80001d2c <_ZNK8N_puzzleILi4EEeqERKS0_+0x2c>
    80001d48:	00468693          	addi	a3,a3,4
    80001d4c:	fd169ee3          	bne	a3,a7,80001d28 <_ZNK8N_puzzleILi4EEeqERKS0_+0x28>
    80001d50:	00008067          	ret
    80001d54:	00000513          	li	a0,0
    80001d58:	00008067          	ret

0000000080001d5c <_ZNK14Updatable_heapI8N_puzzleILi4EEE7pointerERKS1_.isra.0>:
    80001d5c:	00064783          	lbu	a5,0(a2)
    80001d60:	fe010113          	addi	sp,sp,-32
    80001d64:	00913423          	sd	s1,8(sp)
    80001d68:	00113c23          	sd	ra,24(sp)
    80001d6c:	00813823          	sd	s0,16(sp)
    80001d70:	00060493          	mv	s1,a2
    80001d74:	00078e63          	beqz	a5,80001d90 <_ZNK14Updatable_heapI8N_puzzleILi4EEE7pointerERKS1_.isra.0+0x34>
    80001d78:	01462783          	lw	a5,20(a2)
    80001d7c:	fff5051b          	addiw	a0,a0,-1
    80001d80:	00a7f533          	and	a0,a5,a0
    80001d84:	02051793          	slli	a5,a0,0x20
    80001d88:	01d7d793          	srli	a5,a5,0x1d
    80001d8c:	00f585b3          	add	a1,a1,a5
    80001d90:	0005b403          	ld	s0,0(a1)
    80001d94:	00041863          	bnez	s0,80001da4 <_ZNK14Updatable_heapI8N_puzzleILi4EEE7pointerERKS1_.isra.0+0x48>
    80001d98:	01c0006f          	j	80001db4 <_ZNK14Updatable_heapI8N_puzzleILi4EEE7pointerERKS1_.isra.0+0x58>
    80001d9c:	01843403          	ld	s0,24(s0)
    80001da0:	00040a63          	beqz	s0,80001db4 <_ZNK14Updatable_heapI8N_puzzleILi4EEE7pointerERKS1_.isra.0+0x58>
    80001da4:	00040513          	mv	a0,s0
    80001da8:	00048593          	mv	a1,s1
    80001dac:	f55ff0ef          	jal	ra,80001d00 <_ZNK8N_puzzleILi4EEeqERKS0_>
    80001db0:	fe0506e3          	beqz	a0,80001d9c <_ZNK14Updatable_heapI8N_puzzleILi4EEE7pointerERKS1_.isra.0+0x40>
    80001db4:	01813083          	ld	ra,24(sp)
    80001db8:	00040513          	mv	a0,s0
    80001dbc:	01013403          	ld	s0,16(sp)
    80001dc0:	00813483          	ld	s1,8(sp)
    80001dc4:	02010113          	addi	sp,sp,32
    80001dc8:	00008067          	ret

0000000080001dcc <_ZN14Updatable_heapI8N_puzzleILi4EEE12percolate_upEi>:
    80001dcc:	00100793          	li	a5,1
    80001dd0:	06f58463          	beq	a1,a5,80001e38 <_ZN14Updatable_heapI8N_puzzleILi4EEE12percolate_upEi+0x6c>
    80001dd4:	01053883          	ld	a7,16(a0)
    80001dd8:	00359793          	slli	a5,a1,0x3
    80001ddc:	00100e93          	li	t4,1
    80001de0:	00f887b3          	add	a5,a7,a5
    80001de4:	0007b603          	ld	a2,0(a5)
    80001de8:	01c0006f          	j	80001e04 <_ZN14Updatable_heapI8N_puzzleILi4EEE12percolate_upEi+0x38>
    80001dec:	0106b023          	sd	a6,0(a3)
    80001df0:	00c73023          	sd	a2,0(a4)
    80001df4:	0006b703          	ld	a4,0(a3)
    80001df8:	02f62023          	sw	a5,32(a2)
    80001dfc:	02a72023          	sw	a0,32(a4)
    80001e00:	03d58c63          	beq	a1,t4,80001e38 <_ZN14Updatable_heapI8N_puzzleILi4EEE12percolate_upEi+0x6c>
    80001e04:	01f5d79b          	srliw	a5,a1,0x1f
    80001e08:	00b787bb          	addw	a5,a5,a1
    80001e0c:	4017d79b          	sraiw	a5,a5,0x1
    80001e10:	00058513          	mv	a0,a1
    80001e14:	0007859b          	sext.w	a1,a5
    80001e18:	00359713          	slli	a4,a1,0x3
    80001e1c:	00e88733          	add	a4,a7,a4
    80001e20:	00073803          	ld	a6,0(a4)
    80001e24:	02862303          	lw	t1,40(a2)
    80001e28:	00351693          	slli	a3,a0,0x3
    80001e2c:	02882e03          	lw	t3,40(a6)
    80001e30:	00d886b3          	add	a3,a7,a3
    80001e34:	fbc34ce3          	blt	t1,t3,80001dec <_ZN14Updatable_heapI8N_puzzleILi4EEE12percolate_upEi+0x20>
    80001e38:	00008067          	ret

0000000080001e3c <_ZN14Updatable_heapI8N_puzzleILi4EEE4pushERKS1_i>:
    80001e3c:	fd010113          	addi	sp,sp,-48
    80001e40:	01313423          	sd	s3,8(sp)
    80001e44:	00052983          	lw	s3,0(a0)
    80001e48:	00913c23          	sd	s1,24(sp)
    80001e4c:	00058493          	mv	s1,a1
    80001e50:	00853583          	ld	a1,8(a0)
    80001e54:	02813023          	sd	s0,32(sp)
    80001e58:	01213823          	sd	s2,16(sp)
    80001e5c:	00050413          	mv	s0,a0
    80001e60:	00060913          	mv	s2,a2
    80001e64:	00098513          	mv	a0,s3
    80001e68:	00048613          	mv	a2,s1
    80001e6c:	02113423          	sd	ra,40(sp)
    80001e70:	eedff0ef          	jal	ra,80001d5c <_ZNK14Updatable_heapI8N_puzzleILi4EEE7pointerERKS1_.isra.0>
    80001e74:	04050263          	beqz	a0,80001eb8 <_ZN14Updatable_heapI8N_puzzleILi4EEE4pushERKS1_i+0x7c>
    80001e78:	02c54783          	lbu	a5,44(a0)
    80001e7c:	02079063          	bnez	a5,80001e9c <_ZN14Updatable_heapI8N_puzzleILi4EEE4pushERKS1_i+0x60>
    80001e80:	00054703          	lbu	a4,0(a0)
    80001e84:	04000793          	li	a5,64
    80001e88:	00070463          	beqz	a4,80001e90 <_ZN14Updatable_heapI8N_puzzleILi4EEE4pushERKS1_i+0x54>
    80001e8c:	00350783          	lb	a5,3(a0)
    80001e90:	02852703          	lw	a4,40(a0)
    80001e94:	00f907bb          	addw	a5,s2,a5
    80001e98:	16e7cc63          	blt	a5,a4,80002010 <_ZN14Updatable_heapI8N_puzzleILi4EEE4pushERKS1_i+0x1d4>
    80001e9c:	02813083          	ld	ra,40(sp)
    80001ea0:	02013403          	ld	s0,32(sp)
    80001ea4:	01813483          	ld	s1,24(sp)
    80001ea8:	01013903          	ld	s2,16(sp)
    80001eac:	00813983          	ld	s3,8(sp)
    80001eb0:	03010113          	addi	sp,sp,48
    80001eb4:	00008067          	ret
    80001eb8:	01842783          	lw	a5,24(s0)
    80001ebc:	1af9c263          	blt	s3,a5,80002060 <_ZN14Updatable_heapI8N_puzzleILi4EEE4pushERKS1_i+0x224>
    80001ec0:	0017879b          	addiw	a5,a5,1
    80001ec4:	00f42c23          	sw	a5,24(s0)
    80001ec8:	03800513          	li	a0,56
    80001ecc:	e4cfe0ef          	jal	ra,80000518 <bench_alloc>
    80001ed0:	0004c803          	lbu	a6,0(s1)
    80001ed4:	00843683          	ld	a3,8(s0)
    80001ed8:	00000713          	li	a4,0
    80001edc:	12081663          	bnez	a6,80002008 <_ZN14Updatable_heapI8N_puzzleILi4EEE4pushERKS1_i+0x1cc>
    80001ee0:	00042603          	lw	a2,0(s0)
    80001ee4:	01842883          	lw	a7,24(s0)
    80001ee8:	00448793          	addi	a5,s1,4
    80001eec:	fff6061b          	addiw	a2,a2,-1
    80001ef0:	00c77733          	and	a4,a4,a2
    80001ef4:	02071713          	slli	a4,a4,0x20
    80001ef8:	01d75713          	srli	a4,a4,0x1d
    80001efc:	00e68733          	add	a4,a3,a4
    80001f00:	00073303          	ld	t1,0(a4)
    80001f04:	01050023          	sb	a6,0(a0)
    80001f08:	0014c683          	lbu	a3,1(s1)
    80001f0c:	00450713          	addi	a4,a0,4
    80001f10:	01448593          	addi	a1,s1,20
    80001f14:	00d500a3          	sb	a3,1(a0)
    80001f18:	0024c683          	lbu	a3,2(s1)
    80001f1c:	00d50123          	sb	a3,2(a0)
    80001f20:	00348603          	lb	a2,3(s1)
    80001f24:	00c501a3          	sb	a2,3(a0)
    80001f28:	0144a683          	lw	a3,20(s1)
    80001f2c:	00d52a23          	sw	a3,20(a0)
    80001f30:	00078683          	lb	a3,0(a5)
    80001f34:	00478793          	addi	a5,a5,4
    80001f38:	00470713          	addi	a4,a4,4
    80001f3c:	fed70e23          	sb	a3,-4(a4)
    80001f40:	ffd78683          	lb	a3,-3(a5)
    80001f44:	fed70ea3          	sb	a3,-3(a4)
    80001f48:	ffe78683          	lb	a3,-2(a5)
    80001f4c:	fed70f23          	sb	a3,-2(a4)
    80001f50:	fff78683          	lb	a3,-1(a5)
    80001f54:	fed70fa3          	sb	a3,-1(a4)
    80001f58:	fcb79ce3          	bne	a5,a1,80001f30 <_ZN14Updatable_heapI8N_puzzleILi4EEE4pushERKS1_i+0xf4>
    80001f5c:	00653c23          	sd	t1,24(a0)
    80001f60:	03152023          	sw	a7,32(a0)
    80001f64:	03252223          	sw	s2,36(a0)
    80001f68:	0c080863          	beqz	a6,80002038 <_ZN14Updatable_heapI8N_puzzleILi4EEE4pushERKS1_i+0x1fc>
    80001f6c:	02050623          	sb	zero,44(a0)
    80001f70:	0004c703          	lbu	a4,0(s1)
    80001f74:	0126093b          	addw	s2,a2,s2
    80001f78:	03252423          	sw	s2,40(a0)
    80001f7c:	02053823          	sd	zero,48(a0)
    80001f80:	00843683          	ld	a3,8(s0)
    80001f84:	00000793          	li	a5,0
    80001f88:	00070463          	beqz	a4,80001f90 <_ZN14Updatable_heapI8N_puzzleILi4EEE4pushERKS1_i+0x154>
    80001f8c:	0144a783          	lw	a5,20(s1)
    80001f90:	00042603          	lw	a2,0(s0)
    80001f94:	01842583          	lw	a1,24(s0)
    80001f98:	01043703          	ld	a4,16(s0)
    80001f9c:	fff6061b          	addiw	a2,a2,-1
    80001fa0:	00c7f7b3          	and	a5,a5,a2
    80001fa4:	02079793          	slli	a5,a5,0x20
    80001fa8:	01d7d793          	srli	a5,a5,0x1d
    80001fac:	00f687b3          	add	a5,a3,a5
    80001fb0:	00359693          	slli	a3,a1,0x3
    80001fb4:	00a7b023          	sd	a0,0(a5)
    80001fb8:	00d707b3          	add	a5,a4,a3
    80001fbc:	00a7b023          	sd	a0,0(a5)
    80001fc0:	00040513          	mv	a0,s0
    80001fc4:	e09ff0ef          	jal	ra,80001dcc <_ZN14Updatable_heapI8N_puzzleILi4EEE12percolate_upEi>
    80001fc8:	01842703          	lw	a4,24(s0)
    80001fcc:	01c42783          	lw	a5,28(s0)
    80001fd0:	0007069b          	sext.w	a3,a4
    80001fd4:	0007861b          	sext.w	a2,a5
    80001fd8:	02d64263          	blt	a2,a3,80001ffc <_ZN14Updatable_heapI8N_puzzleILi4EEE4pushERKS1_i+0x1c0>
    80001fdc:	00f42e23          	sw	a5,28(s0)
    80001fe0:	02813083          	ld	ra,40(sp)
    80001fe4:	02013403          	ld	s0,32(sp)
    80001fe8:	01813483          	ld	s1,24(sp)
    80001fec:	01013903          	ld	s2,16(sp)
    80001ff0:	00813983          	ld	s3,8(sp)
    80001ff4:	03010113          	addi	sp,sp,48
    80001ff8:	00008067          	ret
    80001ffc:	00070793          	mv	a5,a4
    80002000:	00f42e23          	sw	a5,28(s0)
    80002004:	fddff06f          	j	80001fe0 <_ZN14Updatable_heapI8N_puzzleILi4EEE4pushERKS1_i+0x1a4>
    80002008:	0144a703          	lw	a4,20(s1)
    8000200c:	ed5ff06f          	j	80001ee0 <_ZN14Updatable_heapI8N_puzzleILi4EEE4pushERKS1_i+0xa4>
    80002010:	02052583          	lw	a1,32(a0)
    80002014:	02f52423          	sw	a5,40(a0)
    80002018:	00040513          	mv	a0,s0
    8000201c:	02013403          	ld	s0,32(sp)
    80002020:	02813083          	ld	ra,40(sp)
    80002024:	01813483          	ld	s1,24(sp)
    80002028:	01013903          	ld	s2,16(sp)
    8000202c:	00813983          	ld	s3,8(sp)
    80002030:	03010113          	addi	sp,sp,48
    80002034:	d99ff06f          	j	80001dcc <_ZN14Updatable_heapI8N_puzzleILi4EEE12percolate_upEi>
    80002038:	02050623          	sb	zero,44(a0)
    8000203c:	0004c703          	lbu	a4,0(s1)
    80002040:	04000613          	li	a2,64
    80002044:	0126093b          	addw	s2,a2,s2
    80002048:	03252423          	sw	s2,40(a0)
    8000204c:	02053823          	sd	zero,48(a0)
    80002050:	00843683          	ld	a3,8(s0)
    80002054:	00000793          	li	a5,0
    80002058:	f2070ce3          	beqz	a4,80001f90 <_ZN14Updatable_heapI8N_puzzleILi4EEE4pushERKS1_i+0x154>
    8000205c:	f31ff06f          	j	80001f8c <_ZN14Updatable_heapI8N_puzzleILi4EEE4pushERKS1_i+0x150>
    80002060:	09800613          	li	a2,152
    80002064:	00004597          	auipc	a1,0x4
    80002068:	52c58593          	addi	a1,a1,1324 # 80006590 <_etext+0x3b0>
    8000206c:	00004517          	auipc	a0,0x4
    80002070:	1b450513          	addi	a0,a0,436 # 80006220 <_etext+0x40>
    80002074:	615030ef          	jal	ra,80005e88 <printf_>
    80002078:	00100513          	li	a0,1
    8000207c:	011020ef          	jal	ra,8000488c <halt>

0000000080002080 <_ZN14Updatable_heapI8N_puzzleILi4EEE14percolate_downEv>:
    80002080:	01852783          	lw	a5,24(a0)
    80002084:	00200713          	li	a4,2
    80002088:	0ef75263          	bge	a4,a5,8000216c <_ZN14Updatable_heapI8N_puzzleILi4EEE14percolate_downEv+0xec>
    8000208c:	01053603          	ld	a2,16(a0)
    80002090:	00100293          	li	t0,1
    80002094:	02c0006f          	j	800020c0 <_ZN14Updatable_heapI8N_puzzleILi4EEE14percolate_downEv+0x40>
    80002098:	0deec863          	blt	t4,t5,80002168 <_ZN14Updatable_heapI8N_puzzleILi4EEE14percolate_downEv+0xe8>
    8000209c:	0107b023          	sd	a6,0(a5)
    800020a0:	00b6b023          	sd	a1,0(a3)
    800020a4:	0007b783          	ld	a5,0(a5)
    800020a8:	0255a023          	sw	t0,32(a1)
    800020ac:	000f829b          	sext.w	t0,t6
    800020b0:	03f7a023          	sw	t6,32(a5)
    800020b4:	01852783          	lw	a5,24(a0)
    800020b8:	0012971b          	slliw	a4,t0,0x1
    800020bc:	06f75263          	bge	a4,a5,80002120 <_ZN14Updatable_heapI8N_puzzleILi4EEE14percolate_downEv+0xa0>
    800020c0:	00371793          	slli	a5,a4,0x3
    800020c4:	00329693          	slli	a3,t0,0x3
    800020c8:	00f60333          	add	t1,a2,a5
    800020cc:	00d606b3          	add	a3,a2,a3
    800020d0:	0006b803          	ld	a6,0(a3)
    800020d4:	00033883          	ld	a7,0(t1)
    800020d8:	00878793          	addi	a5,a5,8
    800020dc:	00f607b3          	add	a5,a2,a5
    800020e0:	0007b583          	ld	a1,0(a5)
    800020e4:	02882e83          	lw	t4,40(a6)
    800020e8:	0288ae03          	lw	t3,40(a7)
    800020ec:	0285af03          	lw	t5,40(a1)
    800020f0:	00170f9b          	addiw	t6,a4,1
    800020f4:	fbcec2e3          	blt	t4,t3,80002098 <_ZN14Updatable_heapI8N_puzzleILi4EEE14percolate_downEv+0x18>
    800020f8:	fbee52e3          	bge	t3,t5,8000209c <_ZN14Updatable_heapI8N_puzzleILi4EEE14percolate_downEv+0x1c>
    800020fc:	01033023          	sd	a6,0(t1)
    80002100:	0116b023          	sd	a7,0(a3)
    80002104:	00033783          	ld	a5,0(t1)
    80002108:	0258a023          	sw	t0,32(a7)
    8000210c:	00070293          	mv	t0,a4
    80002110:	02e7a023          	sw	a4,32(a5)
    80002114:	01852783          	lw	a5,24(a0)
    80002118:	0012971b          	slliw	a4,t0,0x1
    8000211c:	faf742e3          	blt	a4,a5,800020c0 <_ZN14Updatable_heapI8N_puzzleILi4EEE14percolate_downEv+0x40>
    80002120:	00f70463          	beq	a4,a5,80002128 <_ZN14Updatable_heapI8N_puzzleILi4EEE14percolate_downEv+0xa8>
    80002124:	00008067          	ret
    80002128:	01053683          	ld	a3,16(a0)
    8000212c:	00329613          	slli	a2,t0,0x3
    80002130:	00371793          	slli	a5,a4,0x3
    80002134:	00f687b3          	add	a5,a3,a5
    80002138:	00c686b3          	add	a3,a3,a2
    8000213c:	0006b583          	ld	a1,0(a3)
    80002140:	0007b603          	ld	a2,0(a5)
    80002144:	0285a503          	lw	a0,40(a1)
    80002148:	02862803          	lw	a6,40(a2)
    8000214c:	fca85ce3          	bge	a6,a0,80002124 <_ZN14Updatable_heapI8N_puzzleILi4EEE14percolate_downEv+0xa4>
    80002150:	00b7b023          	sd	a1,0(a5)
    80002154:	00c6b023          	sd	a2,0(a3)
    80002158:	0007b783          	ld	a5,0(a5)
    8000215c:	02562023          	sw	t0,32(a2)
    80002160:	02e7a023          	sw	a4,32(a5)
    80002164:	00008067          	ret
    80002168:	00008067          	ret
    8000216c:	00200713          	li	a4,2
    80002170:	00100293          	li	t0,1
    80002174:	faf718e3          	bne	a4,a5,80002124 <_ZN14Updatable_heapI8N_puzzleILi4EEE14percolate_downEv+0xa4>
    80002178:	fb1ff06f          	j	80002128 <_ZN14Updatable_heapI8N_puzzleILi4EEE14percolate_downEv+0xa8>

000000008000217c <bench_15pz_run>:
    8000217c:	ed010113          	addi	sp,sp,-304
    80002180:	03810513          	addi	a0,sp,56
    80002184:	12113423          	sd	ra,296(sp)
    80002188:	12813023          	sd	s0,288(sp)
    8000218c:	10913c23          	sd	s1,280(sp)
    80002190:	11213823          	sd	s2,272(sp)
    80002194:	11313423          	sd	s3,264(sp)
    80002198:	11413023          	sd	s4,256(sp)
    8000219c:	0f513c23          	sd	s5,248(sp)
    800021a0:	0f613823          	sd	s6,240(sp)
    800021a4:	0f713423          	sd	s7,232(sp)
    800021a8:	0f813023          	sd	s8,224(sp)
    800021ac:	0d913c23          	sd	s9,216(sp)
    800021b0:	0da13823          	sd	s10,208(sp)
    800021b4:	0db13423          	sd	s11,200(sp)
    800021b8:	829ff0ef          	jal	ra,800019e0 <_ZN8N_puzzleILi4EEC1Ev>
    800021bc:	00006797          	auipc	a5,0x6
    800021c0:	85c7b783          	ld	a5,-1956(a5) # 80007a18 <setting>
    800021c4:	0007a783          	lw	a5,0(a5)
    800021c8:	00200713          	li	a4,2
    800021cc:	2ae78ae3          	beq	a5,a4,80002c80 <bench_15pz_run+0xb04>
    800021d0:	10f74e63          	blt	a4,a5,800022ec <bench_15pz_run+0x170>
    800021d4:	240780e3          	beqz	a5,80002c14 <bench_15pz_run+0xa98>
    800021d8:	00100713          	li	a4,1
    800021dc:	34e796e3          	bne	a5,a4,80002d28 <bench_15pz_run+0xbac>
    800021e0:	08010493          	addi	s1,sp,128
    800021e4:	00005597          	auipc	a1,0x5
    800021e8:	26c58593          	addi	a1,a1,620 # 80007450 <_ZL8PUZZLE_M>
    800021ec:	00048513          	mv	a0,s1
    800021f0:	9bdff0ef          	jal	ra,80001bac <_ZN8N_puzzleILi4EEC1EPi>
    800021f4:	08012783          	lw	a5,128(sp)
    800021f8:	08014803          	lbu	a6,128(sp)
    800021fc:	03810713          	addi	a4,sp,56
    80002200:	02f12c23          	sw	a5,56(sp)
    80002204:	09412783          	lw	a5,148(sp)
    80002208:	09010413          	addi	s0,sp,144
    8000220c:	04f12623          	sw	a5,76(sp)
    80002210:	00048793          	mv	a5,s1
    80002214:	0047c503          	lbu	a0,4(a5)
    80002218:	0057c583          	lbu	a1,5(a5)
    8000221c:	0067c603          	lbu	a2,6(a5)
    80002220:	0077c683          	lbu	a3,7(a5)
    80002224:	00a70223          	sb	a0,4(a4)
    80002228:	00b702a3          	sb	a1,5(a4)
    8000222c:	00c70323          	sb	a2,6(a4)
    80002230:	00d703a3          	sb	a3,7(a4)
    80002234:	00478793          	addi	a5,a5,4
    80002238:	00470713          	addi	a4,a4,4
    8000223c:	fc879ce3          	bne	a5,s0,80002214 <bench_15pz_run+0x98>
    80002240:	00001d37          	lui	s10,0x1
    80002244:	800d0793          	addi	a5,s10,-2048 # 800 <_entry_offset+0x800>
    80002248:	00f13823          	sd	a5,16(sp)
    8000224c:	10080a63          	beqz	a6,80002360 <bench_15pz_run+0x1e4>
    80002250:	00040613          	mv	a2,s0
    80002254:	03810513          	addi	a0,sp,56
    80002258:	00000593          	li	a1,0
    8000225c:	01000813          	li	a6,16
    80002260:	01000893          	li	a7,16
    80002264:	ff060793          	addi	a5,a2,-16
    80002268:	00050713          	mv	a4,a0
    8000226c:	00470683          	lb	a3,4(a4)
    80002270:	10069863          	bnez	a3,80002380 <bench_15pz_run+0x204>
    80002274:	0107a023          	sw	a6,0(a5)
    80002278:	00478793          	addi	a5,a5,4
    8000227c:	00170713          	addi	a4,a4,1
    80002280:	fef616e3          	bne	a2,a5,8000226c <bench_15pz_run+0xf0>
    80002284:	0045859b          	addiw	a1,a1,4
    80002288:	01060613          	addi	a2,a2,16
    8000228c:	00450513          	addi	a0,a0,4
    80002290:	fd159ae3          	bne	a1,a7,80002264 <bench_15pz_run+0xe8>
    80002294:	08012683          	lw	a3,128(sp)
    80002298:	00100513          	li	a0,1
    8000229c:	00000613          	li	a2,0
    800022a0:	00100793          	li	a5,1
    800022a4:	01000593          	li	a1,16
    800022a8:	00279713          	slli	a4,a5,0x2
    800022ac:	0c010813          	addi	a6,sp,192
    800022b0:	00e80733          	add	a4,a6,a4
    800022b4:	fc072703          	lw	a4,-64(a4)
    800022b8:	00d75463          	bge	a4,a3,800022c0 <bench_15pz_run+0x144>
    800022bc:	0016061b          	addiw	a2,a2,1
    800022c0:	0017879b          	addiw	a5,a5,1
    800022c4:	00078713          	mv	a4,a5
    800022c8:	feb790e3          	bne	a5,a1,800022a8 <bench_15pz_run+0x12c>
    800022cc:	0015079b          	addiw	a5,a0,1
    800022d0:	0ae78c63          	beq	a5,a4,80002388 <bench_15pz_run+0x20c>
    800022d4:	00251513          	slli	a0,a0,0x2
    800022d8:	0c010713          	addi	a4,sp,192
    800022dc:	00a70533          	add	a0,a4,a0
    800022e0:	fc052683          	lw	a3,-64(a0)
    800022e4:	00078513          	mv	a0,a5
    800022e8:	fc1ff06f          	j	800022a8 <bench_15pz_run+0x12c>
    800022ec:	00300713          	li	a4,3
    800022f0:	22e79ce3          	bne	a5,a4,80002d28 <bench_15pz_run+0xbac>
    800022f4:	08010493          	addi	s1,sp,128
    800022f8:	00005597          	auipc	a1,0x5
    800022fc:	0d858593          	addi	a1,a1,216 # 800073d0 <_ZL8PUZZLE_H>
    80002300:	00048513          	mv	a0,s1
    80002304:	8a9ff0ef          	jal	ra,80001bac <_ZN8N_puzzleILi4EEC1EPi>
    80002308:	08012783          	lw	a5,128(sp)
    8000230c:	08014803          	lbu	a6,128(sp)
    80002310:	03810713          	addi	a4,sp,56
    80002314:	02f12c23          	sw	a5,56(sp)
    80002318:	09412783          	lw	a5,148(sp)
    8000231c:	09010413          	addi	s0,sp,144
    80002320:	04f12623          	sw	a5,76(sp)
    80002324:	00048793          	mv	a5,s1
    80002328:	0047c503          	lbu	a0,4(a5)
    8000232c:	0057c583          	lbu	a1,5(a5)
    80002330:	0067c603          	lbu	a2,6(a5)
    80002334:	0077c683          	lbu	a3,7(a5)
    80002338:	00a70223          	sb	a0,4(a4)
    8000233c:	00b702a3          	sb	a1,5(a4)
    80002340:	00c70323          	sb	a2,6(a4)
    80002344:	00d703a3          	sb	a3,7(a4)
    80002348:	00478793          	addi	a5,a5,4
    8000234c:	00470713          	addi	a4,a4,4
    80002350:	fc879ce3          	bne	a5,s0,80002328 <bench_15pz_run+0x1ac>
    80002354:	000c07b7          	lui	a5,0xc0
    80002358:	00f13823          	sd	a5,16(sp)
    8000235c:	ee081ae3          	bnez	a6,80002250 <bench_15pz_run+0xd4>
    80002360:	03500613          	li	a2,53
    80002364:	00004597          	auipc	a1,0x4
    80002368:	26c58593          	addi	a1,a1,620 # 800065d0 <_etext+0x3f0>
    8000236c:	00004517          	auipc	a0,0x4
    80002370:	eb450513          	addi	a0,a0,-332 # 80006220 <_etext+0x40>
    80002374:	315030ef          	jal	ra,80005e88 <printf_>
    80002378:	00100513          	li	a0,1
    8000237c:	510020ef          	jal	ra,8000488c <halt>
    80002380:	00d7a023          	sw	a3,0(a5) # c0000 <_entry_offset+0xc0000>
    80002384:	ef5ff06f          	j	80002278 <bench_15pz_run+0xfc>
    80002388:	03914683          	lbu	a3,57(sp)
    8000238c:	03a14703          	lbu	a4,58(sp)
    80002390:	00600793          	li	a5,6
    80002394:	40d787bb          	subw	a5,a5,a3
    80002398:	40e787bb          	subw	a5,a5,a4
    8000239c:	00c787bb          	addw	a5,a5,a2
    800023a0:	0017f793          	andi	a5,a5,1
    800023a4:	fa079ee3          	bnez	a5,80002360 <bench_15pz_run+0x1e4>
    800023a8:	02000513          	li	a0,32
    800023ac:	96cfe0ef          	jal	ra,80000518 <bench_alloc>
    800023b0:	01013783          	ld	a5,16(sp)
    800023b4:	00050d93          	mv	s11,a0
    800023b8:	00f52023          	sw	a5,0(a0)
    800023bc:	00379513          	slli	a0,a5,0x3
    800023c0:	958fe0ef          	jal	ra,80000518 <bench_alloc>
    800023c4:	000da783          	lw	a5,0(s11)
    800023c8:	00adb823          	sd	a0,16(s11)
    800023cc:	0017879b          	addiw	a5,a5,1
    800023d0:	00379513          	slli	a0,a5,0x3
    800023d4:	944fe0ef          	jal	ra,80000518 <bench_alloc>
    800023d8:	000da703          	lw	a4,0(s11)
    800023dc:	00adb423          	sd	a0,8(s11)
    800023e0:	000dbc23          	sd	zero,24(s11)
    800023e4:	00050793          	mv	a5,a0
    800023e8:	02e05263          	blez	a4,8000240c <bench_15pz_run+0x290>
    800023ec:	fff7071b          	addiw	a4,a4,-1
    800023f0:	02071713          	slli	a4,a4,0x20
    800023f4:	01d75713          	srli	a4,a4,0x1d
    800023f8:	00850693          	addi	a3,a0,8
    800023fc:	00d70733          	add	a4,a4,a3
    80002400:	0007b023          	sd	zero,0(a5)
    80002404:	00878793          	addi	a5,a5,8
    80002408:	fef71ce3          	bne	a4,a5,80002400 <bench_15pz_run+0x284>
    8000240c:	03810593          	addi	a1,sp,56
    80002410:	00000613          	li	a2,0
    80002414:	000d8513          	mv	a0,s11
    80002418:	a25ff0ef          	jal	ra,80001e3c <_ZN14Updatable_heapI8N_puzzleILi4EEE4pushERKS1_i>
    8000241c:	018da583          	lw	a1,24(s11)
    80002420:	fff00793          	li	a5,-1
    80002424:	00005717          	auipc	a4,0x5
    80002428:	50c70713          	addi	a4,a4,1292 # 80007930 <_ZL3ans>
    8000242c:	00f72023          	sw	a5,0(a4)
    80002430:	00000913          	li	s2,0
    80002434:	46058863          	beqz	a1,800028a4 <bench_15pz_run+0x728>
    80002438:	01048793          	addi	a5,s1,16
    8000243c:	00100b13          	li	s6,1
    80002440:	00f00d13          	li	s10,15
    80002444:	01448c93          	addi	s9,s1,20
    80002448:	00f13423          	sd	a5,8(sp)
    8000244c:	06010993          	addi	s3,sp,96
    80002450:	010dbf03          	ld	t5,16(s11)
    80002454:	00048713          	mv	a4,s1
    80002458:	00048613          	mv	a2,s1
    8000245c:	008f3783          	ld	a5,8(t5)
    80002460:	00378683          	lb	a3,3(a5)
    80002464:	0007cb83          	lbu	s7,0(a5)
    80002468:	0017ca03          	lbu	s4,1(a5)
    8000246c:	0027ca83          	lbu	s5,2(a5)
    80002470:	0007ae83          	lw	t4,0(a5)
    80002474:	0147ac03          	lw	s8,20(a5)
    80002478:	00d13c23          	sd	a3,24(sp)
    8000247c:	00478793          	addi	a5,a5,4
    80002480:	0007cf83          	lbu	t6,0(a5)
    80002484:	0017c303          	lbu	t1,1(a5)
    80002488:	0027c883          	lbu	a7,2(a5)
    8000248c:	0037c503          	lbu	a0,3(a5)
    80002490:	01f60223          	sb	t6,4(a2)
    80002494:	006602a3          	sb	t1,5(a2)
    80002498:	01160323          	sb	a7,6(a2)
    8000249c:	00a603a3          	sb	a0,7(a2)
    800024a0:	00460613          	addi	a2,a2,4
    800024a4:	00478793          	addi	a5,a5,4
    800024a8:	fcc41ce3          	bne	s0,a2,80002480 <bench_15pz_run+0x304>
    800024ac:	5b658a63          	beq	a1,s6,80002a60 <bench_15pz_run+0x8e4>
    800024b0:	08bb50e3          	bge	s6,a1,80002d30 <bench_15pz_run+0xbb4>
    800024b4:	00359593          	slli	a1,a1,0x3
    800024b8:	00bf05b3          	add	a1,t5,a1
    800024bc:	0005b783          	ld	a5,0(a1)
    800024c0:	000d8513          	mv	a0,s11
    800024c4:	02e13423          	sd	a4,40(sp)
    800024c8:	00ff3423          	sd	a5,8(t5)
    800024cc:	0367a023          	sw	s6,32(a5)
    800024d0:	018da783          	lw	a5,24(s11)
    800024d4:	03d13023          	sd	t4,32(sp)
    800024d8:	fff7879b          	addiw	a5,a5,-1
    800024dc:	00fdac23          	sw	a5,24(s11)
    800024e0:	ba1ff0ef          	jal	ra,80002080 <_ZN14Updatable_heapI8N_puzzleILi4EEE14percolate_downEv>
    800024e4:	02813703          	ld	a4,40(sp)
    800024e8:	02013e83          	ld	t4,32(sp)
    800024ec:	07812223          	sw	s8,100(sp)
    800024f0:	05010c13          	addi	s8,sp,80
    800024f4:	05d12823          	sw	t4,80(sp)
    800024f8:	000c0793          	mv	a5,s8
    800024fc:	00474303          	lbu	t1,4(a4)
    80002500:	00574503          	lbu	a0,5(a4)
    80002504:	00674583          	lbu	a1,6(a4)
    80002508:	00774603          	lbu	a2,7(a4)
    8000250c:	00678223          	sb	t1,4(a5)
    80002510:	00a782a3          	sb	a0,5(a5)
    80002514:	00b78323          	sb	a1,6(a5)
    80002518:	00c783a3          	sb	a2,7(a5)
    8000251c:	00470713          	addi	a4,a4,4
    80002520:	00478793          	addi	a5,a5,4
    80002524:	fce41ce3          	bne	s0,a4,800024fc <bench_15pz_run+0x380>
    80002528:	0019091b          	addiw	s2,s2,1
    8000252c:	00048713          	mv	a4,s1
    80002530:	00000793          	li	a5,0
    80002534:	0017879b          	addiw	a5,a5,1
    80002538:	00f72023          	sw	a5,0(a4)
    8000253c:	00470713          	addi	a4,a4,4
    80002540:	ffa79ae3          	bne	a5,s10,80002534 <bench_15pz_run+0x3b8>
    80002544:	00048593          	mv	a1,s1
    80002548:	06810513          	addi	a0,sp,104
    8000254c:	0a012e23          	sw	zero,188(sp)
    80002550:	e5cff0ef          	jal	ra,80001bac <_ZN8N_puzzleILi4EEC1EPi>
    80002554:	06810593          	addi	a1,sp,104
    80002558:	05010513          	addi	a0,sp,80
    8000255c:	fa4ff0ef          	jal	ra,80001d00 <_ZNK8N_puzzleILi4EEeqERKS0_>
    80002560:	78051663          	bnez	a0,80002cec <bench_15pz_run+0xb70>
    80002564:	320b8863          	beqz	s7,80002894 <bench_15pz_run+0x718>
    80002568:	00300793          	li	a5,3
    8000256c:	4efa8e63          	beq	s5,a5,80002a68 <bench_15pz_run+0x8ec>
    80002570:	00048593          	mv	a1,s1
    80002574:	00048713          	mv	a4,s1
    80002578:	05010793          	addi	a5,sp,80
    8000257c:	0047ce03          	lbu	t3,4(a5)
    80002580:	0057c303          	lbu	t1,5(a5)
    80002584:	0067c503          	lbu	a0,6(a5)
    80002588:	0077c603          	lbu	a2,7(a5)
    8000258c:	01c70223          	sb	t3,4(a4)
    80002590:	006702a3          	sb	t1,5(a4)
    80002594:	00a70323          	sb	a0,6(a4)
    80002598:	00c703a3          	sb	a2,7(a4)
    8000259c:	00478793          	addi	a5,a5,4
    800025a0:	00470713          	addi	a4,a4,4
    800025a4:	fcf99ce3          	bne	s3,a5,8000257c <bench_15pz_run+0x400>
    800025a8:	0c010793          	addi	a5,sp,192
    800025ac:	002a1e13          	slli	t3,s4,0x2
    800025b0:	01c78e33          	add	t3,a5,t3
    800025b4:	001a8f13          	addi	t5,s5,1
    800025b8:	01ee07b3          	add	a5,t3,t5
    800025bc:	f9478303          	lb	t1,-108(a5)
    800025c0:	001a879b          	addiw	a5,s5,1
    800025c4:	015e0eb3          	add	t4,t3,s5
    800025c8:	fff3071b          	addiw	a4,t1,-1
    800025cc:	41f7561b          	sraiw	a2,a4,0x1f
    800025d0:	01e6561b          	srliw	a2,a2,0x1e
    800025d4:	00c7073b          	addw	a4,a4,a2
    800025d8:	00377713          	andi	a4,a4,3
    800025dc:	40c7073b          	subw	a4,a4,a2
    800025e0:	4157063b          	subw	a2,a4,s5
    800025e4:	40f707bb          	subw	a5,a4,a5
    800025e8:	41f65f9b          	sraiw	t6,a2,0x1f
    800025ec:	41f7d71b          	sraiw	a4,a5,0x1f
    800025f0:	00cfc533          	xor	a0,t6,a2
    800025f4:	00f747b3          	xor	a5,a4,a5
    800025f8:	40e787bb          	subw	a5,a5,a4
    800025fc:	41f5053b          	subw	a0,a0,t6
    80002600:	40f5053b          	subw	a0,a0,a5
    80002604:	01813783          	ld	a5,24(sp)
    80002608:	0fff7f13          	andi	t5,t5,255
    8000260c:	fc6e8223          	sb	t1,-60(t4)
    80002610:	00f5053b          	addw	a0,a0,a5
    80002614:	01ee0e33          	add	t3,t3,t5
    80002618:	001a831b          	addiw	t1,s5,1
    8000261c:	000a879b          	sext.w	a5,s5
    80002620:	0185151b          	slliw	a0,a0,0x18
    80002624:	fc0e0223          	sb	zero,-60(t3)
    80002628:	000a0b9b          	sext.w	s7,s4
    8000262c:	02f13023          	sd	a5,32(sp)
    80002630:	4185551b          	sraiw	a0,a0,0x18
    80002634:	0ff37313          	andi	t1,t1,255
    80002638:	00448613          	addi	a2,s1,4
    8000263c:	00000e13          	li	t3,0
    80002640:	ffc60713          	addi	a4,a2,-4
    80002644:	005e179b          	slliw	a5,t3,0x5
    80002648:	41c787bb          	subw	a5,a5,t3
    8000264c:	0027979b          	slliw	a5,a5,0x2
    80002650:	41c787bb          	subw	a5,a5,t3
    80002654:	0027979b          	slliw	a5,a5,0x2
    80002658:	00470e83          	lb	t4,4(a4)
    8000265c:	01c787bb          	addw	a5,a5,t3
    80002660:	0027979b          	slliw	a5,a5,0x2
    80002664:	01c787bb          	addw	a5,a5,t3
    80002668:	00170713          	addi	a4,a4,1
    8000266c:	01d78e3b          	addw	t3,a5,t4
    80002670:	fce61ae3          	bne	a2,a4,80002644 <bench_15pz_run+0x4c8>
    80002674:	00460613          	addi	a2,a2,4
    80002678:	fccc94e3          	bne	s9,a2,80002640 <bench_15pz_run+0x4c4>
    8000267c:	00100793          	li	a5,1
    80002680:	06f10423          	sb	a5,104(sp)
    80002684:	074104a3          	sb	s4,105(sp)
    80002688:	06610523          	sb	t1,106(sp)
    8000268c:	06a105a3          	sb	a0,107(sp)
    80002690:	07c12e23          	sw	t3,124(sp)
    80002694:	06810793          	addi	a5,sp,104
    80002698:	0075c703          	lbu	a4,7(a1)
    8000269c:	0045c303          	lbu	t1,4(a1)
    800026a0:	0055c503          	lbu	a0,5(a1)
    800026a4:	0065c603          	lbu	a2,6(a1)
    800026a8:	00e783a3          	sb	a4,7(a5)
    800026ac:	00813703          	ld	a4,8(sp)
    800026b0:	00678223          	sb	t1,4(a5)
    800026b4:	00a782a3          	sb	a0,5(a5)
    800026b8:	00c78323          	sb	a2,6(a5)
    800026bc:	00458593          	addi	a1,a1,4
    800026c0:	00478793          	addi	a5,a5,4
    800026c4:	fce59ae3          	bne	a1,a4,80002698 <bench_15pz_run+0x51c>
    800026c8:	008db583          	ld	a1,8(s11)
    800026cc:	000da503          	lw	a0,0(s11)
    800026d0:	05010613          	addi	a2,sp,80
    800026d4:	e88ff0ef          	jal	ra,80001d5c <_ZNK14Updatable_heapI8N_puzzleILi4EEE7pointerERKS1_.isra.0>
    800026d8:	50050e63          	beqz	a0,80002bf4 <bench_15pz_run+0xa78>
    800026dc:	02452603          	lw	a2,36(a0)
    800026e0:	0016061b          	addiw	a2,a2,1
    800026e4:	06810593          	addi	a1,sp,104
    800026e8:	000d8513          	mv	a0,s11
    800026ec:	f50ff0ef          	jal	ra,80001e3c <_ZN14Updatable_heapI8N_puzzleILi4EEE4pushERKS1_i>
    800026f0:	380a9063          	bnez	s5,80002a70 <bench_15pz_run+0x8f4>
    800026f4:	00300793          	li	a5,3
    800026f8:	20fa0a63          	beq	s4,a5,8000290c <bench_15pz_run+0x790>
    800026fc:	00048593          	mv	a1,s1
    80002700:	00048713          	mv	a4,s1
    80002704:	05010793          	addi	a5,sp,80
    80002708:	0047ce03          	lbu	t3,4(a5)
    8000270c:	0057c303          	lbu	t1,5(a5)
    80002710:	0067c503          	lbu	a0,6(a5)
    80002714:	0077c603          	lbu	a2,7(a5)
    80002718:	01c70223          	sb	t3,4(a4)
    8000271c:	006702a3          	sb	t1,5(a4)
    80002720:	00a70323          	sb	a0,6(a4)
    80002724:	00c703a3          	sb	a2,7(a4)
    80002728:	00478793          	addi	a5,a5,4
    8000272c:	00470713          	addi	a4,a4,4
    80002730:	fcf99ce3          	bne	s3,a5,80002708 <bench_15pz_run+0x58c>
    80002734:	02013683          	ld	a3,32(sp)
    80002738:	001b8613          	addi	a2,s7,1
    8000273c:	00261793          	slli	a5,a2,0x2
    80002740:	0c010713          	addi	a4,sp,192
    80002744:	00f707b3          	add	a5,a4,a5
    80002748:	00d787b3          	add	a5,a5,a3
    8000274c:	f9478503          	lb	a0,-108(a5)
    80002750:	001b879b          	addiw	a5,s7,1
    80002754:	002b9e13          	slli	t3,s7,0x2
    80002758:	fff5031b          	addiw	t1,a0,-1
    8000275c:	41f3571b          	sraiw	a4,t1,0x1f
    80002760:	01e7571b          	srliw	a4,a4,0x1e
    80002764:	0067073b          	addw	a4,a4,t1
    80002768:	4027571b          	sraiw	a4,a4,0x2
    8000276c:	4177033b          	subw	t1,a4,s7
    80002770:	40f707bb          	subw	a5,a4,a5
    80002774:	41f7de9b          	sraiw	t4,a5,0x1f
    80002778:	41f35f1b          	sraiw	t5,t1,0x1f
    8000277c:	00fec7b3          	xor	a5,t4,a5
    80002780:	006f4333          	xor	t1,t5,t1
    80002784:	41d787bb          	subw	a5,a5,t4
    80002788:	0ff67713          	andi	a4,a2,255
    8000278c:	41e3033b          	subw	t1,t1,t5
    80002790:	00271713          	slli	a4,a4,0x2
    80002794:	40f3033b          	subw	t1,t1,a5
    80002798:	0c010793          	addi	a5,sp,192
    8000279c:	00e787b3          	add	a5,a5,a4
    800027a0:	01813703          	ld	a4,24(sp)
    800027a4:	0c010613          	addi	a2,sp,192
    800027a8:	01c60633          	add	a2,a2,t3
    800027ac:	00d60633          	add	a2,a2,a3
    800027b0:	00e3033b          	addw	t1,t1,a4
    800027b4:	fca60223          	sb	a0,-60(a2)
    800027b8:	001a0e1b          	addiw	t3,s4,1
    800027bc:	00d787b3          	add	a5,a5,a3
    800027c0:	00448513          	addi	a0,s1,4
    800027c4:	0183131b          	slliw	t1,t1,0x18
    800027c8:	4183531b          	sraiw	t1,t1,0x18
    800027cc:	0ffe7e13          	andi	t3,t3,255
    800027d0:	fc078223          	sb	zero,-60(a5)
    800027d4:	00050613          	mv	a2,a0
    800027d8:	00000e93          	li	t4,0
    800027dc:	ffc60713          	addi	a4,a2,-4
    800027e0:	005e979b          	slliw	a5,t4,0x5
    800027e4:	41d787bb          	subw	a5,a5,t4
    800027e8:	0027979b          	slliw	a5,a5,0x2
    800027ec:	41d787bb          	subw	a5,a5,t4
    800027f0:	0027979b          	slliw	a5,a5,0x2
    800027f4:	00470f03          	lb	t5,4(a4)
    800027f8:	01d787bb          	addw	a5,a5,t4
    800027fc:	0027979b          	slliw	a5,a5,0x2
    80002800:	01d787bb          	addw	a5,a5,t4
    80002804:	00170713          	addi	a4,a4,1
    80002808:	01e78ebb          	addw	t4,a5,t5
    8000280c:	fcc71ae3          	bne	a4,a2,800027e0 <bench_15pz_run+0x664>
    80002810:	00470613          	addi	a2,a4,4
    80002814:	fccc94e3          	bne	s9,a2,800027dc <bench_15pz_run+0x660>
    80002818:	00100793          	li	a5,1
    8000281c:	06f10423          	sb	a5,104(sp)
    80002820:	07c104a3          	sb	t3,105(sp)
    80002824:	07510523          	sb	s5,106(sp)
    80002828:	066105a3          	sb	t1,107(sp)
    8000282c:	07d12e23          	sw	t4,124(sp)
    80002830:	06810793          	addi	a5,sp,104
    80002834:	0075c703          	lbu	a4,7(a1)
    80002838:	0045ce03          	lbu	t3,4(a1)
    8000283c:	0055c303          	lbu	t1,5(a1)
    80002840:	0065c603          	lbu	a2,6(a1)
    80002844:	00e783a3          	sb	a4,7(a5)
    80002848:	00813703          	ld	a4,8(sp)
    8000284c:	01c78223          	sb	t3,4(a5)
    80002850:	006782a3          	sb	t1,5(a5)
    80002854:	00c78323          	sb	a2,6(a5)
    80002858:	00050593          	mv	a1,a0
    8000285c:	00478793          	addi	a5,a5,4
    80002860:	08a70063          	beq	a4,a0,800028e0 <bench_15pz_run+0x764>
    80002864:	00450513          	addi	a0,a0,4
    80002868:	fcdff06f          	j	80002834 <bench_15pz_run+0x6b8>
    8000286c:	008db583          	ld	a1,8(s11)
    80002870:	000da503          	lw	a0,0(s11)
    80002874:	05010613          	addi	a2,sp,80
    80002878:	ce4ff0ef          	jal	ra,80001d5c <_ZNK14Updatable_heapI8N_puzzleILi4EEE7pointerERKS1_.isra.0>
    8000287c:	38050863          	beqz	a0,80002c0c <bench_15pz_run+0xa90>
    80002880:	02452603          	lw	a2,36(a0)
    80002884:	0016061b          	addiw	a2,a2,1
    80002888:	06810593          	addi	a1,sp,104
    8000288c:	000d8513          	mv	a0,s11
    80002890:	dacff0ef          	jal	ra,80001e3c <_ZN14Updatable_heapI8N_puzzleILi4EEE4pushERKS1_i>
    80002894:	018da583          	lw	a1,24(s11)
    80002898:	00058663          	beqz	a1,800028a4 <bench_15pz_run+0x728>
    8000289c:	01013783          	ld	a5,16(sp)
    800028a0:	bb2798e3          	bne	a5,s2,80002450 <bench_15pz_run+0x2d4>
    800028a4:	12813083          	ld	ra,296(sp)
    800028a8:	12013403          	ld	s0,288(sp)
    800028ac:	11813483          	ld	s1,280(sp)
    800028b0:	11013903          	ld	s2,272(sp)
    800028b4:	10813983          	ld	s3,264(sp)
    800028b8:	10013a03          	ld	s4,256(sp)
    800028bc:	0f813a83          	ld	s5,248(sp)
    800028c0:	0f013b03          	ld	s6,240(sp)
    800028c4:	0e813b83          	ld	s7,232(sp)
    800028c8:	0e013c03          	ld	s8,224(sp)
    800028cc:	0d813c83          	ld	s9,216(sp)
    800028d0:	0d013d03          	ld	s10,208(sp)
    800028d4:	0c813d83          	ld	s11,200(sp)
    800028d8:	13010113          	addi	sp,sp,304
    800028dc:	00008067          	ret
    800028e0:	008db583          	ld	a1,8(s11)
    800028e4:	000da503          	lw	a0,0(s11)
    800028e8:	05010613          	addi	a2,sp,80
    800028ec:	c70ff0ef          	jal	ra,80001d5c <_ZNK14Updatable_heapI8N_puzzleILi4EEE7pointerERKS1_.isra.0>
    800028f0:	30050663          	beqz	a0,80002bfc <bench_15pz_run+0xa80>
    800028f4:	02452603          	lw	a2,36(a0)
    800028f8:	0016061b          	addiw	a2,a2,1
    800028fc:	06810593          	addi	a1,sp,104
    80002900:	000d8513          	mv	a0,s11
    80002904:	d38ff0ef          	jal	ra,80001e3c <_ZN14Updatable_heapI8N_puzzleILi4EEE4pushERKS1_i>
    80002908:	f80a06e3          	beqz	s4,80002894 <bench_15pz_run+0x718>
    8000290c:	00048513          	mv	a0,s1
    80002910:	00048793          	mv	a5,s1
    80002914:	004c4303          	lbu	t1,4(s8)
    80002918:	005c4583          	lbu	a1,5(s8)
    8000291c:	006c4603          	lbu	a2,6(s8)
    80002920:	007c4703          	lbu	a4,7(s8)
    80002924:	00678223          	sb	t1,4(a5)
    80002928:	00b782a3          	sb	a1,5(a5)
    8000292c:	00c78323          	sb	a2,6(a5)
    80002930:	00e783a3          	sb	a4,7(a5)
    80002934:	004c0c13          	addi	s8,s8,4
    80002938:	00478793          	addi	a5,a5,4
    8000293c:	fd899ce3          	bne	s3,s8,80002914 <bench_15pz_run+0x798>
    80002940:	fffb871b          	addiw	a4,s7,-1
    80002944:	02013683          	ld	a3,32(sp)
    80002948:	00070893          	mv	a7,a4
    8000294c:	0c010793          	addi	a5,sp,192
    80002950:	00271713          	slli	a4,a4,0x2
    80002954:	00e78733          	add	a4,a5,a4
    80002958:	00d70733          	add	a4,a4,a3
    8000295c:	f9470603          	lb	a2,-108(a4)
    80002960:	002b9593          	slli	a1,s7,0x2
    80002964:	00b785b3          	add	a1,a5,a1
    80002968:	fff6031b          	addiw	t1,a2,-1
    8000296c:	41f3579b          	sraiw	a5,t1,0x1f
    80002970:	01e7d79b          	srliw	a5,a5,0x1e
    80002974:	006787bb          	addw	a5,a5,t1
    80002978:	4027d79b          	sraiw	a5,a5,0x2
    8000297c:	41778bbb          	subw	s7,a5,s7
    80002980:	411787bb          	subw	a5,a5,a7
    80002984:	41fbde1b          	sraiw	t3,s7,0x1f
    80002988:	41f7d89b          	sraiw	a7,a5,0x1f
    8000298c:	017e4333          	xor	t1,t3,s7
    80002990:	00f8c7b3          	xor	a5,a7,a5
    80002994:	411787bb          	subw	a5,a5,a7
    80002998:	41c3033b          	subw	t1,t1,t3
    8000299c:	40f3033b          	subw	t1,t1,a5
    800029a0:	01813783          	ld	a5,24(sp)
    800029a4:	00d585b3          	add	a1,a1,a3
    800029a8:	fcc58223          	sb	a2,-60(a1)
    800029ac:	00f3033b          	addw	t1,t1,a5
    800029b0:	fffa059b          	addiw	a1,s4,-1
    800029b4:	00448e13          	addi	t3,s1,4
    800029b8:	0183131b          	slliw	t1,t1,0x18
    800029bc:	fc070223          	sb	zero,-60(a4)
    800029c0:	4183531b          	sraiw	t1,t1,0x18
    800029c4:	0ff5f593          	andi	a1,a1,255
    800029c8:	000e0893          	mv	a7,t3
    800029cc:	00000713          	li	a4,0
    800029d0:	ffc88613          	addi	a2,a7,-4
    800029d4:	0057179b          	slliw	a5,a4,0x5
    800029d8:	40e787bb          	subw	a5,a5,a4
    800029dc:	0027979b          	slliw	a5,a5,0x2
    800029e0:	40e787bb          	subw	a5,a5,a4
    800029e4:	0027979b          	slliw	a5,a5,0x2
    800029e8:	00460e83          	lb	t4,4(a2)
    800029ec:	00e787bb          	addw	a5,a5,a4
    800029f0:	0027979b          	slliw	a5,a5,0x2
    800029f4:	00e7873b          	addw	a4,a5,a4
    800029f8:	00160613          	addi	a2,a2,1
    800029fc:	01d7073b          	addw	a4,a4,t4
    80002a00:	fcc89ae3          	bne	a7,a2,800029d4 <bench_15pz_run+0x858>
    80002a04:	00488893          	addi	a7,a7,4
    80002a08:	fd1c94e3          	bne	s9,a7,800029d0 <bench_15pz_run+0x854>
    80002a0c:	00100793          	li	a5,1
    80002a10:	06f10423          	sb	a5,104(sp)
    80002a14:	06b104a3          	sb	a1,105(sp)
    80002a18:	07510523          	sb	s5,106(sp)
    80002a1c:	066105a3          	sb	t1,107(sp)
    80002a20:	06e12e23          	sw	a4,124(sp)
    80002a24:	06810793          	addi	a5,sp,104
    80002a28:	00754703          	lbu	a4,7(a0)
    80002a2c:	00454883          	lbu	a7,4(a0)
    80002a30:	00554583          	lbu	a1,5(a0)
    80002a34:	00654603          	lbu	a2,6(a0)
    80002a38:	00e783a3          	sb	a4,7(a5)
    80002a3c:	00813703          	ld	a4,8(sp)
    80002a40:	01178223          	sb	a7,4(a5)
    80002a44:	00b782a3          	sb	a1,5(a5)
    80002a48:	00c78323          	sb	a2,6(a5)
    80002a4c:	000e0513          	mv	a0,t3
    80002a50:	00478793          	addi	a5,a5,4
    80002a54:	e0ee0ce3          	beq	t3,a4,8000286c <bench_15pz_run+0x6f0>
    80002a58:	004e0e13          	addi	t3,t3,4
    80002a5c:	fcdff06f          	j	80002a28 <bench_15pz_run+0x8ac>
    80002a60:	000dac23          	sw	zero,24(s11)
    80002a64:	a89ff06f          	j	800024ec <bench_15pz_run+0x370>
    80002a68:	000a0b9b          	sext.w	s7,s4
    80002a6c:	02f13023          	sd	a5,32(sp)
    80002a70:	00048593          	mv	a1,s1
    80002a74:	00048713          	mv	a4,s1
    80002a78:	05010793          	addi	a5,sp,80
    80002a7c:	0047ce03          	lbu	t3,4(a5)
    80002a80:	0057c303          	lbu	t1,5(a5)
    80002a84:	0067c503          	lbu	a0,6(a5)
    80002a88:	0077c603          	lbu	a2,7(a5)
    80002a8c:	01c70223          	sb	t3,4(a4)
    80002a90:	006702a3          	sb	t1,5(a4)
    80002a94:	00a70323          	sb	a0,6(a4)
    80002a98:	00c703a3          	sb	a2,7(a4)
    80002a9c:	00478793          	addi	a5,a5,4
    80002aa0:	00470713          	addi	a4,a4,4
    80002aa4:	fd379ce3          	bne	a5,s3,80002a7c <bench_15pz_run+0x900>
    80002aa8:	02013683          	ld	a3,32(sp)
    80002aac:	0c010713          	addi	a4,sp,192
    80002ab0:	002b9513          	slli	a0,s7,0x2
    80002ab4:	fff6879b          	addiw	a5,a3,-1
    80002ab8:	00a70533          	add	a0,a4,a0
    80002abc:	0007861b          	sext.w	a2,a5
    80002ac0:	00060313          	mv	t1,a2
    80002ac4:	00c50633          	add	a2,a0,a2
    80002ac8:	f9460e83          	lb	t4,-108(a2)
    80002acc:	00d50533          	add	a0,a0,a3
    80002ad0:	fffa8e1b          	addiw	t3,s5,-1
    80002ad4:	fffe879b          	addiw	a5,t4,-1
    80002ad8:	41f7d71b          	sraiw	a4,a5,0x1f
    80002adc:	01e7571b          	srliw	a4,a4,0x1e
    80002ae0:	00e787bb          	addw	a5,a5,a4
    80002ae4:	0037f793          	andi	a5,a5,3
    80002ae8:	40e787bb          	subw	a5,a5,a4
    80002aec:	40d7873b          	subw	a4,a5,a3
    80002af0:	406787bb          	subw	a5,a5,t1
    80002af4:	41f75f9b          	sraiw	t6,a4,0x1f
    80002af8:	41f7df1b          	sraiw	t5,a5,0x1f
    80002afc:	00efc333          	xor	t1,t6,a4
    80002b00:	00ff47b3          	xor	a5,t5,a5
    80002b04:	41e787bb          	subw	a5,a5,t5
    80002b08:	41f3033b          	subw	t1,t1,t6
    80002b0c:	40f3033b          	subw	t1,t1,a5
    80002b10:	01813783          	ld	a5,24(sp)
    80002b14:	fdd50223          	sb	t4,-60(a0)
    80002b18:	00448513          	addi	a0,s1,4
    80002b1c:	00f3033b          	addw	t1,t1,a5
    80002b20:	0183131b          	slliw	t1,t1,0x18
    80002b24:	fc060223          	sb	zero,-60(a2)
    80002b28:	4183531b          	sraiw	t1,t1,0x18
    80002b2c:	0ffe7e13          	andi	t3,t3,255
    80002b30:	00050613          	mv	a2,a0
    80002b34:	00000e93          	li	t4,0
    80002b38:	ffc60713          	addi	a4,a2,-4
    80002b3c:	005e979b          	slliw	a5,t4,0x5
    80002b40:	41d787bb          	subw	a5,a5,t4
    80002b44:	0027979b          	slliw	a5,a5,0x2
    80002b48:	41d787bb          	subw	a5,a5,t4
    80002b4c:	0027979b          	slliw	a5,a5,0x2
    80002b50:	00470f03          	lb	t5,4(a4)
    80002b54:	01d787bb          	addw	a5,a5,t4
    80002b58:	0027979b          	slliw	a5,a5,0x2
    80002b5c:	01d787bb          	addw	a5,a5,t4
    80002b60:	00170713          	addi	a4,a4,1
    80002b64:	01e78ebb          	addw	t4,a5,t5
    80002b68:	fce61ae3          	bne	a2,a4,80002b3c <bench_15pz_run+0x9c0>
    80002b6c:	00460613          	addi	a2,a2,4
    80002b70:	fd9614e3          	bne	a2,s9,80002b38 <bench_15pz_run+0x9bc>
    80002b74:	00100793          	li	a5,1
    80002b78:	06f10423          	sb	a5,104(sp)
    80002b7c:	074104a3          	sb	s4,105(sp)
    80002b80:	07c10523          	sb	t3,106(sp)
    80002b84:	066105a3          	sb	t1,107(sp)
    80002b88:	07d12e23          	sw	t4,124(sp)
    80002b8c:	06810793          	addi	a5,sp,104
    80002b90:	0075c703          	lbu	a4,7(a1)
    80002b94:	0045ce03          	lbu	t3,4(a1)
    80002b98:	0055c303          	lbu	t1,5(a1)
    80002b9c:	0065c603          	lbu	a2,6(a1)
    80002ba0:	00e783a3          	sb	a4,7(a5)
    80002ba4:	00813703          	ld	a4,8(sp)
    80002ba8:	01c78223          	sb	t3,4(a5)
    80002bac:	006782a3          	sb	t1,5(a5)
    80002bb0:	00c78323          	sb	a2,6(a5)
    80002bb4:	00050593          	mv	a1,a0
    80002bb8:	00478793          	addi	a5,a5,4
    80002bbc:	00e50663          	beq	a0,a4,80002bc8 <bench_15pz_run+0xa4c>
    80002bc0:	00450513          	addi	a0,a0,4
    80002bc4:	fcdff06f          	j	80002b90 <bench_15pz_run+0xa14>
    80002bc8:	008db583          	ld	a1,8(s11)
    80002bcc:	000da503          	lw	a0,0(s11)
    80002bd0:	05010613          	addi	a2,sp,80
    80002bd4:	988ff0ef          	jal	ra,80001d5c <_ZNK14Updatable_heapI8N_puzzleILi4EEE7pointerERKS1_.isra.0>
    80002bd8:	02050663          	beqz	a0,80002c04 <bench_15pz_run+0xa88>
    80002bdc:	02452603          	lw	a2,36(a0)
    80002be0:	0016061b          	addiw	a2,a2,1
    80002be4:	06810593          	addi	a1,sp,104
    80002be8:	000d8513          	mv	a0,s11
    80002bec:	a50ff0ef          	jal	ra,80001e3c <_ZN14Updatable_heapI8N_puzzleILi4EEE4pushERKS1_i>
    80002bf0:	b05ff06f          	j	800026f4 <bench_15pz_run+0x578>
    80002bf4:	80000637          	lui	a2,0x80000
    80002bf8:	aedff06f          	j	800026e4 <bench_15pz_run+0x568>
    80002bfc:	80000637          	lui	a2,0x80000
    80002c00:	cfdff06f          	j	800028fc <bench_15pz_run+0x780>
    80002c04:	80000637          	lui	a2,0x80000
    80002c08:	fddff06f          	j	80002be4 <bench_15pz_run+0xa68>
    80002c0c:	80000637          	lui	a2,0x80000
    80002c10:	c79ff06f          	j	80002888 <bench_15pz_run+0x70c>
    80002c14:	08010493          	addi	s1,sp,128
    80002c18:	00005597          	auipc	a1,0x5
    80002c1c:	87858593          	addi	a1,a1,-1928 # 80007490 <_ZL8PUZZLE_S>
    80002c20:	00048513          	mv	a0,s1
    80002c24:	f89fe0ef          	jal	ra,80001bac <_ZN8N_puzzleILi4EEC1EPi>
    80002c28:	08012783          	lw	a5,128(sp)
    80002c2c:	08014803          	lbu	a6,128(sp)
    80002c30:	03810713          	addi	a4,sp,56
    80002c34:	02f12c23          	sw	a5,56(sp)
    80002c38:	09412783          	lw	a5,148(sp)
    80002c3c:	09010413          	addi	s0,sp,144
    80002c40:	04f12623          	sw	a5,76(sp)
    80002c44:	00048793          	mv	a5,s1
    80002c48:	0047c503          	lbu	a0,4(a5)
    80002c4c:	0057c583          	lbu	a1,5(a5)
    80002c50:	0067c603          	lbu	a2,6(a5)
    80002c54:	0077c683          	lbu	a3,7(a5)
    80002c58:	00a70223          	sb	a0,4(a4)
    80002c5c:	00b702a3          	sb	a1,5(a4)
    80002c60:	00c70323          	sb	a2,6(a4)
    80002c64:	00d703a3          	sb	a3,7(a4)
    80002c68:	00478793          	addi	a5,a5,4
    80002c6c:	00470713          	addi	a4,a4,4
    80002c70:	fc879ce3          	bne	a5,s0,80002c48 <bench_15pz_run+0xacc>
    80002c74:	00a00793          	li	a5,10
    80002c78:	00f13823          	sd	a5,16(sp)
    80002c7c:	dd0ff06f          	j	8000224c <bench_15pz_run+0xd0>
    80002c80:	08010493          	addi	s1,sp,128
    80002c84:	00004597          	auipc	a1,0x4
    80002c88:	78c58593          	addi	a1,a1,1932 # 80007410 <_ZL8PUZZLE_L>
    80002c8c:	00048513          	mv	a0,s1
    80002c90:	f1dfe0ef          	jal	ra,80001bac <_ZN8N_puzzleILi4EEC1EPi>
    80002c94:	08012783          	lw	a5,128(sp)
    80002c98:	08014803          	lbu	a6,128(sp)
    80002c9c:	03810713          	addi	a4,sp,56
    80002ca0:	02f12c23          	sw	a5,56(sp)
    80002ca4:	09412783          	lw	a5,148(sp)
    80002ca8:	09010413          	addi	s0,sp,144
    80002cac:	04f12623          	sw	a5,76(sp)
    80002cb0:	00048793          	mv	a5,s1
    80002cb4:	0047c503          	lbu	a0,4(a5)
    80002cb8:	0057c583          	lbu	a1,5(a5)
    80002cbc:	0067c603          	lbu	a2,6(a5)
    80002cc0:	0077c683          	lbu	a3,7(a5)
    80002cc4:	00a70223          	sb	a0,4(a4)
    80002cc8:	00b702a3          	sb	a1,5(a4)
    80002ccc:	00c70323          	sb	a2,6(a4)
    80002cd0:	00d703a3          	sb	a3,7(a4)
    80002cd4:	00478793          	addi	a5,a5,4
    80002cd8:	00470713          	addi	a4,a4,4
    80002cdc:	fcf41ce3          	bne	s0,a5,80002cb4 <bench_15pz_run+0xb38>
    80002ce0:	000047b7          	lui	a5,0x4
    80002ce4:	00f13823          	sd	a5,16(sp)
    80002ce8:	d64ff06f          	j	8000224c <bench_15pz_run+0xd0>
    80002cec:	008db583          	ld	a1,8(s11)
    80002cf0:	000da503          	lw	a0,0(s11)
    80002cf4:	05010613          	addi	a2,sp,80
    80002cf8:	864ff0ef          	jal	ra,80001d5c <_ZNK14Updatable_heapI8N_puzzleILi4EEE7pointerERKS1_.isra.0>
    80002cfc:	02050063          	beqz	a0,80002d1c <bench_15pz_run+0xba0>
    80002d00:	02452583          	lw	a1,36(a0)
    80002d04:	00090513          	mv	a0,s2
    80002d08:	3cd010ef          	jal	ra,800048d4 <__muldi3>
    80002d0c:	00005797          	auipc	a5,0x5
    80002d10:	c2478793          	addi	a5,a5,-988 # 80007930 <_ZL3ans>
    80002d14:	00a7a023          	sw	a0,0(a5)
    80002d18:	b8dff06f          	j	800028a4 <bench_15pz_run+0x728>
    80002d1c:	800005b7          	lui	a1,0x80000
    80002d20:	fff5c593          	not	a1,a1
    80002d24:	fe1ff06f          	j	80002d04 <bench_15pz_run+0xb88>
    80002d28:	03300613          	li	a2,51
    80002d2c:	e38ff06f          	j	80002364 <bench_15pz_run+0x1e8>
    80002d30:	05600613          	li	a2,86
    80002d34:	00004597          	auipc	a1,0x4
    80002d38:	85c58593          	addi	a1,a1,-1956 # 80006590 <_etext+0x3b0>
    80002d3c:	00003517          	auipc	a0,0x3
    80002d40:	4e450513          	addi	a0,a0,1252 # 80006220 <_etext+0x40>
    80002d44:	144030ef          	jal	ra,80005e88 <printf_>
    80002d48:	00100513          	li	a0,1
    80002d4c:	341010ef          	jal	ra,8000488c <halt>

0000000080002d50 <bench_lzip_prepare>:
    80002d50:	00005797          	auipc	a5,0x5
    80002d54:	cc87b783          	ld	a5,-824(a5) # 80007a18 <setting>
    80002d58:	0007a783          	lw	a5,0(a5)
    80002d5c:	fd010113          	addi	sp,sp,-48
    80002d60:	01213823          	sd	s2,16(sp)
    80002d64:	00100513          	li	a0,1
    80002d68:	00005917          	auipc	s2,0x5
    80002d6c:	bcc90913          	addi	s2,s2,-1076 # 80007934 <SIZE>
    80002d70:	02113423          	sd	ra,40(sp)
    80002d74:	00f92023          	sw	a5,0(s2)
    80002d78:	01313423          	sd	s3,8(sp)
    80002d7c:	02813023          	sd	s0,32(sp)
    80002d80:	00913c23          	sd	s1,24(sp)
    80002d84:	831fd0ef          	jal	ra,800005b4 <bench_srand>
    80002d88:	00011537          	lui	a0,0x11
    80002d8c:	80850513          	addi	a0,a0,-2040 # 10808 <_entry_offset+0x10808>
    80002d90:	f88fd0ef          	jal	ra,80000518 <bench_alloc>
    80002d94:	00050793          	mv	a5,a0
    80002d98:	00092503          	lw	a0,0(s2)
    80002d9c:	00005717          	auipc	a4,0x5
    80002da0:	baf73a23          	sd	a5,-1100(a4) # 80007950 <state>
    80002da4:	00005997          	auipc	s3,0x5
    80002da8:	b9498993          	addi	s3,s3,-1132 # 80007938 <blk>
    80002dac:	f6cfd0ef          	jal	ra,80000518 <bench_alloc>
    80002db0:	00092783          	lw	a5,0(s2)
    80002db4:	00a9b023          	sd	a0,0(s3)
    80002db8:	1907851b          	addiw	a0,a5,400
    80002dbc:	f5cfd0ef          	jal	ra,80000518 <bench_alloc>
    80002dc0:	00092783          	lw	a5,0(s2)
    80002dc4:	00005717          	auipc	a4,0x5
    80002dc8:	b6a73e23          	sd	a0,-1156(a4) # 80007940 <compress>
    80002dcc:	02f05e63          	blez	a5,80002e08 <bench_lzip_prepare+0xb8>
    80002dd0:	00000413          	li	s0,0
    80002dd4:	ff4fd0ef          	jal	ra,800005c8 <bench_rand>
    80002dd8:	02051513          	slli	a0,a0,0x20
    80002ddc:	0009b483          	ld	s1,0(s3)
    80002de0:	01a00593          	li	a1,26
    80002de4:	02055513          	srli	a0,a0,0x20
    80002de8:	3a1010ef          	jal	ra,80004988 <__umoddi3>
    80002dec:	00092703          	lw	a4,0(s2)
    80002df0:	008484b3          	add	s1,s1,s0
    80002df4:	0615051b          	addiw	a0,a0,97
    80002df8:	00140413          	addi	s0,s0,1
    80002dfc:	00a48023          	sb	a0,0(s1)
    80002e00:	0004079b          	sext.w	a5,s0
    80002e04:	fce7c8e3          	blt	a5,a4,80002dd4 <bench_lzip_prepare+0x84>
    80002e08:	02813083          	ld	ra,40(sp)
    80002e0c:	02013403          	ld	s0,32(sp)
    80002e10:	01813483          	ld	s1,24(sp)
    80002e14:	01013903          	ld	s2,16(sp)
    80002e18:	00813983          	ld	s3,8(sp)
    80002e1c:	03010113          	addi	sp,sp,48
    80002e20:	00008067          	ret

0000000080002e24 <bench_lzip_run>:
    80002e24:	ff010113          	addi	sp,sp,-16
    80002e28:	00005697          	auipc	a3,0x5
    80002e2c:	b286b683          	ld	a3,-1240(a3) # 80007950 <state>
    80002e30:	00005617          	auipc	a2,0x5
    80002e34:	b0462603          	lw	a2,-1276(a2) # 80007934 <SIZE>
    80002e38:	00005597          	auipc	a1,0x5
    80002e3c:	b085b583          	ld	a1,-1272(a1) # 80007940 <compress>
    80002e40:	00005517          	auipc	a0,0x5
    80002e44:	af853503          	ld	a0,-1288(a0) # 80007938 <blk>
    80002e48:	00113423          	sd	ra,8(sp)
    80002e4c:	084000ef          	jal	ra,80002ed0 <qlz_compress>
    80002e50:	00813083          	ld	ra,8(sp)
    80002e54:	00005797          	auipc	a5,0x5
    80002e58:	aea7aa23          	sw	a0,-1292(a5) # 80007948 <len>
    80002e5c:	01010113          	addi	sp,sp,16
    80002e60:	00008067          	ret

0000000080002e64 <bench_lzip_validate>:
    80002e64:	00005517          	auipc	a0,0x5
    80002e68:	adc53503          	ld	a0,-1316(a0) # 80007940 <compress>
    80002e6c:	00005597          	auipc	a1,0x5
    80002e70:	adc5a583          	lw	a1,-1316(a1) # 80007948 <len>
    80002e74:	ff010113          	addi	sp,sp,-16
    80002e78:	00b505b3          	add	a1,a0,a1
    80002e7c:	00113423          	sd	ra,8(sp)
    80002e80:	f98fd0ef          	jal	ra,80000618 <checksum>
    80002e84:	00005797          	auipc	a5,0x5
    80002e88:	b947b783          	ld	a5,-1132(a5) # 80007a18 <setting>
    80002e8c:	0187a783          	lw	a5,24(a5)
    80002e90:	00813083          	ld	ra,8(sp)
    80002e94:	0005051b          	sext.w	a0,a0
    80002e98:	40a78533          	sub	a0,a5,a0
    80002e9c:	00153513          	seqz	a0,a0
    80002ea0:	01010113          	addi	sp,sp,16
    80002ea4:	00008067          	ret

0000000080002ea8 <bench_memcpy.part.0>:
    80002ea8:	ff010113          	addi	sp,sp,-16
    80002eac:	00800613          	li	a2,8
    80002eb0:	00003597          	auipc	a1,0x3
    80002eb4:	76858593          	addi	a1,a1,1896 # 80006618 <_etext+0x438>
    80002eb8:	00003517          	auipc	a0,0x3
    80002ebc:	36850513          	addi	a0,a0,872 # 80006220 <_etext+0x40>
    80002ec0:	00113423          	sd	ra,8(sp)
    80002ec4:	7c5020ef          	jal	ra,80005e88 <printf_>
    80002ec8:	00100513          	li	a0,1
    80002ecc:	1c1010ef          	jal	ra,8000488c <halt>

0000000080002ed0 <qlz_compress>:
    80002ed0:	00100793          	li	a5,1
    80002ed4:	f5010113          	addi	sp,sp,-176
    80002ed8:	02079793          	slli	a5,a5,0x20
    80002edc:	00060713          	mv	a4,a2
    80002ee0:	02c13023          	sd	a2,32(sp)
    80002ee4:	0a113423          	sd	ra,168(sp)
    80002ee8:	0a813023          	sd	s0,160(sp)
    80002eec:	08913c23          	sd	s1,152(sp)
    80002ef0:	09213823          	sd	s2,144(sp)
    80002ef4:	09313423          	sd	s3,136(sp)
    80002ef8:	09413023          	sd	s4,128(sp)
    80002efc:	07513c23          	sd	s5,120(sp)
    80002f00:	07613823          	sd	s6,112(sp)
    80002f04:	07713423          	sd	s7,104(sp)
    80002f08:	07813023          	sd	s8,96(sp)
    80002f0c:	05913c23          	sd	s9,88(sp)
    80002f10:	05a13823          	sd	s10,80(sp)
    80002f14:	05b13423          	sd	s11,72(sp)
    80002f18:	fff60613          	addi	a2,a2,-1
    80002f1c:	e6e78793          	addi	a5,a5,-402
    80002f20:	00a13423          	sd	a0,8(sp)
    80002f24:	02b13823          	sd	a1,48(sp)
    80002f28:	58c7e463          	bltu	a5,a2,800034b0 <qlz_compress+0x5e0>
    80002f2c:	00300593          	li	a1,3
    80002f30:	0d700793          	li	a5,215
    80002f34:	02b13423          	sd	a1,40(sp)
    80002f38:	46e7e263          	bltu	a5,a4,8000339c <qlz_compress+0x4cc>
    80002f3c:	000107b7          	lui	a5,0x10
    80002f40:	00011737          	lui	a4,0x11
    80002f44:	00878793          	addi	a5,a5,8 # 10008 <_entry_offset+0x10008>
    80002f48:	80870713          	addi	a4,a4,-2040 # 10808 <_entry_offset+0x10808>
    80002f4c:	00f687b3          	add	a5,a3,a5
    80002f50:	00e68733          	add	a4,a3,a4
    80002f54:	00078023          	sb	zero,0(a5)
    80002f58:	00178793          	addi	a5,a5,1
    80002f5c:	fef71ce3          	bne	a4,a5,80002f54 <qlz_compress+0x84>
    80002f60:	00813783          	ld	a5,8(sp)
    80002f64:	03013703          	ld	a4,48(sp)
    80002f68:	02813583          	ld	a1,40(sp)
    80002f6c:	00c78633          	add	a2,a5,a2
    80002f70:	02c13c23          	sd	a2,56(sp)
    80002f74:	00b704b3          	add	s1,a4,a1
    80002f78:	00913823          	sd	s1,16(sp)
    80002f7c:	ff660c13          	addi	s8,a2,-10
    80002f80:	00448e13          	addi	t3,s1,4
    80002f84:	00078713          	mv	a4,a5
    80002f88:	5cfc6663          	bltu	s8,a5,80003554 <qlz_compress+0x684>
    80002f8c:	02013783          	ld	a5,32(sp)
    80002f90:	ffc60d13          	addi	s10,a2,-4
    80002f94:	0fe00c93          	li	s9,254
    80002f98:	0017d793          	srli	a5,a5,0x1
    80002f9c:	00f707b3          	add	a5,a4,a5
    80002fa0:	00f13c23          	sd	a5,24(sp)
    80002fa4:	00010bb7          	lui	s7,0x10
    80002fa8:	00070793          	mv	a5,a4
    80002fac:	00400993          	li	s3,4
    80002fb0:	80000737          	lui	a4,0x80000
    80002fb4:	80000db7          	lui	s11,0x80000
    80002fb8:	40fd0fb3          	sub	t6,s10,a5
    80002fbc:	01fcd463          	bge	s9,t6,80002fc4 <qlz_compress+0xf4>
    80002fc0:	0fe00f93          	li	t6,254
    80002fc4:	0017c603          	lbu	a2,1(a5)
    80002fc8:	0027c503          	lbu	a0,2(a5)
    80002fcc:	0007c583          	lbu	a1,0(a5)
    80002fd0:	0086161b          	slliw	a2,a2,0x8
    80002fd4:	0105151b          	slliw	a0,a0,0x10
    80002fd8:	00a66633          	or	a2,a2,a0
    80002fdc:	00b66633          	or	a2,a2,a1
    80002fe0:	00d6559b          	srliw	a1,a2,0xd
    80002fe4:	0096581b          	srliw	a6,a2,0x9
    80002fe8:	00b84833          	xor	a6,a6,a1
    80002fec:	0006061b          	sext.w	a2,a2
    80002ff0:	00c84833          	xor	a6,a6,a2
    80002ff4:	7ff87313          	andi	t1,a6,2047
    80002ff8:	00531893          	slli	a7,t1,0x5
    80002ffc:	011688b3          	add	a7,a3,a7
    80003000:	0088b583          	ld	a1,8(a7)
    80003004:	00668533          	add	a0,a3,t1
    80003008:	00ab8533          	add	a0,s7,a0
    8000300c:	ffe78a13          	addi	s4,a5,-2
    80003010:	00854283          	lbu	t0,8(a0)
    80003014:	001f8f93          	addi	t6,t6,1
    80003018:	00030813          	mv	a6,t1
    8000301c:	0945fe63          	bgeu	a1,s4,800030b8 <qlz_compress+0x1e8>
    80003020:	2c029e63          	bnez	t0,800032fc <qlz_compress+0x42c>
    80003024:	00f8b423          	sd	a5,8(a7)
    80003028:	00100613          	li	a2,1
    8000302c:	00c50423          	sb	a2,8(a0)
    80003030:	0017571b          	srliw	a4,a4,0x1
    80003034:	0007c603          	lbu	a2,0(a5)
    80003038:	001e0e13          	addi	t3,t3,1
    8000303c:	00178793          	addi	a5,a5,1
    80003040:	fece0fa3          	sb	a2,-1(t3)
    80003044:	00177613          	andi	a2,a4,1
    80003048:	00060593          	mv	a1,a2
    8000304c:	14fc6063          	bltu	s8,a5,8000318c <qlz_compress+0x2bc>
    80003050:	f60584e3          	beqz	a1,80002fb8 <qlz_compress+0xe8>
    80003054:	01813603          	ld	a2,24(sp)
    80003058:	02f67063          	bgeu	a2,a5,80003078 <qlz_compress+0x1a8>
    8000305c:	00813603          	ld	a2,8(sp)
    80003060:	01013583          	ld	a1,16(sp)
    80003064:	40c78633          	sub	a2,a5,a2
    80003068:	40565513          	srai	a0,a2,0x5
    8000306c:	40be05b3          	sub	a1,t3,a1
    80003070:	40a60633          	sub	a2,a2,a0
    80003074:	44b64a63          	blt	a2,a1,800034c8 <qlz_compress+0x5f8>
    80003078:	0017571b          	srliw	a4,a4,0x1
    8000307c:	01b76733          	or	a4,a4,s11
    80003080:	0007071b          	sext.w	a4,a4
    80003084:	00875513          	srli	a0,a4,0x8
    80003088:	01075593          	srli	a1,a4,0x10
    8000308c:	01875613          	srli	a2,a4,0x18
    80003090:	00e48023          	sb	a4,0(s1)
    80003094:	00a480a3          	sb	a0,1(s1)
    80003098:	00b48123          	sb	a1,2(s1)
    8000309c:	00c481a3          	sb	a2,3(s1)
    800030a0:	40fd0fb3          	sub	t6,s10,a5
    800030a4:	000e0493          	mv	s1,t3
    800030a8:	80000737          	lui	a4,0x80000
    800030ac:	004e0e13          	addi	t3,t3,4
    800030b0:	f1fcdae3          	bge	s9,t6,80002fc4 <qlz_compress+0xf4>
    800030b4:	f0dff06f          	j	80002fc0 <qlz_compress+0xf0>
    800030b8:	00000e93          	li	t4,0
    800030bc:	00531593          	slli	a1,t1,0x5
    800030c0:	0002891b          	sext.w	s2,t0
    800030c4:	00b685b3          	add	a1,a3,a1
    800030c8:	00000f13          	li	t5,0
    800030cc:	00100513          	li	a0,1
    800030d0:	03257863          	bgeu	a0,s2,80003100 <qlz_compress+0x230>
    800030d4:	0105b883          	ld	a7,16(a1)
    800030d8:	020e9393          	slli	t2,t4,0x20
    800030dc:	0203d393          	srli	t2,t2,0x20
    800030e0:	00778433          	add	s0,a5,t2
    800030e4:	007883b3          	add	t2,a7,t2
    800030e8:	00044403          	lbu	s0,0(s0)
    800030ec:	0003c383          	lbu	t2,0(t2)
    800030f0:	18740c63          	beq	s0,t2,80003288 <qlz_compress+0x3b8>
    800030f4:	0015051b          	addiw	a0,a0,1
    800030f8:	00858593          	addi	a1,a1,8
    800030fc:	fd351ae3          	bne	a0,s3,800030d0 <qlz_compress+0x200>
    80003100:	0032f593          	andi	a1,t0,3
    80003104:	00231613          	slli	a2,t1,0x2
    80003108:	00b60633          	add	a2,a2,a1
    8000310c:	00361613          	slli	a2,a2,0x3
    80003110:	00c68633          	add	a2,a3,a2
    80003114:	00668333          	add	t1,a3,t1
    80003118:	00f63423          	sd	a5,8(a2)
    8000311c:	006b8333          	add	t1,s7,t1
    80003120:	0012829b          	addiw	t0,t0,1
    80003124:	0017561b          	srliw	a2,a4,0x1
    80003128:	00530423          	sb	t0,8(t1)
    8000312c:	00200593          	li	a1,2
    80003130:	0006071b          	sext.w	a4,a2
    80003134:	f1d5f0e3          	bgeu	a1,t4,80003034 <qlz_compress+0x164>
    80003138:	01b66733          	or	a4,a2,s11
    8000313c:	020e9613          	slli	a2,t4,0x20
    80003140:	02065613          	srli	a2,a2,0x20
    80003144:	0058181b          	slliw	a6,a6,0x5
    80003148:	010f6f33          	or	t5,t5,a6
    8000314c:	00c787b3          	add	a5,a5,a2
    80003150:	00900613          	li	a2,9
    80003154:	0007071b          	sext.w	a4,a4
    80003158:	000f0f1b          	sext.w	t5,t5
    8000315c:	21d66c63          	bltu	a2,t4,80003374 <qlz_compress+0x4a4>
    80003160:	ffee8e9b          	addiw	t4,t4,-2
    80003164:	002e9e9b          	slliw	t4,t4,0x2
    80003168:	01df6f33          	or	t5,t5,t4
    8000316c:	000f0f1b          	sext.w	t5,t5
    80003170:	008f5613          	srli	a2,t5,0x8
    80003174:	00ce00a3          	sb	a2,1(t3)
    80003178:	01ee0023          	sb	t5,0(t3)
    8000317c:	00177613          	andi	a2,a4,1
    80003180:	002e0e13          	addi	t3,t3,2
    80003184:	00060593          	mv	a1,a2
    80003188:	ecfc74e3          	bgeu	s8,a5,80003050 <qlz_compress+0x180>
    8000318c:	03813883          	ld	a7,56(sp)
    80003190:	0017551b          	srliw	a0,a4,0x1
    80003194:	0017581b          	srliw	a6,a4,0x1
    80003198:	20f8e863          	bltu	a7,a5,800033a8 <qlz_compress+0x4d8>
    8000319c:	03813583          	ld	a1,56(sp)
    800031a0:	02013803          	ld	a6,32(sp)
    800031a4:	80000f37          	lui	t5,0x80000
    800031a8:	ffd58313          	addi	t1,a1,-3
    800031ac:	00813583          	ld	a1,8(sp)
    800031b0:	00010eb7          	lui	t4,0x10
    800031b4:	010588b3          	add	a7,a1,a6
    800031b8:	08c0006f          	j	80003244 <qlz_compress+0x374>
    800031bc:	0027581b          	srliw	a6,a4,0x2
    800031c0:	00157593          	andi	a1,a0,1
    800031c4:	000f8713          	mv	a4,t6
    800031c8:	0007cf83          	lbu	t6,0(a5)
    800031cc:	06f36063          	bltu	t1,a5,8000322c <qlz_compress+0x35c>
    800031d0:	0017c503          	lbu	a0,1(a5)
    800031d4:	0027c603          	lbu	a2,2(a5)
    800031d8:	0085151b          	slliw	a0,a0,0x8
    800031dc:	0106161b          	slliw	a2,a2,0x10
    800031e0:	00c56533          	or	a0,a0,a2
    800031e4:	00d5529b          	srliw	t0,a0,0xd
    800031e8:	0095561b          	srliw	a2,a0,0x9
    800031ec:	00564633          	xor	a2,a2,t0
    800031f0:	01f56533          	or	a0,a0,t6
    800031f4:	00a64633          	xor	a2,a2,a0
    800031f8:	7ff67613          	andi	a2,a2,2047
    800031fc:	00c68533          	add	a0,a3,a2
    80003200:	00ae8533          	add	a0,t4,a0
    80003204:	00854f83          	lbu	t6,8(a0)
    80003208:	00261613          	slli	a2,a2,0x2
    8000320c:	003ff293          	andi	t0,t6,3
    80003210:	00560633          	add	a2,a2,t0
    80003214:	00361613          	slli	a2,a2,0x3
    80003218:	00c68633          	add	a2,a3,a2
    8000321c:	00f63423          	sd	a5,8(a2)
    80003220:	001f8f9b          	addiw	t6,t6,1
    80003224:	01f50423          	sb	t6,8(a0)
    80003228:	0007cf83          	lbu	t6,0(a5)
    8000322c:	01fe0023          	sb	t6,0(t3)
    80003230:	00178793          	addi	a5,a5,1
    80003234:	001e0e13          	addi	t3,t3,1
    80003238:	17178863          	beq	a5,a7,800033a8 <qlz_compress+0x4d8>
    8000323c:	0017551b          	srliw	a0,a4,0x1
    80003240:	00177613          	andi	a2,a4,1
    80003244:	00050f9b          	sext.w	t6,a0
    80003248:	f6060ae3          	beqz	a2,800031bc <qlz_compress+0x2ec>
    8000324c:	01e56533          	or	a0,a0,t5
    80003250:	0005051b          	sext.w	a0,a0
    80003254:	00855593          	srli	a1,a0,0x8
    80003258:	01855713          	srli	a4,a0,0x18
    8000325c:	01055613          	srli	a2,a0,0x10
    80003260:	00b480a3          	sb	a1,1(s1)
    80003264:	00e481a3          	sb	a4,3(s1)
    80003268:	00a48023          	sb	a0,0(s1)
    8000326c:	00c48123          	sb	a2,2(s1)
    80003270:	20000837          	lui	a6,0x20000
    80003274:	000e0493          	mv	s1,t3
    80003278:	00000593          	li	a1,0
    8000327c:	004e0e13          	addi	t3,t3,4
    80003280:	40000737          	lui	a4,0x40000
    80003284:	f45ff06f          	j	800031c8 <qlz_compress+0x2f8>
    80003288:	0018c383          	lbu	t2,1(a7)
    8000328c:	0028c403          	lbu	s0,2(a7)
    80003290:	0008ca83          	lbu	s5,0(a7)
    80003294:	0083939b          	slliw	t2,t2,0x8
    80003298:	0104141b          	slliw	s0,s0,0x10
    8000329c:	0083e3b3          	or	t2,t2,s0
    800032a0:	0153e3b3          	or	t2,t2,s5
    800032a4:	0003839b          	sext.w	t2,t2
    800032a8:	e4c396e3          	bne	t2,a2,800030f4 <qlz_compress+0x224>
    800032ac:	e548f4e3          	bgeu	a7,s4,800030f4 <qlz_compress+0x224>
    800032b0:	0038c403          	lbu	s0,3(a7)
    800032b4:	0037c383          	lbu	t2,3(a5)
    800032b8:	28741a63          	bne	s0,t2,8000354c <qlz_compress+0x67c>
    800032bc:	00300393          	li	t2,3
    800032c0:	01f3e663          	bltu	t2,t6,800032cc <qlz_compress+0x3fc>
    800032c4:	2880006f          	j	8000354c <qlz_compress+0x67c>
    800032c8:	03f47263          	bgeu	s0,t6,800032ec <qlz_compress+0x41c>
    800032cc:	0013839b          	addiw	t2,t2,1
    800032d0:	02039413          	slli	s0,t2,0x20
    800032d4:	02045413          	srli	s0,s0,0x20
    800032d8:	00888b33          	add	s6,a7,s0
    800032dc:	00878ab3          	add	s5,a5,s0
    800032e0:	000b4b03          	lbu	s6,0(s6)
    800032e4:	000aca83          	lbu	s5,0(s5)
    800032e8:	ff5b00e3          	beq	s6,s5,800032c8 <qlz_compress+0x3f8>
    800032ec:	e07ef4e3          	bgeu	t4,t2,800030f4 <qlz_compress+0x224>
    800032f0:	00050f13          	mv	t5,a0
    800032f4:	00038e93          	mv	t4,t2
    800032f8:	dfdff06f          	j	800030f4 <qlz_compress+0x224>
    800032fc:	0015c503          	lbu	a0,1(a1)
    80003300:	0025c883          	lbu	a7,2(a1)
    80003304:	0005ce83          	lbu	t4,0(a1)
    80003308:	0085151b          	slliw	a0,a0,0x8
    8000330c:	0108989b          	slliw	a7,a7,0x10
    80003310:	01156533          	or	a0,a0,a7
    80003314:	01d56533          	or	a0,a0,t4
    80003318:	0005051b          	sext.w	a0,a0
    8000331c:	00000e93          	li	t4,0
    80003320:	d8c51ee3          	bne	a0,a2,800030bc <qlz_compress+0x1ec>
    80003324:	0035c883          	lbu	a7,3(a1)
    80003328:	0037c503          	lbu	a0,3(a5)
    8000332c:	00300e93          	li	t4,3
    80003330:	d8a896e3          	bne	a7,a0,800030bc <qlz_compress+0x1ec>
    80003334:	0045c883          	lbu	a7,4(a1)
    80003338:	0047c503          	lbu	a0,4(a5)
    8000333c:	00400e93          	li	t4,4
    80003340:	d6a89ee3          	bne	a7,a0,800030bc <qlz_compress+0x1ec>
    80003344:	01f9e663          	bltu	s3,t6,80003350 <qlz_compress+0x480>
    80003348:	d75ff06f          	j	800030bc <qlz_compress+0x1ec>
    8000334c:	d7f578e3          	bgeu	a0,t6,800030bc <qlz_compress+0x1ec>
    80003350:	001e8e9b          	addiw	t4,t4,1
    80003354:	020e9513          	slli	a0,t4,0x20
    80003358:	02055513          	srli	a0,a0,0x20
    8000335c:	00a588b3          	add	a7,a1,a0
    80003360:	00a78f33          	add	t5,a5,a0
    80003364:	0008c883          	lbu	a7,0(a7)
    80003368:	000f4f03          	lbu	t5,0(t5) # ffffffff80000000 <_end+0xfffffffeffff0000>
    8000336c:	ffe880e3          	beq	a7,t5,8000334c <qlz_compress+0x47c>
    80003370:	d4dff06f          	j	800030bc <qlz_compress+0x1ec>
    80003374:	010e9e9b          	slliw	t4,t4,0x10
    80003378:	01df6eb3          	or	t4,t5,t4
    8000337c:	000e8e9b          	sext.w	t4,t4
    80003380:	008ed593          	srli	a1,t4,0x8
    80003384:	010ed613          	srli	a2,t4,0x10
    80003388:	01de0023          	sb	t4,0(t3)
    8000338c:	00be00a3          	sb	a1,1(t3)
    80003390:	00ce0123          	sb	a2,2(t3)
    80003394:	003e0e13          	addi	t3,t3,3
    80003398:	cadff06f          	j	80003044 <qlz_compress+0x174>
    8000339c:	00900793          	li	a5,9
    800033a0:	02f13423          	sd	a5,40(sp)
    800033a4:	b99ff06f          	j	80002f3c <qlz_compress+0x6c>
    800033a8:	00059e63          	bnez	a1,800033c4 <qlz_compress+0x4f4>
    800033ac:	0017579b          	srliw	a5,a4,0x1
    800033b0:	0017f613          	andi	a2,a5,1
    800033b4:	0007081b          	sext.w	a6,a4
    800033b8:	0007871b          	sext.w	a4,a5
    800033bc:	fe0608e3          	beqz	a2,800033ac <qlz_compress+0x4dc>
    800033c0:	0028581b          	srliw	a6,a6,0x2
    800033c4:	800007b7          	lui	a5,0x80000
    800033c8:	00f86833          	or	a6,a6,a5
    800033cc:	01885793          	srli	a5,a6,0x18
    800033d0:	00f481a3          	sb	a5,3(s1)
    800033d4:	01013783          	ld	a5,16(sp)
    800033d8:	00885613          	srli	a2,a6,0x8
    800033dc:	01085713          	srli	a4,a6,0x10
    800033e0:	40fe0533          	sub	a0,t3,a5
    800033e4:	01048023          	sb	a6,0(s1)
    800033e8:	00c480a3          	sb	a2,1(s1)
    800033ec:	00e48123          	sb	a4,2(s1)
    800033f0:	00900793          	li	a5,9
    800033f4:	00f55463          	bge	a0,a5,800033fc <qlz_compress+0x52c>
    800033f8:	00900513          	li	a0,9
    800033fc:	02813783          	ld	a5,40(sp)
    80003400:	00f50533          	add	a0,a0,a5
    80003404:	00100793          	li	a5,1
    80003408:	0006b023          	sd	zero,0(a3)
    8000340c:	02813683          	ld	a3,40(sp)
    80003410:	00300713          	li	a4,3
    80003414:	02014603          	lbu	a2,32(sp)
    80003418:	0ff57593          	andi	a1,a0,255
    8000341c:	08e68e63          	beq	a3,a4,800034b8 <qlz_compress+0x5e8>
    80003420:	02012683          	lw	a3,32(sp)
    80003424:	03013e83          	ld	t4,48(sp)
    80003428:	0005071b          	sext.w	a4,a0
    8000342c:	00875e13          	srli	t3,a4,0x8
    80003430:	01075313          	srli	t1,a4,0x10
    80003434:	0086d893          	srli	a7,a3,0x8
    80003438:	0106d813          	srli	a6,a3,0x10
    8000343c:	01875713          	srli	a4,a4,0x18
    80003440:	0186d693          	srli	a3,a3,0x18
    80003444:	0027e793          	ori	a5,a5,2
    80003448:	00be80a3          	sb	a1,1(t4) # 10001 <_entry_offset+0x10001>
    8000344c:	01ce8123          	sb	t3,2(t4)
    80003450:	006e81a3          	sb	t1,3(t4)
    80003454:	00ee8223          	sb	a4,4(t4)
    80003458:	00ce82a3          	sb	a2,5(t4)
    8000345c:	011e8323          	sb	a7,6(t4)
    80003460:	010e83a3          	sb	a6,7(t4)
    80003464:	00de8423          	sb	a3,8(t4)
    80003468:	03013703          	ld	a4,48(sp)
    8000346c:	0487e793          	ori	a5,a5,72
    80003470:	00f70023          	sb	a5,0(a4) # 40000000 <_entry_offset+0x40000000>
    80003474:	0a813083          	ld	ra,168(sp)
    80003478:	0a013403          	ld	s0,160(sp)
    8000347c:	09813483          	ld	s1,152(sp)
    80003480:	09013903          	ld	s2,144(sp)
    80003484:	08813983          	ld	s3,136(sp)
    80003488:	08013a03          	ld	s4,128(sp)
    8000348c:	07813a83          	ld	s5,120(sp)
    80003490:	07013b03          	ld	s6,112(sp)
    80003494:	06813b83          	ld	s7,104(sp)
    80003498:	06013c03          	ld	s8,96(sp)
    8000349c:	05813c83          	ld	s9,88(sp)
    800034a0:	05013d03          	ld	s10,80(sp)
    800034a4:	04813d83          	ld	s11,72(sp)
    800034a8:	0b010113          	addi	sp,sp,176
    800034ac:	00008067          	ret
    800034b0:	00000513          	li	a0,0
    800034b4:	fc1ff06f          	j	80003474 <qlz_compress+0x5a4>
    800034b8:	03013703          	ld	a4,48(sp)
    800034bc:	00b700a3          	sb	a1,1(a4)
    800034c0:	00c70123          	sb	a2,2(a4)
    800034c4:	fa5ff06f          	j	80003468 <qlz_compress+0x598>
    800034c8:	00813783          	ld	a5,8(sp)
    800034cc:	0a078c63          	beqz	a5,80003584 <qlz_compress+0x6b4>
    800034d0:	00813603          	ld	a2,8(sp)
    800034d4:	02013583          	ld	a1,32(sp)
    800034d8:	01013703          	ld	a4,16(sp)
    800034dc:	00b607b3          	add	a5,a2,a1
    800034e0:	02f77c63          	bgeu	a4,a5,80003518 <qlz_compress+0x648>
    800034e4:	02e67a63          	bgeu	a2,a4,80003518 <qlz_compress+0x648>
    800034e8:	00b70733          	add	a4,a4,a1
    800034ec:	fff7c603          	lbu	a2,-1(a5) # ffffffff7fffffff <_end+0xfffffffefffeffff>
    800034f0:	fff78793          	addi	a5,a5,-1
    800034f4:	fff70713          	addi	a4,a4,-1
    800034f8:	00c70023          	sb	a2,0(a4)
    800034fc:	00813603          	ld	a2,8(sp)
    80003500:	fef616e3          	bne	a2,a5,800034ec <qlz_compress+0x61c>
    80003504:	02813783          	ld	a5,40(sp)
    80003508:	02013703          	ld	a4,32(sp)
    8000350c:	00e78533          	add	a0,a5,a4
    80003510:	00000793          	li	a5,0
    80003514:	ef5ff06f          	j	80003408 <qlz_compress+0x538>
    80003518:	01013783          	ld	a5,16(sp)
    8000351c:	02013703          	ld	a4,32(sp)
    80003520:	00e78733          	add	a4,a5,a4
    80003524:	00813583          	ld	a1,8(sp)
    80003528:	01013603          	ld	a2,16(sp)
    8000352c:	0005c783          	lbu	a5,0(a1)
    80003530:	00160613          	addi	a2,a2,1
    80003534:	00158593          	addi	a1,a1,1
    80003538:	00c13823          	sd	a2,16(sp)
    8000353c:	00b13423          	sd	a1,8(sp)
    80003540:	fef60fa3          	sb	a5,-1(a2)
    80003544:	fec710e3          	bne	a4,a2,80003524 <qlz_compress+0x654>
    80003548:	fbdff06f          	j	80003504 <qlz_compress+0x634>
    8000354c:	00300393          	li	t2,3
    80003550:	d9dff06f          	j	800032ec <qlz_compress+0x41c>
    80003554:	00813783          	ld	a5,8(sp)
    80003558:	03813703          	ld	a4,56(sp)
    8000355c:	00f76e63          	bltu	a4,a5,80003578 <qlz_compress+0x6a8>
    80003560:	00813783          	ld	a5,8(sp)
    80003564:	01013483          	ld	s1,16(sp)
    80003568:	80000737          	lui	a4,0x80000
    8000356c:	40000537          	lui	a0,0x40000
    80003570:	00000613          	li	a2,0
    80003574:	c29ff06f          	j	8000319c <qlz_compress+0x2cc>
    80003578:	01013483          	ld	s1,16(sp)
    8000357c:	80000737          	lui	a4,0x80000
    80003580:	e2dff06f          	j	800033ac <qlz_compress+0x4dc>
    80003584:	925ff0ef          	jal	ra,80002ea8 <bench_memcpy.part.0>

0000000080003588 <bench_bf_prepare>:
    80003588:	00004797          	auipc	a5,0x4
    8000358c:	4907b783          	ld	a5,1168(a5) # 80007a18 <setting>
    80003590:	0007a783          	lw	a5,0(a5)
    80003594:	fd010113          	addi	sp,sp,-48
    80003598:	01213823          	sd	s2,16(sp)
    8000359c:	00004537          	lui	a0,0x4
    800035a0:	00004917          	auipc	s2,0x4
    800035a4:	3b890913          	addi	s2,s2,952 # 80007958 <ARR_SIZE>
    800035a8:	02113423          	sd	ra,40(sp)
    800035ac:	00f92023          	sw	a5,0(s2)
    800035b0:	01313423          	sd	s3,8(sp)
    800035b4:	00004797          	auipc	a5,0x4
    800035b8:	3a07aa23          	sw	zero,948(a5) # 80007968 <SP>
    800035bc:	02813023          	sd	s0,32(sp)
    800035c0:	00913c23          	sd	s1,24(sp)
    800035c4:	01413023          	sd	s4,0(sp)
    800035c8:	f51fc0ef          	jal	ra,80000518 <bench_alloc>
    800035cc:	00050793          	mv	a5,a0
    800035d0:	40000513          	li	a0,1024
    800035d4:	00004717          	auipc	a4,0x4
    800035d8:	38f73623          	sd	a5,908(a4) # 80007960 <PROGRAM>
    800035dc:	f3dfc0ef          	jal	ra,80000518 <bench_alloc>
    800035e0:	00050793          	mv	a5,a0
    800035e4:	00002537          	lui	a0,0x2
    800035e8:	00004717          	auipc	a4,0x4
    800035ec:	38f73423          	sd	a5,904(a4) # 80007970 <STACK>
    800035f0:	f29fc0ef          	jal	ra,80000518 <bench_alloc>
    800035f4:	00092783          	lw	a5,0(s2)
    800035f8:	00004717          	auipc	a4,0x4
    800035fc:	38a73423          	sd	a0,904(a4) # 80007980 <data>
    80003600:	00004997          	auipc	s3,0x4
    80003604:	38898993          	addi	s3,s3,904 # 80007988 <input>
    80003608:	0017851b          	addiw	a0,a5,1
    8000360c:	00003797          	auipc	a5,0x3
    80003610:	05478793          	addi	a5,a5,84 # 80006660 <_etext+0x480>
    80003614:	00004717          	auipc	a4,0x4
    80003618:	36f73223          	sd	a5,868(a4) # 80007978 <code>
    8000361c:	efdfc0ef          	jal	ra,80000518 <bench_alloc>
    80003620:	00050793          	mv	a5,a0
    80003624:	00001537          	lui	a0,0x1
    80003628:	00f9b023          	sd	a5,0(s3)
    8000362c:	eedfc0ef          	jal	ra,80000518 <bench_alloc>
    80003630:	00050793          	mv	a5,a0
    80003634:	00100513          	li	a0,1
    80003638:	00004717          	auipc	a4,0x4
    8000363c:	36f73023          	sd	a5,864(a4) # 80007998 <output>
    80003640:	00004797          	auipc	a5,0x4
    80003644:	3407a823          	sw	zero,848(a5) # 80007990 <noutput>
    80003648:	f6dfc0ef          	jal	ra,800005b4 <bench_srand>
    8000364c:	00092783          	lw	a5,0(s2)
    80003650:	04f05863          	blez	a5,800036a0 <bench_bf_prepare+0x118>
    80003654:	00000413          	li	s0,0
    80003658:	00003a17          	auipc	s4,0x3
    8000365c:	0c0a0a13          	addi	s4,s4,192 # 80006718 <_etext+0x538>
    80003660:	f69fc0ef          	jal	ra,800005c8 <bench_rand>
    80003664:	02051513          	slli	a0,a0,0x20
    80003668:	03e00593          	li	a1,62
    8000366c:	02055513          	srli	a0,a0,0x20
    80003670:	318010ef          	jal	ra,80004988 <__umoddi3>
    80003674:	02051513          	slli	a0,a0,0x20
    80003678:	02055513          	srli	a0,a0,0x20
    8000367c:	0009b483          	ld	s1,0(s3)
    80003680:	00aa0533          	add	a0,s4,a0
    80003684:	00054783          	lbu	a5,0(a0) # 1000 <_entry_offset+0x1000>
    80003688:	00092703          	lw	a4,0(s2)
    8000368c:	008484b3          	add	s1,s1,s0
    80003690:	00140413          	addi	s0,s0,1
    80003694:	00f48023          	sb	a5,0(s1)
    80003698:	0004079b          	sext.w	a5,s0
    8000369c:	fce7c2e3          	blt	a5,a4,80003660 <bench_bf_prepare+0xd8>
    800036a0:	02813083          	ld	ra,40(sp)
    800036a4:	02013403          	ld	s0,32(sp)
    800036a8:	01813483          	ld	s1,24(sp)
    800036ac:	01013903          	ld	s2,16(sp)
    800036b0:	00813983          	ld	s3,8(sp)
    800036b4:	00013a03          	ld	s4,0(sp)
    800036b8:	03010113          	addi	sp,sp,48
    800036bc:	00008067          	ret

00000000800036c0 <bench_bf_run>:
    800036c0:	00004317          	auipc	t1,0x4
    800036c4:	2b830313          	addi	t1,t1,696 # 80007978 <code>
    800036c8:	00033583          	ld	a1,0(t1)
    800036cc:	fc010113          	addi	sp,sp,-64
    800036d0:	02813c23          	sd	s0,56(sp)
    800036d4:	02913823          	sd	s1,48(sp)
    800036d8:	03213423          	sd	s2,40(sp)
    800036dc:	03313023          	sd	s3,32(sp)
    800036e0:	01413c23          	sd	s4,24(sp)
    800036e4:	01513823          	sd	s5,16(sp)
    800036e8:	01613423          	sd	s6,8(sp)
    800036ec:	01713023          	sd	s7,0(sp)
    800036f0:	0005c703          	lbu	a4,0(a1)
    800036f4:	00004517          	auipc	a0,0x4
    800036f8:	27450513          	addi	a0,a0,628 # 80007968 <SP>
    800036fc:	00052603          	lw	a2,0(a0)
    80003700:	00004697          	auipc	a3,0x4
    80003704:	2606b683          	ld	a3,608(a3) # 80007960 <PROGRAM>
    80003708:	38070463          	beqz	a4,80003a90 <bench_bf_run+0x3d0>
    8000370c:	00004897          	auipc	a7,0x4
    80003710:	2648b883          	ld	a7,612(a7) # 80007970 <STACK>
    80003714:	00158593          	addi	a1,a1,1
    80003718:	00000b13          	li	s6,0
    8000371c:	00000a93          	li	s5,0
    80003720:	00000793          	li	a5,0
    80003724:	03200a13          	li	s4,50
    80003728:	00003817          	auipc	a6,0x3
    8000372c:	03080813          	addi	a6,a6,48 # 80006758 <_etext+0x578>
    80003730:	000019b7          	lui	s3,0x1
    80003734:	00800913          	li	s2,8
    80003738:	00700493          	li	s1,7
    8000373c:	20000413          	li	s0,512
    80003740:	00600393          	li	t2,6
    80003744:	00500293          	li	t0,5
    80003748:	00400f93          	li	t6,4
    8000374c:	00300f13          	li	t5,3
    80003750:	00200e93          	li	t4,2
    80003754:	00100e13          	li	t3,1
    80003758:	fd57071b          	addiw	a4,a4,-43
    8000375c:	0ff77713          	andi	a4,a4,255
    80003760:	fff58b93          	addi	s7,a1,-1
    80003764:	00ea6c63          	bltu	s4,a4,8000377c <bench_bf_run+0xbc>
    80003768:	00271713          	slli	a4,a4,0x2
    8000376c:	01070733          	add	a4,a4,a6
    80003770:	00072703          	lw	a4,0(a4)
    80003774:	01070733          	add	a4,a4,a6
    80003778:	00070067          	jr	a4
    8000377c:	0005c703          	lbu	a4,0(a1)
    80003780:	10070a63          	beqz	a4,80003894 <bench_bf_run+0x1d4>
    80003784:	00158593          	addi	a1,a1,1
    80003788:	00100b13          	li	s6,1
    8000378c:	fcdff06f          	j	80003758 <bench_bf_run+0x98>
    80003790:	2c060e63          	beqz	a2,80003a6c <bench_bf_run+0x3ac>
    80003794:	fff6061b          	addiw	a2,a2,-1
    80003798:	02061713          	slli	a4,a2,0x20
    8000379c:	01f75713          	srli	a4,a4,0x1f
    800037a0:	00e88733          	add	a4,a7,a4
    800037a4:	00075b03          	lhu	s6,0(a4)
    800037a8:	00279713          	slli	a4,a5,0x2
    800037ac:	00e68733          	add	a4,a3,a4
    800037b0:	002b1a93          	slli	s5,s6,0x2
    800037b4:	01671123          	sh	s6,2(a4)
    800037b8:	01271023          	sh	s2,0(a4)
    800037bc:	01568733          	add	a4,a3,s5
    800037c0:	00f71123          	sh	a5,2(a4)
    800037c4:	00100a93          	li	s5,1
    800037c8:	0005c703          	lbu	a4,0(a1)
    800037cc:	0017879b          	addiw	a5,a5,1
    800037d0:	03079793          	slli	a5,a5,0x30
    800037d4:	0307d793          	srli	a5,a5,0x30
    800037d8:	0a070e63          	beqz	a4,80003894 <bench_bf_run+0x1d4>
    800037dc:	fb3794e3          	bne	a5,s3,80003784 <bench_bf_run+0xc4>
    800037e0:	000a8463          	beqz	s5,800037e8 <bench_bf_run+0x128>
    800037e4:	00c52023          	sw	a2,0(a0)
    800037e8:	00b33023          	sd	a1,0(t1)
    800037ec:	0006d703          	lhu	a4,0(a3)
    800037f0:	16070c63          	beqz	a4,80003968 <bench_bf_run+0x2a8>
    800037f4:	00004e97          	auipc	t4,0x4
    800037f8:	194e8e93          	addi	t4,t4,404 # 80007988 <input>
    800037fc:	00004e17          	auipc	t3,0x4
    80003800:	194e0e13          	addi	t3,t3,404 # 80007990 <noutput>
    80003804:	000eb803          	ld	a6,0(t4)
    80003808:	000e2503          	lw	a0,0(t3)
    8000380c:	00004597          	auipc	a1,0x4
    80003810:	1745b583          	ld	a1,372(a1) # 80007980 <data>
    80003814:	00004397          	auipc	t2,0x4
    80003818:	1843b383          	ld	t2,388(t2) # 80007998 <output>
    8000381c:	00068793          	mv	a5,a3
    80003820:	00000f13          	li	t5,0
    80003824:	00000313          	li	t1,0
    80003828:	00000413          	li	s0,0
    8000382c:	00000613          	li	a2,0
    80003830:	00800293          	li	t0,8
    80003834:	00003897          	auipc	a7,0x3
    80003838:	ff088893          	addi	a7,a7,-16 # 80006824 <_etext+0x644>
    8000383c:	00001fb7          	lui	t6,0x1
    80003840:	10e2ec63          	bltu	t0,a4,80003958 <bench_bf_run+0x298>
    80003844:	00271713          	slli	a4,a4,0x2
    80003848:	01170733          	add	a4,a4,a7
    8000384c:	00072703          	lw	a4,0(a4)
    80003850:	01170733          	add	a4,a4,a7
    80003854:	00070067          	jr	a4
    80003858:	00279713          	slli	a4,a5,0x2
    8000385c:	00e68733          	add	a4,a3,a4
    80003860:	00971023          	sh	s1,0(a4)
    80003864:	22860063          	beq	a2,s0,80003a84 <bench_bf_run+0x3c4>
    80003868:	02061713          	slli	a4,a2,0x20
    8000386c:	01f75713          	srli	a4,a4,0x1f
    80003870:	00e88733          	add	a4,a7,a4
    80003874:	00f71023          	sh	a5,0(a4)
    80003878:	0005c703          	lbu	a4,0(a1)
    8000387c:	0017879b          	addiw	a5,a5,1
    80003880:	03079793          	slli	a5,a5,0x30
    80003884:	0016061b          	addiw	a2,a2,1
    80003888:	00100a93          	li	s5,1
    8000388c:	0307d793          	srli	a5,a5,0x30
    80003890:	f40716e3          	bnez	a4,800037dc <bench_bf_run+0x11c>
    80003894:	000a8463          	beqz	s5,8000389c <bench_bf_run+0x1dc>
    80003898:	00c52023          	sw	a2,0(a0)
    8000389c:	00052703          	lw	a4,0(a0)
    800038a0:	00b33023          	sd	a1,0(t1)
    800038a4:	f40714e3          	bnez	a4,800037ec <bench_bf_run+0x12c>
    800038a8:	00001737          	lui	a4,0x1
    800038ac:	f4e780e3          	beq	a5,a4,800037ec <bench_bf_run+0x12c>
    800038b0:	00279793          	slli	a5,a5,0x2
    800038b4:	00f687b3          	add	a5,a3,a5
    800038b8:	00079023          	sh	zero,0(a5)
    800038bc:	0006d703          	lhu	a4,0(a3)
    800038c0:	f2071ae3          	bnez	a4,800037f4 <bench_bf_run+0x134>
    800038c4:	0a40006f          	j	80003968 <bench_bf_run+0x2a8>
    800038c8:	00279713          	slli	a4,a5,0x2
    800038cc:	00e68733          	add	a4,a3,a4
    800038d0:	01c71023          	sh	t3,0(a4) # 1000 <_entry_offset+0x1000>
    800038d4:	ef5ff06f          	j	800037c8 <bench_bf_run+0x108>
    800038d8:	00279713          	slli	a4,a5,0x2
    800038dc:	00e68733          	add	a4,a3,a4
    800038e0:	01d71023          	sh	t4,0(a4)
    800038e4:	ee5ff06f          	j	800037c8 <bench_bf_run+0x108>
    800038e8:	00279713          	slli	a4,a5,0x2
    800038ec:	00e68733          	add	a4,a3,a4
    800038f0:	00571023          	sh	t0,0(a4)
    800038f4:	ed5ff06f          	j	800037c8 <bench_bf_run+0x108>
    800038f8:	00279713          	slli	a4,a5,0x2
    800038fc:	00e68733          	add	a4,a3,a4
    80003900:	01f71023          	sh	t6,0(a4)
    80003904:	ec5ff06f          	j	800037c8 <bench_bf_run+0x108>
    80003908:	00279713          	slli	a4,a5,0x2
    8000390c:	00e68733          	add	a4,a3,a4
    80003910:	00771023          	sh	t2,0(a4)
    80003914:	eb5ff06f          	j	800037c8 <bench_bf_run+0x108>
    80003918:	00279713          	slli	a4,a5,0x2
    8000391c:	00e68733          	add	a4,a3,a4
    80003920:	01e71023          	sh	t5,0(a4)
    80003924:	ea5ff06f          	j	800037c8 <bench_bf_run+0x108>
    80003928:	02061713          	slli	a4,a2,0x20
    8000392c:	01f75713          	srli	a4,a4,0x1f
    80003930:	00e58733          	add	a4,a1,a4
    80003934:	00075703          	lhu	a4,0(a4)
    80003938:	08070863          	beqz	a4,800039c8 <bench_bf_run+0x308>
    8000393c:	0027d403          	lhu	s0,2(a5)
    80003940:	0014041b          	addiw	s0,s0,1
    80003944:	02041793          	slli	a5,s0,0x20
    80003948:	01e7d793          	srli	a5,a5,0x1e
    8000394c:	00f687b3          	add	a5,a3,a5
    80003950:	0007d703          	lhu	a4,0(a5)
    80003954:	ee0716e3          	bnez	a4,80003840 <bench_bf_run+0x180>
    80003958:	00030463          	beqz	t1,80003960 <bench_bf_run+0x2a0>
    8000395c:	00ae2023          	sw	a0,0(t3)
    80003960:	000f0463          	beqz	t5,80003968 <bench_bf_run+0x2a8>
    80003964:	010eb023          	sd	a6,0(t4)
    80003968:	03813403          	ld	s0,56(sp)
    8000396c:	03013483          	ld	s1,48(sp)
    80003970:	02813903          	ld	s2,40(sp)
    80003974:	02013983          	ld	s3,32(sp)
    80003978:	01813a03          	ld	s4,24(sp)
    8000397c:	01013a83          	ld	s5,16(sp)
    80003980:	00813b03          	ld	s6,8(sp)
    80003984:	00013b83          	ld	s7,0(sp)
    80003988:	04010113          	addi	sp,sp,64
    8000398c:	00008067          	ret
    80003990:	02061713          	slli	a4,a2,0x20
    80003994:	01f75713          	srli	a4,a4,0x1f
    80003998:	00e58733          	add	a4,a1,a4
    8000399c:	00075703          	lhu	a4,0(a4)
    800039a0:	02071463          	bnez	a4,800039c8 <bench_bf_run+0x308>
    800039a4:	0027d403          	lhu	s0,2(a5)
    800039a8:	f99ff06f          	j	80003940 <bench_bf_run+0x280>
    800039ac:	00084703          	lbu	a4,0(a6)
    800039b0:	02061793          	slli	a5,a2,0x20
    800039b4:	01f7d793          	srli	a5,a5,0x1f
    800039b8:	00f587b3          	add	a5,a1,a5
    800039bc:	00e79023          	sh	a4,0(a5)
    800039c0:	00180813          	addi	a6,a6,1
    800039c4:	00100f13          	li	t5,1
    800039c8:	0014041b          	addiw	s0,s0,1
    800039cc:	02041793          	slli	a5,s0,0x20
    800039d0:	01e7d793          	srli	a5,a5,0x1e
    800039d4:	00f687b3          	add	a5,a3,a5
    800039d8:	0007d703          	lhu	a4,0(a5)
    800039dc:	e60712e3          	bnez	a4,80003840 <bench_bf_run+0x180>
    800039e0:	f79ff06f          	j	80003958 <bench_bf_run+0x298>
    800039e4:	02061793          	slli	a5,a2,0x20
    800039e8:	01f7d793          	srli	a5,a5,0x1f
    800039ec:	00f587b3          	add	a5,a1,a5
    800039f0:	0007d703          	lhu	a4,0(a5)
    800039f4:	fff7071b          	addiw	a4,a4,-1
    800039f8:	00e79023          	sh	a4,0(a5)
    800039fc:	fcdff06f          	j	800039c8 <bench_bf_run+0x308>
    80003a00:	02061793          	slli	a5,a2,0x20
    80003a04:	01f7d793          	srli	a5,a5,0x1f
    80003a08:	00f587b3          	add	a5,a1,a5
    80003a0c:	0007d703          	lhu	a4,0(a5)
    80003a10:	00a387b3          	add	a5,t2,a0
    80003a14:	00100313          	li	t1,1
    80003a18:	00e78023          	sb	a4,0(a5)
    80003a1c:	0015051b          	addiw	a0,a0,1
    80003a20:	fa9ff06f          	j	800039c8 <bench_bf_run+0x308>
    80003a24:	02061793          	slli	a5,a2,0x20
    80003a28:	01f7d793          	srli	a5,a5,0x1f
    80003a2c:	00f587b3          	add	a5,a1,a5
    80003a30:	0007d703          	lhu	a4,0(a5)
    80003a34:	0017071b          	addiw	a4,a4,1
    80003a38:	00e79023          	sh	a4,0(a5)
    80003a3c:	f8dff06f          	j	800039c8 <bench_bf_run+0x308>
    80003a40:	fff6061b          	addiw	a2,a2,-1
    80003a44:	0014041b          	addiw	s0,s0,1
    80003a48:	02041793          	slli	a5,s0,0x20
    80003a4c:	01e7d793          	srli	a5,a5,0x1e
    80003a50:	00f687b3          	add	a5,a3,a5
    80003a54:	0007d703          	lhu	a4,0(a5)
    80003a58:	f00700e3          	beqz	a4,80003958 <bench_bf_run+0x298>
    80003a5c:	dff662e3          	bltu	a2,t6,80003840 <bench_bf_run+0x180>
    80003a60:	ef9ff06f          	j	80003958 <bench_bf_run+0x298>
    80003a64:	0016061b          	addiw	a2,a2,1
    80003a68:	fddff06f          	j	80003a44 <bench_bf_run+0x384>
    80003a6c:	000a8663          	beqz	s5,80003a78 <bench_bf_run+0x3b8>
    80003a70:	00004797          	auipc	a5,0x4
    80003a74:	ee07ac23          	sw	zero,-264(a5) # 80007968 <SP>
    80003a78:	d60b0ae3          	beqz	s6,800037ec <bench_bf_run+0x12c>
    80003a7c:	01733023          	sd	s7,0(t1)
    80003a80:	d6dff06f          	j	800037ec <bench_bf_run+0x12c>
    80003a84:	fe0a8ae3          	beqz	s5,80003a78 <bench_bf_run+0x3b8>
    80003a88:	00c52023          	sw	a2,0(a0)
    80003a8c:	fedff06f          	j	80003a78 <bench_bf_run+0x3b8>
    80003a90:	00068793          	mv	a5,a3
    80003a94:	e20602e3          	beqz	a2,800038b8 <bench_bf_run+0x1f8>
    80003a98:	d55ff06f          	j	800037ec <bench_bf_run+0x12c>

0000000080003a9c <bench_bf_validate>:
    80003a9c:	ff010113          	addi	sp,sp,-16
    80003aa0:	00813023          	sd	s0,0(sp)
    80003aa4:	00004417          	auipc	s0,0x4
    80003aa8:	eec40413          	addi	s0,s0,-276 # 80007990 <noutput>
    80003aac:	00042583          	lw	a1,0(s0)
    80003ab0:	00004517          	auipc	a0,0x4
    80003ab4:	ee853503          	ld	a0,-280(a0) # 80007998 <output>
    80003ab8:	00113423          	sd	ra,8(sp)
    80003abc:	00b505b3          	add	a1,a0,a1
    80003ac0:	b59fc0ef          	jal	ra,80000618 <checksum>
    80003ac4:	00042683          	lw	a3,0(s0)
    80003ac8:	00004717          	auipc	a4,0x4
    80003acc:	e9072703          	lw	a4,-368(a4) # 80007958 <ARR_SIZE>
    80003ad0:	00e68c63          	beq	a3,a4,80003ae8 <bench_bf_validate+0x4c>
    80003ad4:	00813083          	ld	ra,8(sp)
    80003ad8:	00013403          	ld	s0,0(sp)
    80003adc:	00000513          	li	a0,0
    80003ae0:	01010113          	addi	sp,sp,16
    80003ae4:	00008067          	ret
    80003ae8:	00004717          	auipc	a4,0x4
    80003aec:	f3073703          	ld	a4,-208(a4) # 80007a18 <setting>
    80003af0:	0005079b          	sext.w	a5,a0
    80003af4:	01872503          	lw	a0,24(a4)
    80003af8:	00813083          	ld	ra,8(sp)
    80003afc:	00013403          	ld	s0,0(sp)
    80003b00:	40f50533          	sub	a0,a0,a5
    80003b04:	00153513          	seqz	a0,a0
    80003b08:	01010113          	addi	sp,sp,16
    80003b0c:	00008067          	ret

0000000080003b10 <bench_fib_prepare>:
    80003b10:	00004797          	auipc	a5,0x4
    80003b14:	f087b783          	ld	a5,-248(a5) # 80007a18 <setting>
    80003b18:	0007a783          	lw	a5,0(a5)
    80003b1c:	ff010113          	addi	sp,sp,-16
    80003b20:	00113423          	sd	ra,8(sp)
    80003b24:	0007859b          	sext.w	a1,a5
    80003b28:	00058513          	mv	a0,a1
    80003b2c:	00004717          	auipc	a4,0x4
    80003b30:	e6f72e23          	sw	a5,-388(a4) # 800079a8 <M>
    80003b34:	00813023          	sd	s0,0(sp)
    80003b38:	59d000ef          	jal	ra,800048d4 <__muldi3>
    80003b3c:	0025141b          	slliw	s0,a0,0x2
    80003b40:	00040513          	mv	a0,s0
    80003b44:	9d5fc0ef          	jal	ra,80000518 <bench_alloc>
    80003b48:	00050793          	mv	a5,a0
    80003b4c:	00040513          	mv	a0,s0
    80003b50:	00004717          	auipc	a4,0x4
    80003b54:	e4f73823          	sd	a5,-432(a4) # 800079a0 <A>
    80003b58:	9c1fc0ef          	jal	ra,80000518 <bench_alloc>
    80003b5c:	00050793          	mv	a5,a0
    80003b60:	00040513          	mv	a0,s0
    80003b64:	00004717          	auipc	a4,0x4
    80003b68:	e4f73623          	sd	a5,-436(a4) # 800079b0 <T>
    80003b6c:	9adfc0ef          	jal	ra,80000518 <bench_alloc>
    80003b70:	00050793          	mv	a5,a0
    80003b74:	00040513          	mv	a0,s0
    80003b78:	00004717          	auipc	a4,0x4
    80003b7c:	e4f73023          	sd	a5,-448(a4) # 800079b8 <ans>
    80003b80:	999fc0ef          	jal	ra,80000518 <bench_alloc>
    80003b84:	00813083          	ld	ra,8(sp)
    80003b88:	00013403          	ld	s0,0(sp)
    80003b8c:	00004797          	auipc	a5,0x4
    80003b90:	e2a7ba23          	sd	a0,-460(a5) # 800079c0 <tmp>
    80003b94:	01010113          	addi	sp,sp,16
    80003b98:	00008067          	ret

0000000080003b9c <bench_fib_run>:
    80003b9c:	f5010113          	addi	sp,sp,-176
    80003ba0:	00004797          	auipc	a5,0x4
    80003ba4:	e107b783          	ld	a5,-496(a5) # 800079b0 <T>
    80003ba8:	00f13423          	sd	a5,8(sp)
    80003bac:	00004797          	auipc	a5,0x4
    80003bb0:	e0c7b783          	ld	a5,-500(a5) # 800079b8 <ans>
    80003bb4:	0a813023          	sd	s0,160(sp)
    80003bb8:	0a113423          	sd	ra,168(sp)
    80003bbc:	08913c23          	sd	s1,152(sp)
    80003bc0:	09213823          	sd	s2,144(sp)
    80003bc4:	09313423          	sd	s3,136(sp)
    80003bc8:	09413023          	sd	s4,128(sp)
    80003bcc:	07513c23          	sd	s5,120(sp)
    80003bd0:	07613823          	sd	s6,112(sp)
    80003bd4:	07713423          	sd	s7,104(sp)
    80003bd8:	07813023          	sd	s8,96(sp)
    80003bdc:	05913c23          	sd	s9,88(sp)
    80003be0:	05a13823          	sd	s10,80(sp)
    80003be4:	05b13423          	sd	s11,72(sp)
    80003be8:	00004417          	auipc	s0,0x4
    80003bec:	dc042403          	lw	s0,-576(s0) # 800079a8 <M>
    80003bf0:	00f13c23          	sd	a5,24(sp)
    80003bf4:	2a805263          	blez	s0,80003e98 <bench_fib_run+0x2fc>
    80003bf8:	fff4039b          	addiw	t2,s0,-1
    80003bfc:	00004f17          	auipc	t5,0x4
    80003c00:	da4f3f03          	ld	t5,-604(t5) # 800079a0 <A>
    80003c04:	00038e9b          	sext.w	t4,t2
    80003c08:	00241493          	slli	s1,s0,0x2
    80003c0c:	00000293          	li	t0,0
    80003c10:	00000f93          	li	t6,0
    80003c14:	00000e13          	li	t3,0
    80003c18:	001e0e1b          	addiw	t3,t3,1
    80003c1c:	00028713          	mv	a4,t0
    80003c20:	00000793          	li	a5,0
    80003c24:	000f859b          	sext.w	a1,t6
    80003c28:	00813683          	ld	a3,8(sp)
    80003c2c:	01813603          	ld	a2,24(sp)
    80003c30:	41c78333          	sub	t1,a5,t3
    80003c34:	00e68833          	add	a6,a3,a4
    80003c38:	40b786b3          	sub	a3,a5,a1
    80003c3c:	00e60533          	add	a0,a2,a4
    80003c40:	00ef08b3          	add	a7,t5,a4
    80003c44:	0016b693          	seqz	a3,a3
    80003c48:	0017879b          	addiw	a5,a5,1
    80003c4c:	00100613          	li	a2,1
    80003c50:	00be8463          	beq	t4,a1,80003c58 <bench_fib_run+0xbc>
    80003c54:	00133613          	seqz	a2,t1
    80003c58:	00c8a023          	sw	a2,0(a7)
    80003c5c:	00c82023          	sw	a2,0(a6)
    80003c60:	00d52023          	sw	a3,0(a0)
    80003c64:	00470713          	addi	a4,a4,4
    80003c68:	fc8790e3          	bne	a5,s0,80003c28 <bench_fib_run+0x8c>
    80003c6c:	001f8f9b          	addiw	t6,t6,1
    80003c70:	009282b3          	add	t0,t0,s1
    80003c74:	fbc412e3          	bne	s0,t3,80003c18 <bench_fib_run+0x7c>
    80003c78:	01813703          	ld	a4,24(sp)
    80003c7c:	02039793          	slli	a5,t2,0x20
    80003c80:	00004697          	auipc	a3,0x4
    80003c84:	d406b683          	ld	a3,-704(a3) # 800079c0 <tmp>
    80003c88:	0207d793          	srli	a5,a5,0x20
    80003c8c:	00279793          	slli	a5,a5,0x2
    80003c90:	02d13423          	sd	a3,40(sp)
    80003c94:	00470713          	addi	a4,a4,4
    80003c98:	00468693          	addi	a3,a3,4
    80003c9c:	00f70733          	add	a4,a4,a5
    80003ca0:	00f687b3          	add	a5,a3,a5
    80003ca4:	02f13c23          	sd	a5,56(sp)
    80003ca8:	80000d37          	lui	s10,0x80000
    80003cac:	01f00793          	li	a5,31
    80003cb0:	02f13023          	sd	a5,32(sp)
    80003cb4:	fd3d4793          	xori	a5,s10,-45
    80003cb8:	02e13823          	sd	a4,48(sp)
    80003cbc:	00f13823          	sd	a5,16(sp)
    80003cc0:	01013783          	ld	a5,16(sp)
    80003cc4:	0017f793          	andi	a5,a5,1
    80003cc8:	10079c63          	bnez	a5,80003de0 <bench_fib_run+0x244>
    80003ccc:	0a805e63          	blez	s0,80003d88 <bench_fib_run+0x1ec>
    80003cd0:	00813903          	ld	s2,8(sp)
    80003cd4:	02813a83          	ld	s5,40(sp)
    80003cd8:	00000a13          	li	s4,0
    80003cdc:	01213023          	sd	s2,0(sp)
    80003ce0:	00813b03          	ld	s6,8(sp)
    80003ce4:	000a8d13          	mv	s10,s5
    80003ce8:	00000d93          	li	s11,0
    80003cec:	000d2023          	sw	zero,0(s10) # ffffffff80000000 <_end+0xfffffffeffff0000>
    80003cf0:	000b0993          	mv	s3,s6
    80003cf4:	00090c93          	mv	s9,s2
    80003cf8:	00000b93          	li	s7,0
    80003cfc:	00000c13          	li	s8,0
    80003d00:	0009a583          	lw	a1,0(s3) # 1000 <_entry_offset+0x1000>
    80003d04:	000ca503          	lw	a0,0(s9)
    80003d08:	001c0c1b          	addiw	s8,s8,1
    80003d0c:	004c8c93          	addi	s9,s9,4
    80003d10:	3c5000ef          	jal	ra,800048d4 <__muldi3>
    80003d14:	01750bbb          	addw	s7,a0,s7
    80003d18:	017d2023          	sw	s7,0(s10)
    80003d1c:	009989b3          	add	s3,s3,s1
    80003d20:	fe8c40e3          	blt	s8,s0,80003d00 <bench_fib_run+0x164>
    80003d24:	001d8d9b          	addiw	s11,s11,1
    80003d28:	004d0d13          	addi	s10,s10,4
    80003d2c:	004b0b13          	addi	s6,s6,4
    80003d30:	fa8dcee3          	blt	s11,s0,80003cec <bench_fib_run+0x150>
    80003d34:	001a0a1b          	addiw	s4,s4,1
    80003d38:	00990933          	add	s2,s2,s1
    80003d3c:	009a8ab3          	add	s5,s5,s1
    80003d40:	fa8a40e3          	blt	s4,s0,80003ce0 <bench_fib_run+0x144>
    80003d44:	02813503          	ld	a0,40(sp)
    80003d48:	00000593          	li	a1,0
    80003d4c:	00013683          	ld	a3,0(sp)
    80003d50:	00050713          	mv	a4,a0
    80003d54:	00000793          	li	a5,0
    80003d58:	00072603          	lw	a2,0(a4)
    80003d5c:	0017879b          	addiw	a5,a5,1
    80003d60:	00470713          	addi	a4,a4,4
    80003d64:	00c6a023          	sw	a2,0(a3)
    80003d68:	00468693          	addi	a3,a3,4
    80003d6c:	fe87c6e3          	blt	a5,s0,80003d58 <bench_fib_run+0x1bc>
    80003d70:	00013783          	ld	a5,0(sp)
    80003d74:	0015859b          	addiw	a1,a1,1
    80003d78:	00950533          	add	a0,a0,s1
    80003d7c:	009787b3          	add	a5,a5,s1
    80003d80:	00f13023          	sd	a5,0(sp)
    80003d84:	fc85c4e3          	blt	a1,s0,80003d4c <bench_fib_run+0x1b0>
    80003d88:	02013783          	ld	a5,32(sp)
    80003d8c:	01013703          	ld	a4,16(sp)
    80003d90:	fff7879b          	addiw	a5,a5,-1
    80003d94:	40175713          	srai	a4,a4,0x1
    80003d98:	02f13023          	sd	a5,32(sp)
    80003d9c:	00e13823          	sd	a4,16(sp)
    80003da0:	f20790e3          	bnez	a5,80003cc0 <bench_fib_run+0x124>
    80003da4:	0a813083          	ld	ra,168(sp)
    80003da8:	0a013403          	ld	s0,160(sp)
    80003dac:	09813483          	ld	s1,152(sp)
    80003db0:	09013903          	ld	s2,144(sp)
    80003db4:	08813983          	ld	s3,136(sp)
    80003db8:	08013a03          	ld	s4,128(sp)
    80003dbc:	07813a83          	ld	s5,120(sp)
    80003dc0:	07013b03          	ld	s6,112(sp)
    80003dc4:	06813b83          	ld	s7,104(sp)
    80003dc8:	06013c03          	ld	s8,96(sp)
    80003dcc:	05813c83          	ld	s9,88(sp)
    80003dd0:	05013d03          	ld	s10,80(sp)
    80003dd4:	04813d83          	ld	s11,72(sp)
    80003dd8:	0b010113          	addi	sp,sp,176
    80003ddc:	00008067          	ret
    80003de0:	fa8054e3          	blez	s0,80003d88 <bench_fib_run+0x1ec>
    80003de4:	02813c83          	ld	s9,40(sp)
    80003de8:	03013983          	ld	s3,48(sp)
    80003dec:	01813b83          	ld	s7,24(sp)
    80003df0:	00000c13          	li	s8,0
    80003df4:	00813a83          	ld	s5,8(sp)
    80003df8:	000c8913          	mv	s2,s9
    80003dfc:	00000a13          	li	s4,0
    80003e00:	00092023          	sw	zero,0(s2)
    80003e04:	000a8d93          	mv	s11,s5
    80003e08:	000b8d13          	mv	s10,s7
    80003e0c:	00000b13          	li	s6,0
    80003e10:	000da583          	lw	a1,0(s11) # ffffffff80000000 <_end+0xfffffffeffff0000>
    80003e14:	000d2503          	lw	a0,0(s10)
    80003e18:	004d0d13          	addi	s10,s10,4
    80003e1c:	009d8db3          	add	s11,s11,s1
    80003e20:	2b5000ef          	jal	ra,800048d4 <__muldi3>
    80003e24:	01650b3b          	addw	s6,a0,s6
    80003e28:	01692023          	sw	s6,0(s2)
    80003e2c:	ffa992e3          	bne	s3,s10,80003e10 <bench_fib_run+0x274>
    80003e30:	001a0a1b          	addiw	s4,s4,1
    80003e34:	00490913          	addi	s2,s2,4
    80003e38:	004a8a93          	addi	s5,s5,4
    80003e3c:	fc8a12e3          	bne	s4,s0,80003e00 <bench_fib_run+0x264>
    80003e40:	001c0c1b          	addiw	s8,s8,1
    80003e44:	009b8bb3          	add	s7,s7,s1
    80003e48:	009989b3          	add	s3,s3,s1
    80003e4c:	009c8cb3          	add	s9,s9,s1
    80003e50:	fa8c12e3          	bne	s8,s0,80003df4 <bench_fib_run+0x258>
    80003e54:	03813603          	ld	a2,56(sp)
    80003e58:	01813803          	ld	a6,24(sp)
    80003e5c:	02813503          	ld	a0,40(sp)
    80003e60:	00000593          	li	a1,0
    80003e64:	00080713          	mv	a4,a6
    80003e68:	00050793          	mv	a5,a0
    80003e6c:	0007a683          	lw	a3,0(a5)
    80003e70:	00478793          	addi	a5,a5,4
    80003e74:	00470713          	addi	a4,a4,4
    80003e78:	fed72e23          	sw	a3,-4(a4)
    80003e7c:	fec798e3          	bne	a5,a2,80003e6c <bench_fib_run+0x2d0>
    80003e80:	0015859b          	addiw	a1,a1,1
    80003e84:	00950533          	add	a0,a0,s1
    80003e88:	00980833          	add	a6,a6,s1
    80003e8c:	00960633          	add	a2,a2,s1
    80003e90:	fc859ae3          	bne	a1,s0,80003e64 <bench_fib_run+0x2c8>
    80003e94:	e3dff06f          	j	80003cd0 <bench_fib_run+0x134>
    80003e98:	00241493          	slli	s1,s0,0x2
    80003e9c:	fff4039b          	addiw	t2,s0,-1
    80003ea0:	dd9ff06f          	j	80003c78 <bench_fib_run+0xdc>

0000000080003ea4 <bench_fib_validate>:
    80003ea4:	00004517          	auipc	a0,0x4
    80003ea8:	b0452503          	lw	a0,-1276(a0) # 800079a8 <M>
    80003eac:	ff010113          	addi	sp,sp,-16
    80003eb0:	fff5059b          	addiw	a1,a0,-1
    80003eb4:	00813023          	sd	s0,0(sp)
    80003eb8:	00113423          	sd	ra,8(sp)
    80003ebc:	00058413          	mv	s0,a1
    80003ec0:	215000ef          	jal	ra,800048d4 <__muldi3>
    80003ec4:	00a4043b          	addw	s0,s0,a0
    80003ec8:	00241413          	slli	s0,s0,0x2
    80003ecc:	00004517          	auipc	a0,0x4
    80003ed0:	aec53503          	ld	a0,-1300(a0) # 800079b8 <ans>
    80003ed4:	00850433          	add	s0,a0,s0
    80003ed8:	00004797          	auipc	a5,0x4
    80003edc:	b407b783          	ld	a5,-1216(a5) # 80007a18 <setting>
    80003ee0:	00042503          	lw	a0,0(s0)
    80003ee4:	0187a783          	lw	a5,24(a5)
    80003ee8:	00813083          	ld	ra,8(sp)
    80003eec:	00013403          	ld	s0,0(sp)
    80003ef0:	40f50533          	sub	a0,a0,a5
    80003ef4:	00153513          	seqz	a0,a0
    80003ef8:	01010113          	addi	sp,sp,16
    80003efc:	00008067          	ret

0000000080003f00 <dfs>:
    80003f00:	fd010113          	addi	sp,sp,-48
    80003f04:	01413023          	sd	s4,0(sp)
    80003f08:	02113423          	sd	ra,40(sp)
    80003f0c:	02813023          	sd	s0,32(sp)
    80003f10:	00913c23          	sd	s1,24(sp)
    80003f14:	01213823          	sd	s2,16(sp)
    80003f18:	01313423          	sd	s3,8(sp)
    80003f1c:	00004797          	auipc	a5,0x4
    80003f20:	aac7a783          	lw	a5,-1364(a5) # 800079c8 <FULL>
    80003f24:	00100a13          	li	s4,1
    80003f28:	04a78c63          	beq	a5,a0,80003f80 <dfs+0x80>
    80003f2c:	00c5e433          	or	s0,a1,a2
    80003f30:	00a46433          	or	s0,s0,a0
    80003f34:	fff44413          	not	s0,s0
    80003f38:	00f47433          	and	s0,s0,a5
    80003f3c:	00050493          	mv	s1,a0
    80003f40:	00058993          	mv	s3,a1
    80003f44:	00060913          	mv	s2,a2
    80003f48:	00000a13          	li	s4,0
    80003f4c:	02040a63          	beqz	s0,80003f80 <dfs+0x80>
    80003f50:	408007bb          	negw	a5,s0
    80003f54:	00f477b3          	and	a5,s0,a5
    80003f58:	0007851b          	sext.w	a0,a5
    80003f5c:	013565b3          	or	a1,a0,s3
    80003f60:	00a96633          	or	a2,s2,a0
    80003f64:	0015959b          	slliw	a1,a1,0x1
    80003f68:	0016561b          	srliw	a2,a2,0x1
    80003f6c:	00956533          	or	a0,a0,s1
    80003f70:	40f4043b          	subw	s0,s0,a5
    80003f74:	f8dff0ef          	jal	ra,80003f00 <dfs>
    80003f78:	01450a3b          	addw	s4,a0,s4
    80003f7c:	fc041ae3          	bnez	s0,80003f50 <dfs+0x50>
    80003f80:	02813083          	ld	ra,40(sp)
    80003f84:	02013403          	ld	s0,32(sp)
    80003f88:	01813483          	ld	s1,24(sp)
    80003f8c:	01013903          	ld	s2,16(sp)
    80003f90:	00813983          	ld	s3,8(sp)
    80003f94:	000a0513          	mv	a0,s4
    80003f98:	00013a03          	ld	s4,0(sp)
    80003f9c:	03010113          	addi	sp,sp,48
    80003fa0:	00008067          	ret

0000000080003fa4 <bench_queen_prepare>:
    80003fa4:	00004797          	auipc	a5,0x4
    80003fa8:	a747b783          	ld	a5,-1420(a5) # 80007a18 <setting>
    80003fac:	0007a703          	lw	a4,0(a5)
    80003fb0:	00004797          	auipc	a5,0x4
    80003fb4:	a007ae23          	sw	zero,-1508(a5) # 800079cc <ans>
    80003fb8:	00100793          	li	a5,1
    80003fbc:	00e797bb          	sllw	a5,a5,a4
    80003fc0:	fff7879b          	addiw	a5,a5,-1
    80003fc4:	00004717          	auipc	a4,0x4
    80003fc8:	a0f72223          	sw	a5,-1532(a4) # 800079c8 <FULL>
    80003fcc:	00008067          	ret

0000000080003fd0 <bench_queen_run>:
    80003fd0:	ff010113          	addi	sp,sp,-16
    80003fd4:	00000613          	li	a2,0
    80003fd8:	00000593          	li	a1,0
    80003fdc:	00000513          	li	a0,0
    80003fe0:	00113423          	sd	ra,8(sp)
    80003fe4:	f1dff0ef          	jal	ra,80003f00 <dfs>
    80003fe8:	00813083          	ld	ra,8(sp)
    80003fec:	00004797          	auipc	a5,0x4
    80003ff0:	9ea7a023          	sw	a0,-1568(a5) # 800079cc <ans>
    80003ff4:	01010113          	addi	sp,sp,16
    80003ff8:	00008067          	ret

0000000080003ffc <bench_queen_validate>:
    80003ffc:	00004797          	auipc	a5,0x4
    80004000:	a1c7b783          	ld	a5,-1508(a5) # 80007a18 <setting>
    80004004:	0187a503          	lw	a0,24(a5)
    80004008:	00004797          	auipc	a5,0x4
    8000400c:	9c47a783          	lw	a5,-1596(a5) # 800079cc <ans>
    80004010:	40f50533          	sub	a0,a0,a5
    80004014:	00153513          	seqz	a0,a0
    80004018:	00008067          	ret

000000008000401c <myqsort>:
    8000401c:	fd010113          	addi	sp,sp,-48
    80004020:	01213823          	sd	s2,16(sp)
    80004024:	01313423          	sd	s3,8(sp)
    80004028:	01413023          	sd	s4,0(sp)
    8000402c:	02113423          	sd	ra,40(sp)
    80004030:	02813023          	sd	s0,32(sp)
    80004034:	00913c23          	sd	s1,24(sp)
    80004038:	00060a13          	mv	s4,a2
    8000403c:	00050993          	mv	s3,a0
    80004040:	00850913          	addi	s2,a0,8
    80004044:	0b45dc63          	bge	a1,s4,800040fc <myqsort+0xe0>
    80004048:	00259793          	slli	a5,a1,0x2
    8000404c:	00f98e33          	add	t3,s3,a5
    80004050:	0015871b          	addiw	a4,a1,1
    80004054:	000e2303          	lw	t1,0(t3)
    80004058:	ffea049b          	addiw	s1,s4,-2
    8000405c:	09475c63          	bge	a4,s4,800040f4 <myqsort+0xd8>
    80004060:	40b4883b          	subw	a6,s1,a1
    80004064:	02081813          	slli	a6,a6,0x20
    80004068:	02085813          	srli	a6,a6,0x20
    8000406c:	00b80833          	add	a6,a6,a1
    80004070:	00478793          	addi	a5,a5,4
    80004074:	00281813          	slli	a6,a6,0x2
    80004078:	00f987b3          	add	a5,s3,a5
    8000407c:	01280833          	add	a6,a6,s2
    80004080:	00058613          	mv	a2,a1
    80004084:	0007a683          	lw	a3,0(a5)
    80004088:	0016041b          	addiw	s0,a2,1
    8000408c:	00241713          	slli	a4,s0,0x2
    80004090:	0026051b          	addiw	a0,a2,2
    80004094:	00e98733          	add	a4,s3,a4
    80004098:	0066dc63          	bge	a3,t1,800040b0 <myqsort+0x94>
    8000409c:	00072883          	lw	a7,0(a4)
    800040a0:	00d72023          	sw	a3,0(a4)
    800040a4:	00040613          	mv	a2,s0
    800040a8:	0117a023          	sw	a7,0(a5)
    800040ac:	00050413          	mv	s0,a0
    800040b0:	00478793          	addi	a5,a5,4
    800040b4:	fcf818e3          	bne	a6,a5,80004084 <myqsort+0x68>
    800040b8:	00261793          	slli	a5,a2,0x2
    800040bc:	000e2683          	lw	a3,0(t3)
    800040c0:	00f987b3          	add	a5,s3,a5
    800040c4:	0007a703          	lw	a4,0(a5)
    800040c8:	00d7a023          	sw	a3,0(a5)
    800040cc:	00098513          	mv	a0,s3
    800040d0:	00ee2023          	sw	a4,0(t3)
    800040d4:	f49ff0ef          	jal	ra,8000401c <myqsort>
    800040d8:	03445263          	bge	s0,s4,800040fc <myqsort+0xe0>
    800040dc:	00040593          	mv	a1,s0
    800040e0:	00259793          	slli	a5,a1,0x2
    800040e4:	00f98e33          	add	t3,s3,a5
    800040e8:	0015871b          	addiw	a4,a1,1
    800040ec:	000e2303          	lw	t1,0(t3)
    800040f0:	f74748e3          	blt	a4,s4,80004060 <myqsort+0x44>
    800040f4:	00058a13          	mv	s4,a1
    800040f8:	f545c8e3          	blt	a1,s4,80004048 <myqsort+0x2c>
    800040fc:	02813083          	ld	ra,40(sp)
    80004100:	02013403          	ld	s0,32(sp)
    80004104:	01813483          	ld	s1,24(sp)
    80004108:	01013903          	ld	s2,16(sp)
    8000410c:	00813983          	ld	s3,8(sp)
    80004110:	00013a03          	ld	s4,0(sp)
    80004114:	03010113          	addi	sp,sp,48
    80004118:	00008067          	ret

000000008000411c <bench_qsort_prepare>:
    8000411c:	fd010113          	addi	sp,sp,-48
    80004120:	00100513          	li	a0,1
    80004124:	02113423          	sd	ra,40(sp)
    80004128:	01213823          	sd	s2,16(sp)
    8000412c:	01313423          	sd	s3,8(sp)
    80004130:	02813023          	sd	s0,32(sp)
    80004134:	00913c23          	sd	s1,24(sp)
    80004138:	c7cfc0ef          	jal	ra,800005b4 <bench_srand>
    8000413c:	00004797          	auipc	a5,0x4
    80004140:	8dc7b783          	ld	a5,-1828(a5) # 80007a18 <setting>
    80004144:	0007a783          	lw	a5,0(a5)
    80004148:	00004917          	auipc	s2,0x4
    8000414c:	88890913          	addi	s2,s2,-1912 # 800079d0 <N>
    80004150:	00004997          	auipc	s3,0x4
    80004154:	88898993          	addi	s3,s3,-1912 # 800079d8 <data>
    80004158:	00279513          	slli	a0,a5,0x2
    8000415c:	00f92023          	sw	a5,0(s2)
    80004160:	bb8fc0ef          	jal	ra,80000518 <bench_alloc>
    80004164:	00092783          	lw	a5,0(s2)
    80004168:	00a9b023          	sd	a0,0(s3)
    8000416c:	02f05e63          	blez	a5,800041a8 <bench_qsort_prepare+0x8c>
    80004170:	00000493          	li	s1,0
    80004174:	c54fc0ef          	jal	ra,800005c8 <bench_rand>
    80004178:	0005041b          	sext.w	s0,a0
    8000417c:	c4cfc0ef          	jal	ra,800005c8 <bench_rand>
    80004180:	0009b783          	ld	a5,0(s3)
    80004184:	00249693          	slli	a3,s1,0x2
    80004188:	0104141b          	slliw	s0,s0,0x10
    8000418c:	00092703          	lw	a4,0(s2)
    80004190:	00d787b3          	add	a5,a5,a3
    80004194:	00856433          	or	s0,a0,s0
    80004198:	00148493          	addi	s1,s1,1
    8000419c:	0087a023          	sw	s0,0(a5)
    800041a0:	0004879b          	sext.w	a5,s1
    800041a4:	fce7c8e3          	blt	a5,a4,80004174 <bench_qsort_prepare+0x58>
    800041a8:	02813083          	ld	ra,40(sp)
    800041ac:	02013403          	ld	s0,32(sp)
    800041b0:	01813483          	ld	s1,24(sp)
    800041b4:	01013903          	ld	s2,16(sp)
    800041b8:	00813983          	ld	s3,8(sp)
    800041bc:	03010113          	addi	sp,sp,48
    800041c0:	00008067          	ret

00000000800041c4 <bench_qsort_run>:
    800041c4:	00004617          	auipc	a2,0x4
    800041c8:	80c62603          	lw	a2,-2036(a2) # 800079d0 <N>
    800041cc:	00000593          	li	a1,0
    800041d0:	00004517          	auipc	a0,0x4
    800041d4:	80853503          	ld	a0,-2040(a0) # 800079d8 <data>
    800041d8:	e45ff06f          	j	8000401c <myqsort>

00000000800041dc <bench_qsort_validate>:
    800041dc:	00003597          	auipc	a1,0x3
    800041e0:	7f45a583          	lw	a1,2036(a1) # 800079d0 <N>
    800041e4:	00003517          	auipc	a0,0x3
    800041e8:	7f453503          	ld	a0,2036(a0) # 800079d8 <data>
    800041ec:	00259593          	slli	a1,a1,0x2
    800041f0:	ff010113          	addi	sp,sp,-16
    800041f4:	00b505b3          	add	a1,a0,a1
    800041f8:	00113423          	sd	ra,8(sp)
    800041fc:	c1cfc0ef          	jal	ra,80000618 <checksum>
    80004200:	00004797          	auipc	a5,0x4
    80004204:	8187b783          	ld	a5,-2024(a5) # 80007a18 <setting>
    80004208:	0187a783          	lw	a5,24(a5)
    8000420c:	00813083          	ld	ra,8(sp)
    80004210:	0005051b          	sext.w	a0,a0
    80004214:	40a78533          	sub	a0,a5,a0
    80004218:	00153513          	seqz	a0,a0
    8000421c:	01010113          	addi	sp,sp,16
    80004220:	00008067          	ret

0000000080004224 <bench_md5_prepare>:
    80004224:	00003797          	auipc	a5,0x3
    80004228:	7f47b783          	ld	a5,2036(a5) # 80007a18 <setting>
    8000422c:	0007a783          	lw	a5,0(a5)
    80004230:	fe010113          	addi	sp,sp,-32
    80004234:	00913423          	sd	s1,8(sp)
    80004238:	00100513          	li	a0,1
    8000423c:	00003497          	auipc	s1,0x3
    80004240:	7a448493          	addi	s1,s1,1956 # 800079e0 <N>
    80004244:	00f4a023          	sw	a5,0(s1)
    80004248:	00113c23          	sd	ra,24(sp)
    8000424c:	01213023          	sd	s2,0(sp)
    80004250:	00813823          	sd	s0,16(sp)
    80004254:	b60fc0ef          	jal	ra,800005b4 <bench_srand>
    80004258:	0004a503          	lw	a0,0(s1)
    8000425c:	00003917          	auipc	s2,0x3
    80004260:	79490913          	addi	s2,s2,1940 # 800079f0 <str>
    80004264:	ab4fc0ef          	jal	ra,80000518 <bench_alloc>
    80004268:	0004a783          	lw	a5,0(s1)
    8000426c:	00a93023          	sd	a0,0(s2)
    80004270:	02f05463          	blez	a5,80004298 <bench_md5_prepare+0x74>
    80004274:	00000413          	li	s0,0
    80004278:	b50fc0ef          	jal	ra,800005c8 <bench_rand>
    8000427c:	00093783          	ld	a5,0(s2)
    80004280:	0004a703          	lw	a4,0(s1)
    80004284:	008787b3          	add	a5,a5,s0
    80004288:	00140413          	addi	s0,s0,1
    8000428c:	00a78023          	sb	a0,0(a5)
    80004290:	0004079b          	sext.w	a5,s0
    80004294:	fee7c2e3          	blt	a5,a4,80004278 <bench_md5_prepare+0x54>
    80004298:	01000513          	li	a0,16
    8000429c:	a7cfc0ef          	jal	ra,80000518 <bench_alloc>
    800042a0:	01813083          	ld	ra,24(sp)
    800042a4:	01013403          	ld	s0,16(sp)
    800042a8:	00003797          	auipc	a5,0x3
    800042ac:	74a7b023          	sd	a0,1856(a5) # 800079e8 <digest>
    800042b0:	00813483          	ld	s1,8(sp)
    800042b4:	00013903          	ld	s2,0(sp)
    800042b8:	02010113          	addi	sp,sp,32
    800042bc:	00008067          	ret

00000000800042c0 <bench_md5_run>:
    800042c0:	00003697          	auipc	a3,0x3
    800042c4:	7206a683          	lw	a3,1824(a3) # 800079e0 <N>
    800042c8:	f6010113          	addi	sp,sp,-160
    800042cc:	00168793          	addi	a5,a3,1
    800042d0:	00003f97          	auipc	t6,0x3
    800042d4:	720fbf83          	ld	t6,1824(t6) # 800079f0 <str>
    800042d8:	08813c23          	sd	s0,152(sp)
    800042dc:	08913823          	sd	s1,144(sp)
    800042e0:	09213423          	sd	s2,136(sp)
    800042e4:	09313023          	sd	s3,128(sp)
    800042e8:	07413c23          	sd	s4,120(sp)
    800042ec:	07513823          	sd	s5,112(sp)
    800042f0:	07613423          	sd	s6,104(sp)
    800042f4:	07713023          	sd	s7,96(sp)
    800042f8:	05813c23          	sd	s8,88(sp)
    800042fc:	05913823          	sd	s9,80(sp)
    80004300:	05a13423          	sd	s10,72(sp)
    80004304:	05b13023          	sd	s11,64(sp)
    80004308:	03f7f513          	andi	a0,a5,63
    8000430c:	03800593          	li	a1,56
    80004310:	00003717          	auipc	a4,0x3
    80004314:	6d873703          	ld	a4,1752(a4) # 800079e8 <digest>
    80004318:	00df8633          	add	a2,t6,a3
    8000431c:	00078f13          	mv	t5,a5
    80004320:	2eb50863          	beq	a0,a1,80004610 <bench_md5_run+0x350>
    80004324:	03800513          	li	a0,56
    80004328:	001f0f13          	addi	t5,t5,1
    8000432c:	03ff7593          	andi	a1,t5,63
    80004330:	fea59ce3          	bne	a1,a0,80004328 <bench_md5_run+0x68>
    80004334:	f8000593          	li	a1,-128
    80004338:	00b60023          	sb	a1,0(a2)
    8000433c:	2de7fe63          	bgeu	a5,t5,80004618 <bench_md5_run+0x358>
    80004340:	00ff87b3          	add	a5,t6,a5
    80004344:	01ef8633          	add	a2,t6,t5
    80004348:	00078023          	sb	zero,0(a5)
    8000434c:	00178793          	addi	a5,a5,1
    80004350:	fef61ce3          	bne	a2,a5,80004348 <bench_md5_run+0x88>
    80004354:	0036951b          	slliw	a0,a3,0x3
    80004358:	41d6d593          	srai	a1,a3,0x1d
    8000435c:	0185581b          	srliw	a6,a0,0x18
    80004360:	0085531b          	srliw	t1,a0,0x8
    80004364:	0105589b          	srliw	a7,a0,0x10
    80004368:	004f0793          	addi	a5,t5,4
    8000436c:	00a60023          	sb	a0,0(a2)
    80004370:	010601a3          	sb	a6,3(a2)
    80004374:	006600a3          	sb	t1,1(a2)
    80004378:	01160123          	sb	a7,2(a2)
    8000437c:	00ff87b3          	add	a5,t6,a5
    80004380:	0085d51b          	srliw	a0,a1,0x8
    80004384:	0105d61b          	srliw	a2,a1,0x10
    80004388:	0185d59b          	srliw	a1,a1,0x18
    8000438c:	01d6d693          	srli	a3,a3,0x1d
    80004390:	00a780a3          	sb	a0,1(a5)
    80004394:	00c78123          	sb	a2,2(a5)
    80004398:	00b781a3          	sb	a1,3(a5)
    8000439c:	10325637          	lui	a2,0x10325
    800043a0:	98bae5b7          	lui	a1,0x98bae
    800043a4:	efcdb537          	lui	a0,0xefcdb
    800043a8:	67452837          	lui	a6,0x67452
    800043ac:	d76aa3b7          	lui	t2,0xd76aa
    800043b0:	00d78023          	sb	a3,0(a5)
    800043b4:	47660613          	addi	a2,a2,1142 # 10325476 <_entry_offset+0x10325476>
    800043b8:	cfe58593          	addi	a1,a1,-770 # ffffffff98badcfe <_end+0xffffffff18b9dcfe>
    800043bc:	b8950513          	addi	a0,a0,-1143 # ffffffffefcdab89 <_end+0xffffffff6fccab89>
    800043c0:	30180813          	addi	a6,a6,769 # 67452301 <_entry_offset+0x67452301>
    800043c4:	00000293          	li	t0,0
    800043c8:	47838393          	addi	t2,t2,1144 # ffffffffd76aa478 <_end+0xffffffff5769a478>
    800043cc:	00f00c13          	li	s8,15
    800043d0:	01f00b93          	li	s7,31
    800043d4:	02f00b13          	li	s6,47
    800043d8:	03f00a93          	li	s5,63
    800043dc:	005f87b3          	add	a5,t6,t0
    800043e0:	00010e13          	mv	t3,sp
    800043e4:	0017c303          	lbu	t1,1(a5)
    800043e8:	0007ce83          	lbu	t4,0(a5)
    800043ec:	0027c883          	lbu	a7,2(a5)
    800043f0:	0037c683          	lbu	a3,3(a5)
    800043f4:	00831313          	slli	t1,t1,0x8
    800043f8:	01d36333          	or	t1,t1,t4
    800043fc:	01089893          	slli	a7,a7,0x10
    80004400:	0068e8b3          	or	a7,a7,t1
    80004404:	01869693          	slli	a3,a3,0x18
    80004408:	0116e6b3          	or	a3,a3,a7
    8000440c:	00de2023          	sw	a3,0(t3)
    80004410:	004e0e13          	addi	t3,t3,4
    80004414:	04010693          	addi	a3,sp,64
    80004418:	00478793          	addi	a5,a5,4
    8000441c:	fdc694e3          	bne	a3,t3,800043e4 <bench_md5_run+0x124>
    80004420:	00080793          	mv	a5,a6
    80004424:	00038d13          	mv	s10,t2
    80004428:	00000e93          	li	t4,0
    8000442c:	00002a17          	auipc	s4,0x2
    80004430:	420a0a13          	addi	s4,s4,1056 # 8000684c <k+0x4>
    80004434:	00002997          	auipc	s3,0x2
    80004438:	51898993          	addi	s3,s3,1304 # 8000694c <r+0x4>
    8000443c:	00050893          	mv	a7,a0
    80004440:	00060e13          	mv	t3,a2
    80004444:	00058313          	mv	t1,a1
    80004448:	00100913          	li	s2,1
    8000444c:	00500493          	li	s1,5
    80004450:	00000413          	li	s0,0
    80004454:	00700c93          	li	s9,7
    80004458:	01a78d3b          	addw	s10,a5,s10
    8000445c:	09dc7263          	bgeu	s8,t4,800044e0 <bench_md5_run+0x220>
    80004460:	011347b3          	xor	a5,t1,a7
    80004464:	01c7f7b3          	and	a5,a5,t3
    80004468:	00f347b3          	xor	a5,t1,a5
    8000446c:	09dbe663          	bltu	s7,t4,800044f8 <bench_md5_run+0x238>
    80004470:	0007879b          	sext.w	a5,a5
    80004474:	00f97693          	andi	a3,s2,15
    80004478:	02069693          	slli	a3,a3,0x20
    8000447c:	01e6d693          	srli	a3,a3,0x1e
    80004480:	04010d93          	addi	s11,sp,64
    80004484:	00dd86b3          	add	a3,s11,a3
    80004488:	fc06a683          	lw	a3,-64(a3)
    8000448c:	01a787bb          	addw	a5,a5,s10
    80004490:	41900d3b          	negw	s10,s9
    80004494:	00d787bb          	addw	a5,a5,a3
    80004498:	019796bb          	sllw	a3,a5,s9
    8000449c:	01a7d7bb          	srlw	a5,a5,s10
    800044a0:	00f6e6b3          	or	a3,a3,a5
    800044a4:	011686bb          	addw	a3,a3,a7
    800044a8:	000a2d03          	lw	s10,0(s4)
    800044ac:	000e0793          	mv	a5,t3
    800044b0:	001e8e9b          	addiw	t4,t4,1
    800044b4:	0009ac83          	lw	s9,0(s3)
    800044b8:	00030e13          	mv	t3,t1
    800044bc:	004a0a13          	addi	s4,s4,4
    800044c0:	00088313          	mv	t1,a7
    800044c4:	00498993          	addi	s3,s3,4
    800044c8:	0074041b          	addiw	s0,s0,7
    800044cc:	0034849b          	addiw	s1,s1,3
    800044d0:	0059091b          	addiw	s2,s2,5
    800044d4:	00068893          	mv	a7,a3
    800044d8:	01a78d3b          	addw	s10,a5,s10
    800044dc:	f9dc62e3          	bltu	s8,t4,80004460 <bench_md5_run+0x1a0>
    800044e0:	01c347b3          	xor	a5,t1,t3
    800044e4:	0117f7b3          	and	a5,a5,a7
    800044e8:	00fe47b3          	xor	a5,t3,a5
    800044ec:	0007879b          	sext.w	a5,a5
    800044f0:	000e8693          	mv	a3,t4
    800044f4:	f85ff06f          	j	80004478 <bench_md5_run+0x1b8>
    800044f8:	01c347b3          	xor	a5,t1,t3
    800044fc:	0117c7b3          	xor	a5,a5,a7
    80004500:	01db6863          	bltu	s6,t4,80004510 <bench_md5_run+0x250>
    80004504:	0007879b          	sext.w	a5,a5
    80004508:	00f4f693          	andi	a3,s1,15
    8000450c:	f6dff06f          	j	80004478 <bench_md5_run+0x1b8>
    80004510:	00f47793          	andi	a5,s0,15
    80004514:	04010693          	addi	a3,sp,64
    80004518:	00279793          	slli	a5,a5,0x2
    8000451c:	00f687b3          	add	a5,a3,a5
    80004520:	fc07a783          	lw	a5,-64(a5)
    80004524:	fffe4693          	not	a3,t3
    80004528:	0116e6b3          	or	a3,a3,a7
    8000452c:	0066c6b3          	xor	a3,a3,t1
    80004530:	00d787bb          	addw	a5,a5,a3
    80004534:	01a787bb          	addw	a5,a5,s10
    80004538:	41900d3b          	negw	s10,s9
    8000453c:	019796bb          	sllw	a3,a5,s9
    80004540:	01a7d7bb          	srlw	a5,a5,s10
    80004544:	00f6e6b3          	or	a3,a3,a5
    80004548:	011686bb          	addw	a3,a3,a7
    8000454c:	f55e9ee3          	bne	t4,s5,800044a8 <bench_md5_run+0x1e8>
    80004550:	04028293          	addi	t0,t0,64
    80004554:	010e083b          	addw	a6,t3,a6
    80004558:	00a6853b          	addw	a0,a3,a0
    8000455c:	00b885bb          	addw	a1,a7,a1
    80004560:	00c3063b          	addw	a2,t1,a2
    80004564:	e7e2ece3          	bltu	t0,t5,800043dc <bench_md5_run+0x11c>
    80004568:	0088549b          	srliw	s1,a6,0x8
    8000456c:	0108541b          	srliw	s0,a6,0x10
    80004570:	0188539b          	srliw	t2,a6,0x18
    80004574:	0085529b          	srliw	t0,a0,0x8
    80004578:	01055f9b          	srliw	t6,a0,0x10
    8000457c:	01855f1b          	srliw	t5,a0,0x18
    80004580:	0085de9b          	srliw	t4,a1,0x8
    80004584:	0105de1b          	srliw	t3,a1,0x10
    80004588:	0185d31b          	srliw	t1,a1,0x18
    8000458c:	0086589b          	srliw	a7,a2,0x8
    80004590:	0106569b          	srliw	a3,a2,0x10
    80004594:	0186579b          	srliw	a5,a2,0x18
    80004598:	01070023          	sb	a6,0(a4)
    8000459c:	009700a3          	sb	s1,1(a4)
    800045a0:	00870123          	sb	s0,2(a4)
    800045a4:	007701a3          	sb	t2,3(a4)
    800045a8:	00a70223          	sb	a0,4(a4)
    800045ac:	005702a3          	sb	t0,5(a4)
    800045b0:	01f70323          	sb	t6,6(a4)
    800045b4:	01e703a3          	sb	t5,7(a4)
    800045b8:	00b70423          	sb	a1,8(a4)
    800045bc:	01d704a3          	sb	t4,9(a4)
    800045c0:	01c70523          	sb	t3,10(a4)
    800045c4:	006705a3          	sb	t1,11(a4)
    800045c8:	00c70623          	sb	a2,12(a4)
    800045cc:	011706a3          	sb	a7,13(a4)
    800045d0:	00d70723          	sb	a3,14(a4)
    800045d4:	00f707a3          	sb	a5,15(a4)
    800045d8:	09813403          	ld	s0,152(sp)
    800045dc:	09013483          	ld	s1,144(sp)
    800045e0:	08813903          	ld	s2,136(sp)
    800045e4:	08013983          	ld	s3,128(sp)
    800045e8:	07813a03          	ld	s4,120(sp)
    800045ec:	07013a83          	ld	s5,112(sp)
    800045f0:	06813b03          	ld	s6,104(sp)
    800045f4:	06013b83          	ld	s7,96(sp)
    800045f8:	05813c03          	ld	s8,88(sp)
    800045fc:	05013c83          	ld	s9,80(sp)
    80004600:	04813d03          	ld	s10,72(sp)
    80004604:	04013d83          	ld	s11,64(sp)
    80004608:	0a010113          	addi	sp,sp,160
    8000460c:	00008067          	ret
    80004610:	f8000793          	li	a5,-128
    80004614:	00f60023          	sb	a5,0(a2)
    80004618:	01ef8633          	add	a2,t6,t5
    8000461c:	d39ff06f          	j	80004354 <bench_md5_run+0x94>

0000000080004620 <bench_md5_validate>:
    80004620:	00003517          	auipc	a0,0x3
    80004624:	3c853503          	ld	a0,968(a0) # 800079e8 <digest>
    80004628:	ff010113          	addi	sp,sp,-16
    8000462c:	01050593          	addi	a1,a0,16
    80004630:	00113423          	sd	ra,8(sp)
    80004634:	fe5fb0ef          	jal	ra,80000618 <checksum>
    80004638:	00003797          	auipc	a5,0x3
    8000463c:	3e07b783          	ld	a5,992(a5) # 80007a18 <setting>
    80004640:	0187a783          	lw	a5,24(a5)
    80004644:	00813083          	ld	ra,8(sp)
    80004648:	0005051b          	sext.w	a0,a0
    8000464c:	40a78533          	sub	a0,a5,a0
    80004650:	00153513          	seqz	a0,a0
    80004654:	01010113          	addi	sp,sp,16
    80004658:	00008067          	ret

000000008000465c <bench_sieve_prepare>:
    8000465c:	00003797          	auipc	a5,0x3
    80004660:	3bc7b783          	ld	a5,956(a5) # 80007a18 <setting>
    80004664:	0007a783          	lw	a5,0(a5)
    80004668:	ff010113          	addi	sp,sp,-16
    8000466c:	00813023          	sd	s0,0(sp)
    80004670:	41f7d51b          	sraiw	a0,a5,0x1f
    80004674:	01d5551b          	srliw	a0,a0,0x1d
    80004678:	00f5053b          	addw	a0,a0,a5
    8000467c:	4035551b          	sraiw	a0,a0,0x3
    80004680:	00003417          	auipc	s0,0x3
    80004684:	37840413          	addi	s0,s0,888 # 800079f8 <N>
    80004688:	0805051b          	addiw	a0,a0,128
    8000468c:	00f42023          	sw	a5,0(s0)
    80004690:	00113423          	sd	ra,8(sp)
    80004694:	e85fb0ef          	jal	ra,80000518 <bench_alloc>
    80004698:	00042783          	lw	a5,0(s0)
    8000469c:	00003717          	auipc	a4,0x3
    800046a0:	36a73223          	sd	a0,868(a4) # 80007a00 <primes>
    800046a4:	fe100693          	li	a3,-31
    800046a8:	41f7d71b          	sraiw	a4,a5,0x1f
    800046ac:	01b7571b          	srliw	a4,a4,0x1b
    800046b0:	00f7073b          	addw	a4,a4,a5
    800046b4:	02d7c063          	blt	a5,a3,800046d4 <bench_sieve_prepare+0x78>
    800046b8:	4057571b          	sraiw	a4,a4,0x5
    800046bc:	00000793          	li	a5,0
    800046c0:	fff00693          	li	a3,-1
    800046c4:	00d52023          	sw	a3,0(a0)
    800046c8:	0017879b          	addiw	a5,a5,1
    800046cc:	00450513          	addi	a0,a0,4
    800046d0:	fef75ae3          	bge	a4,a5,800046c4 <bench_sieve_prepare+0x68>
    800046d4:	00813083          	ld	ra,8(sp)
    800046d8:	00013403          	ld	s0,0(sp)
    800046dc:	01010113          	addi	sp,sp,16
    800046e0:	00008067          	ret

00000000800046e4 <bench_sieve_run>:
    800046e4:	fd010113          	addi	sp,sp,-48
    800046e8:	00913c23          	sd	s1,24(sp)
    800046ec:	02113423          	sd	ra,40(sp)
    800046f0:	02813023          	sd	s0,32(sp)
    800046f4:	01213823          	sd	s2,16(sp)
    800046f8:	01313423          	sd	s3,8(sp)
    800046fc:	00003497          	auipc	s1,0x3
    80004700:	2fc4a483          	lw	s1,764(s1) # 800079f8 <N>
    80004704:	14905463          	blez	s1,8000484c <bench_sieve_run+0x168>
    80004708:	00003617          	auipc	a2,0x3
    8000470c:	2f860613          	addi	a2,a2,760 # 80007a00 <primes>
    80004710:	00063683          	ld	a3,0(a2)
    80004714:	0006a783          	lw	a5,0(a3)
    80004718:	0017d79b          	srliw	a5,a5,0x1
    8000471c:	0017f793          	andi	a5,a5,1
    80004720:	00079c63          	bnez	a5,80004738 <bench_sieve_run+0x54>
    80004724:	10c0006f          	j	80004830 <bench_sieve_run+0x14c>
    80004728:	00072703          	lw	a4,0(a4)
    8000472c:	00f7573b          	srlw	a4,a4,a5
    80004730:	00177713          	andi	a4,a4,1
    80004734:	0e070e63          	beqz	a4,80004830 <bench_sieve_run+0x14c>
    80004738:	0017879b          	addiw	a5,a5,1
    8000473c:	4057d71b          	sraiw	a4,a5,0x5
    80004740:	00271713          	slli	a4,a4,0x2
    80004744:	00e68733          	add	a4,a3,a4
    80004748:	fef4d0e3          	bge	s1,a5,80004728 <bench_sieve_run+0x44>
    8000474c:	00300793          	li	a5,3
    80004750:	0e97de63          	bge	a5,s1,8000484c <bench_sieve_run+0x168>
    80004754:	00063903          	ld	s2,0(a2)
    80004758:	00200413          	li	s0,2
    8000475c:	00100993          	li	s3,1
    80004760:	01c0006f          	j	8000477c <bench_sieve_run+0x98>
    80004764:	0014041b          	addiw	s0,s0,1
    80004768:	00040593          	mv	a1,s0
    8000476c:	00040513          	mv	a0,s0
    80004770:	164000ef          	jal	ra,800048d4 <__muldi3>
    80004774:	0005051b          	sext.w	a0,a0
    80004778:	06a4c663          	blt	s1,a0,800047e4 <bench_sieve_run+0x100>
    8000477c:	40545793          	srai	a5,s0,0x5
    80004780:	00279793          	slli	a5,a5,0x2
    80004784:	00f907b3          	add	a5,s2,a5
    80004788:	0007a783          	lw	a5,0(a5)
    8000478c:	0087d7bb          	srlw	a5,a5,s0
    80004790:	0017f793          	andi	a5,a5,1
    80004794:	fc0788e3          	beqz	a5,80004764 <bench_sieve_run+0x80>
    80004798:	0014169b          	slliw	a3,s0,0x1
    8000479c:	fcd4c4e3          	blt	s1,a3,80004764 <bench_sieve_run+0x80>
    800047a0:	4056d713          	srai	a4,a3,0x5
    800047a4:	00271713          	slli	a4,a4,0x2
    800047a8:	00e90733          	add	a4,s2,a4
    800047ac:	00072603          	lw	a2,0(a4)
    800047b0:	01f6f793          	andi	a5,a3,31
    800047b4:	00f997b3          	sll	a5,s3,a5
    800047b8:	fff7c793          	not	a5,a5
    800047bc:	00c7f7b3          	and	a5,a5,a2
    800047c0:	00f72023          	sw	a5,0(a4)
    800047c4:	00d406bb          	addw	a3,s0,a3
    800047c8:	fcd4dce3          	bge	s1,a3,800047a0 <bench_sieve_run+0xbc>
    800047cc:	0014041b          	addiw	s0,s0,1
    800047d0:	00040593          	mv	a1,s0
    800047d4:	00040513          	mv	a0,s0
    800047d8:	0fc000ef          	jal	ra,800048d4 <__muldi3>
    800047dc:	0005051b          	sext.w	a0,a0
    800047e0:	f8a4dee3          	bge	s1,a0,8000477c <bench_sieve_run+0x98>
    800047e4:	00003797          	auipc	a5,0x3
    800047e8:	2007ac23          	sw	zero,536(a5) # 800079fc <ans>
    800047ec:	00000613          	li	a2,0
    800047f0:	00000693          	li	a3,0
    800047f4:	00200713          	li	a4,2
    800047f8:	40575793          	srai	a5,a4,0x5
    800047fc:	00279793          	slli	a5,a5,0x2
    80004800:	00f907b3          	add	a5,s2,a5
    80004804:	0007a783          	lw	a5,0(a5)
    80004808:	00e7d7bb          	srlw	a5,a5,a4
    8000480c:	0017f793          	andi	a5,a5,1
    80004810:	0017071b          	addiw	a4,a4,1
    80004814:	00078663          	beqz	a5,80004820 <bench_sieve_run+0x13c>
    80004818:	0016869b          	addiw	a3,a3,1
    8000481c:	00100613          	li	a2,1
    80004820:	fce4dce3          	bge	s1,a4,800047f8 <bench_sieve_run+0x114>
    80004824:	00060663          	beqz	a2,80004830 <bench_sieve_run+0x14c>
    80004828:	00003797          	auipc	a5,0x3
    8000482c:	1cd7aa23          	sw	a3,468(a5) # 800079fc <ans>
    80004830:	02813083          	ld	ra,40(sp)
    80004834:	02013403          	ld	s0,32(sp)
    80004838:	01813483          	ld	s1,24(sp)
    8000483c:	01013903          	ld	s2,16(sp)
    80004840:	00813983          	ld	s3,8(sp)
    80004844:	03010113          	addi	sp,sp,48
    80004848:	00008067          	ret
    8000484c:	00003797          	auipc	a5,0x3
    80004850:	1a07a823          	sw	zero,432(a5) # 800079fc <ans>
    80004854:	00100793          	li	a5,1
    80004858:	fc97dce3          	bge	a5,s1,80004830 <bench_sieve_run+0x14c>
    8000485c:	00003917          	auipc	s2,0x3
    80004860:	1a493903          	ld	s2,420(s2) # 80007a00 <primes>
    80004864:	f89ff06f          	j	800047ec <bench_sieve_run+0x108>

0000000080004868 <bench_sieve_validate>:
    80004868:	00003797          	auipc	a5,0x3
    8000486c:	1b07b783          	ld	a5,432(a5) # 80007a18 <setting>
    80004870:	0187a503          	lw	a0,24(a5)
    80004874:	00003797          	auipc	a5,0x3
    80004878:	1887a783          	lw	a5,392(a5) # 800079fc <ans>
    8000487c:	40f50533          	sub	a0,a0,a5
    80004880:	00153513          	seqz	a0,a0
    80004884:	00008067          	ret

0000000080004888 <putch>:
    80004888:	00008067          	ret

000000008000488c <halt>:
    8000488c:	00050513          	mv	a0,a0
    80004890:	0000006b          	0x6b
    80004894:	0000006f          	j	80004894 <halt+0x8>

0000000080004898 <_assert>:
    80004898:	00051a63          	bnez	a0,800048ac <_assert+0x14>
    8000489c:	00100793          	li	a5,1
    800048a0:	00078513          	mv	a0,a5
    800048a4:	0000006b          	0x6b
    800048a8:	0000006f          	j	800048a8 <_assert+0x10>
    800048ac:	00008067          	ret

00000000800048b0 <_trm_init>:
    800048b0:	ff010113          	addi	sp,sp,-16
    800048b4:	00113423          	sd	ra,8(sp)
    800048b8:	50c000ef          	jal	ra,80004dc4 <heap_init>
    800048bc:	00002517          	auipc	a0,0x2
    800048c0:	46c50513          	addi	a0,a0,1132 # 80006d28 <mainargs>
    800048c4:	839fb0ef          	jal	ra,800000fc <main>
    800048c8:	00050513          	mv	a0,a0
    800048cc:	0000006b          	0x6b
    800048d0:	0000006f          	j	800048d0 <_trm_init+0x20>

00000000800048d4 <__muldi3>:
    800048d4:	00050613          	mv	a2,a0
    800048d8:	00000513          	li	a0,0
    800048dc:	0015f693          	andi	a3,a1,1
    800048e0:	00068463          	beqz	a3,800048e8 <__muldi3+0x14>
    800048e4:	00c50533          	add	a0,a0,a2
    800048e8:	0015d593          	srli	a1,a1,0x1
    800048ec:	00161613          	slli	a2,a2,0x1
    800048f0:	fe0596e3          	bnez	a1,800048dc <__muldi3+0x8>
    800048f4:	00008067          	ret

00000000800048f8 <__udivsi3>:
    800048f8:	02051513          	slli	a0,a0,0x20
    800048fc:	02059593          	slli	a1,a1,0x20
    80004900:	00008293          	mv	t0,ra
    80004904:	03c000ef          	jal	ra,80004940 <__udivdi3>
    80004908:	0005051b          	sext.w	a0,a0
    8000490c:	00028067          	jr	t0

0000000080004910 <__umodsi3>:
    80004910:	02051513          	slli	a0,a0,0x20
    80004914:	02059593          	slli	a1,a1,0x20
    80004918:	02055513          	srli	a0,a0,0x20
    8000491c:	0205d593          	srli	a1,a1,0x20
    80004920:	00008293          	mv	t0,ra
    80004924:	01c000ef          	jal	ra,80004940 <__udivdi3>
    80004928:	0005851b          	sext.w	a0,a1
    8000492c:	00028067          	jr	t0

0000000080004930 <__divsi3>:
    80004930:	fff00293          	li	t0,-1
    80004934:	0a558c63          	beq	a1,t0,800049ec <__moddi3+0x30>

0000000080004938 <__divdi3>:
    80004938:	06054063          	bltz	a0,80004998 <__umoddi3+0x10>
    8000493c:	0605c663          	bltz	a1,800049a8 <__umoddi3+0x20>

0000000080004940 <__udivdi3>:
    80004940:	00058613          	mv	a2,a1
    80004944:	00050593          	mv	a1,a0
    80004948:	fff00513          	li	a0,-1
    8000494c:	02060c63          	beqz	a2,80004984 <__udivdi3+0x44>
    80004950:	00100693          	li	a3,1
    80004954:	00b67a63          	bgeu	a2,a1,80004968 <__udivdi3+0x28>
    80004958:	00c05863          	blez	a2,80004968 <__udivdi3+0x28>
    8000495c:	00161613          	slli	a2,a2,0x1
    80004960:	00169693          	slli	a3,a3,0x1
    80004964:	feb66ae3          	bltu	a2,a1,80004958 <__udivdi3+0x18>
    80004968:	00000513          	li	a0,0
    8000496c:	00c5e663          	bltu	a1,a2,80004978 <__udivdi3+0x38>
    80004970:	40c585b3          	sub	a1,a1,a2
    80004974:	00d56533          	or	a0,a0,a3
    80004978:	0016d693          	srli	a3,a3,0x1
    8000497c:	00165613          	srli	a2,a2,0x1
    80004980:	fe0696e3          	bnez	a3,8000496c <__udivdi3+0x2c>
    80004984:	00008067          	ret

0000000080004988 <__umoddi3>:
    80004988:	00008293          	mv	t0,ra
    8000498c:	fb5ff0ef          	jal	ra,80004940 <__udivdi3>
    80004990:	00058513          	mv	a0,a1
    80004994:	00028067          	jr	t0
    80004998:	40a00533          	neg	a0,a0
    8000499c:	00b04863          	bgtz	a1,800049ac <__umoddi3+0x24>
    800049a0:	40b005b3          	neg	a1,a1
    800049a4:	f9dff06f          	j	80004940 <__udivdi3>
    800049a8:	40b005b3          	neg	a1,a1
    800049ac:	00008293          	mv	t0,ra
    800049b0:	f91ff0ef          	jal	ra,80004940 <__udivdi3>
    800049b4:	40a00533          	neg	a0,a0
    800049b8:	00028067          	jr	t0

00000000800049bc <__moddi3>:
    800049bc:	00008293          	mv	t0,ra
    800049c0:	0005ca63          	bltz	a1,800049d4 <__moddi3+0x18>
    800049c4:	00054c63          	bltz	a0,800049dc <__moddi3+0x20>
    800049c8:	f79ff0ef          	jal	ra,80004940 <__udivdi3>
    800049cc:	00058513          	mv	a0,a1
    800049d0:	00028067          	jr	t0
    800049d4:	40b005b3          	neg	a1,a1
    800049d8:	fe0558e3          	bgez	a0,800049c8 <__moddi3+0xc>
    800049dc:	40a00533          	neg	a0,a0
    800049e0:	f61ff0ef          	jal	ra,80004940 <__udivdi3>
    800049e4:	40b00533          	neg	a0,a1
    800049e8:	00028067          	jr	t0
    800049ec:	01f29293          	slli	t0,t0,0x1f
    800049f0:	f45514e3          	bne	a0,t0,80004938 <__divdi3>
    800049f4:	00008067          	ret

00000000800049f8 <__am_timer_config>:
    800049f8:	00100793          	li	a5,1
    800049fc:	00f50023          	sb	a5,0(a0)
    80004a00:	00f500a3          	sb	a5,1(a0)
    80004a04:	00008067          	ret

0000000080004a08 <__am_input_config>:
    80004a08:	00100793          	li	a5,1
    80004a0c:	00f50023          	sb	a5,0(a0)
    80004a10:	00008067          	ret

0000000080004a14 <fail>:
    80004a14:	ff010113          	addi	sp,sp,-16
    80004a18:	00813023          	sd	s0,0(sp)
    80004a1c:	00113423          	sd	ra,8(sp)
    80004a20:	00002417          	auipc	s0,0x2
    80004a24:	02840413          	addi	s0,s0,40 # 80006a48 <r+0x100>
    80004a28:	04100513          	li	a0,65
    80004a2c:	00140413          	addi	s0,s0,1
    80004a30:	e59ff0ef          	jal	ra,80004888 <putch>
    80004a34:	00044503          	lbu	a0,0(s0)
    80004a38:	fe051ae3          	bnez	a0,80004a2c <fail+0x18>
    80004a3c:	00002417          	auipc	s0,0x2
    80004a40:	01c40413          	addi	s0,s0,28 # 80006a58 <r+0x110>
    80004a44:	06100513          	li	a0,97
    80004a48:	00140413          	addi	s0,s0,1
    80004a4c:	e3dff0ef          	jal	ra,80004888 <putch>
    80004a50:	00044503          	lbu	a0,0(s0)
    80004a54:	fe051ae3          	bnez	a0,80004a48 <fail+0x34>
    80004a58:	00002417          	auipc	s0,0x2
    80004a5c:	02040413          	addi	s0,s0,32 # 80006a78 <r+0x130>
    80004a60:	02000513          	li	a0,32
    80004a64:	00140413          	addi	s0,s0,1
    80004a68:	e21ff0ef          	jal	ra,80004888 <putch>
    80004a6c:	00044503          	lbu	a0,0(s0)
    80004a70:	fe051ae3          	bnez	a0,80004a64 <fail+0x50>
    80004a74:	00100513          	li	a0,1
    80004a78:	e15ff0ef          	jal	ra,8000488c <halt>

0000000080004a7c <ioe_init>:
    80004a7c:	ff010113          	addi	sp,sp,-16
    80004a80:	00113423          	sd	ra,8(sp)
    80004a84:	00003797          	auipc	a5,0x3
    80004a88:	a5c78793          	addi	a5,a5,-1444 # 800074e0 <lut>
    80004a8c:	00003697          	auipc	a3,0x3
    80004a90:	e5468693          	addi	a3,a3,-428 # 800078e0 <buf.1583>
    80004a94:	00000617          	auipc	a2,0x0
    80004a98:	f8060613          	addi	a2,a2,-128 # 80004a14 <fail>
    80004a9c:	00c0006f          	j	80004aa8 <ioe_init+0x2c>
    80004aa0:	00878793          	addi	a5,a5,8
    80004aa4:	00d78c63          	beq	a5,a3,80004abc <ioe_init+0x40>
    80004aa8:	0007b703          	ld	a4,0(a5)
    80004aac:	fe071ae3          	bnez	a4,80004aa0 <ioe_init+0x24>
    80004ab0:	00c7b023          	sd	a2,0(a5)
    80004ab4:	00878793          	addi	a5,a5,8
    80004ab8:	fed798e3          	bne	a5,a3,80004aa8 <ioe_init+0x2c>
    80004abc:	030000ef          	jal	ra,80004aec <__am_timer_init>
    80004ac0:	00813083          	ld	ra,8(sp)
    80004ac4:	00100513          	li	a0,1
    80004ac8:	01010113          	addi	sp,sp,16
    80004acc:	00008067          	ret

0000000080004ad0 <ioe_read>:
    80004ad0:	00351793          	slli	a5,a0,0x3
    80004ad4:	00003517          	auipc	a0,0x3
    80004ad8:	a0c50513          	addi	a0,a0,-1524 # 800074e0 <lut>
    80004adc:	00f50533          	add	a0,a0,a5
    80004ae0:	00053303          	ld	t1,0(a0)
    80004ae4:	00058513          	mv	a0,a1
    80004ae8:	00030067          	jr	t1

0000000080004aec <__am_timer_init>:
    80004aec:	00008067          	ret

0000000080004af0 <__am_timer_uptime>:
    80004af0:	00053023          	sd	zero,0(a0)
    80004af4:	00008067          	ret

0000000080004af8 <gmtime_r>:
    80004af8:	fc010113          	addi	sp,sp,-64
    80004afc:	01313c23          	sd	s3,24(sp)
    80004b00:	00058993          	mv	s3,a1
    80004b04:	00050793          	mv	a5,a0
    80004b08:	03800613          	li	a2,56
    80004b0c:	00000593          	li	a1,0
    80004b10:	00098513          	mv	a0,s3
    80004b14:	02813823          	sd	s0,48(sp)
    80004b18:	03213023          	sd	s2,32(sp)
    80004b1c:	0007b403          	ld	s0,0(a5)
    80004b20:	01413823          	sd	s4,16(sp)
    80004b24:	02113c23          	sd	ra,56(sp)
    80004b28:	02913423          	sd	s1,40(sp)
    80004b2c:	01513423          	sd	s5,8(sp)
    80004b30:	3fc010ef          	jal	ra,80005f2c <memset>
    80004b34:	7b200793          	li	a5,1970
    80004b38:	00f9aa23          	sw	a5,20(s3)
    80004b3c:	7b200913          	li	s2,1970
    80004b40:	00002a17          	auipc	s4,0x2
    80004b44:	1f0a0a13          	addi	s4,s4,496 # 80006d30 <SEC_PER_YR>
    80004b48:	0100006f          	j	80004b58 <gmtime_r+0x60>
    80004b4c:	40e40433          	sub	s0,s0,a4
    80004b50:	00d9aa23          	sw	a3,20(s3)
    80004b54:	00068913          	mv	s2,a3
    80004b58:	0009049b          	sext.w	s1,s2
    80004b5c:	06400593          	li	a1,100
    80004b60:	00048513          	mv	a0,s1
    80004b64:	e59ff0ef          	jal	ra,800049bc <__moddi3>
    80004b68:	00050793          	mv	a5,a0
    80004b6c:	0007879b          	sext.w	a5,a5
    80004b70:	00048513          	mv	a0,s1
    80004b74:	00397493          	andi	s1,s2,3
    80004b78:	19000593          	li	a1,400
    80004b7c:	0014b493          	seqz	s1,s1
    80004b80:	00079863          	bnez	a5,80004b90 <gmtime_r+0x98>
    80004b84:	e39ff0ef          	jal	ra,800049bc <__moddi3>
    80004b88:	0005049b          	sext.w	s1,a0
    80004b8c:	0014b493          	seqz	s1,s1
    80004b90:	00249793          	slli	a5,s1,0x2
    80004b94:	00fa07b3          	add	a5,s4,a5
    80004b98:	0007e703          	lwu	a4,0(a5)
    80004b9c:	0019069b          	addiw	a3,s2,1
    80004ba0:	fae456e3          	bge	s0,a4,80004b4c <gmtime_r+0x54>
    80004ba4:	000155b7          	lui	a1,0x15
    80004ba8:	18058593          	addi	a1,a1,384 # 15180 <_entry_offset+0x15180>
    80004bac:	00040513          	mv	a0,s0
    80004bb0:	d89ff0ef          	jal	ra,80004938 <__divdi3>
    80004bb4:	00149793          	slli	a5,s1,0x1
    80004bb8:	009784b3          	add	s1,a5,s1
    80004bbc:	00449793          	slli	a5,s1,0x4
    80004bc0:	00002497          	auipc	s1,0x2
    80004bc4:	ef848493          	addi	s1,s1,-264 # 80006ab8 <SEC_PER_MT>
    80004bc8:	00f484b3          	add	s1,s1,a5
    80004bcc:	0004e783          	lwu	a5,0(s1)
    80004bd0:	0005051b          	sext.w	a0,a0
    80004bd4:	00a9ae23          	sw	a0,28(s3)
    80004bd8:	14f44463          	blt	s0,a5,80004d20 <gmtime_r+0x228>
    80004bdc:	00100713          	li	a4,1
    80004be0:	40f40433          	sub	s0,s0,a5
    80004be4:	0044e783          	lwu	a5,4(s1)
    80004be8:	00070a1b          	sext.w	s4,a4
    80004bec:	00448493          	addi	s1,s1,4
    80004bf0:	00170713          	addi	a4,a4,1
    80004bf4:	fef456e3          	bge	s0,a5,80004be0 <gmtime_r+0xe8>
    80004bf8:	000155b7          	lui	a1,0x15
    80004bfc:	0149a823          	sw	s4,16(s3)
    80004c00:	18058593          	addi	a1,a1,384 # 15180 <_entry_offset+0x15180>
    80004c04:	00040513          	mv	a0,s0
    80004c08:	d31ff0ef          	jal	ra,80004938 <__divdi3>
    80004c0c:	0005051b          	sext.w	a0,a0
    80004c10:	0015079b          	addiw	a5,a0,1
    80004c14:	000155b7          	lui	a1,0x15
    80004c18:	00f9a623          	sw	a5,12(s3)
    80004c1c:	18058593          	addi	a1,a1,384 # 15180 <_entry_offset+0x15180>
    80004c20:	00040513          	mv	a0,s0
    80004c24:	00001ab7          	lui	s5,0x1
    80004c28:	0007841b          	sext.w	s0,a5
    80004c2c:	d91ff0ef          	jal	ra,800049bc <__moddi3>
    80004c30:	e10a8593          	addi	a1,s5,-496 # e10 <_entry_offset+0xe10>
    80004c34:	00050493          	mv	s1,a0
    80004c38:	d01ff0ef          	jal	ra,80004938 <__divdi3>
    80004c3c:	e10a8593          	addi	a1,s5,-496
    80004c40:	00a9a423          	sw	a0,8(s3)
    80004c44:	00048513          	mv	a0,s1
    80004c48:	d75ff0ef          	jal	ra,800049bc <__moddi3>
    80004c4c:	03c00593          	li	a1,60
    80004c50:	00050493          	mv	s1,a0
    80004c54:	ce5ff0ef          	jal	ra,80004938 <__divdi3>
    80004c58:	00a9a223          	sw	a0,4(s3)
    80004c5c:	03c00593          	li	a1,60
    80004c60:	00048513          	mv	a0,s1
    80004c64:	d59ff0ef          	jal	ra,800049bc <__moddi3>
    80004c68:	001a0a1b          	addiw	s4,s4,1
    80004c6c:	0ffa7793          	andi	a5,s4,255
    80004c70:	0037b793          	sltiu	a5,a5,3
    80004c74:	40f9093b          	subw	s2,s2,a5
    80004c78:	03091913          	slli	s2,s2,0x30
    80004c7c:	03095913          	srli	s2,s2,0x30
    80004c80:	00a9a023          	sw	a0,0(s3)
    80004c84:	06400593          	li	a1,100
    80004c88:	00090513          	mv	a0,s2
    80004c8c:	cb5ff0ef          	jal	ra,80004940 <__udivdi3>
    80004c90:	0029549b          	srliw	s1,s2,0x2
    80004c94:	0105179b          	slliw	a5,a0,0x10
    80004c98:	0107d79b          	srliw	a5,a5,0x10
    80004c9c:	012484bb          	addw	s1,s1,s2
    80004ca0:	19000593          	li	a1,400
    80004ca4:	00090513          	mv	a0,s2
    80004ca8:	0ffa7a13          	andi	s4,s4,255
    80004cac:	40f484bb          	subw	s1,s1,a5
    80004cb0:	fffa0a1b          	addiw	s4,s4,-1
    80004cb4:	c8dff0ef          	jal	ra,80004940 <__udivdi3>
    80004cb8:	00002797          	auipc	a5,0x2
    80004cbc:	e6078793          	addi	a5,a5,-416 # 80006b18 <t.1857>
    80004cc0:	002a1a13          	slli	s4,s4,0x2
    80004cc4:	01478a33          	add	s4,a5,s4
    80004cc8:	000a2783          	lw	a5,0(s4)
    80004ccc:	0105151b          	slliw	a0,a0,0x10
    80004cd0:	0105551b          	srliw	a0,a0,0x10
    80004cd4:	00a484bb          	addw	s1,s1,a0
    80004cd8:	00f484bb          	addw	s1,s1,a5
    80004cdc:	0ff47513          	andi	a0,s0,255
    80004ce0:	00a4853b          	addw	a0,s1,a0
    80004ce4:	00700593          	li	a1,7
    80004ce8:	cd5ff0ef          	jal	ra,800049bc <__moddi3>
    80004cec:	03813083          	ld	ra,56(sp)
    80004cf0:	03013403          	ld	s0,48(sp)
    80004cf4:	0ff57513          	andi	a0,a0,255
    80004cf8:	00a9ac23          	sw	a0,24(s3)
    80004cfc:	0209a023          	sw	zero,32(s3)
    80004d00:	02813483          	ld	s1,40(sp)
    80004d04:	02013903          	ld	s2,32(sp)
    80004d08:	01013a03          	ld	s4,16(sp)
    80004d0c:	00813a83          	ld	s5,8(sp)
    80004d10:	00098513          	mv	a0,s3
    80004d14:	01813983          	ld	s3,24(sp)
    80004d18:	04010113          	addi	sp,sp,64
    80004d1c:	00008067          	ret
    80004d20:	00000a13          	li	s4,0
    80004d24:	eedff06f          	j	80004c10 <gmtime_r+0x118>

0000000080004d28 <__am_timer_rtc>:
    80004d28:	fa010113          	addi	sp,sp,-96
    80004d2c:	04813823          	sd	s0,80(sp)
    80004d30:	01810593          	addi	a1,sp,24
    80004d34:	00050413          	mv	s0,a0
    80004d38:	00810513          	addi	a0,sp,8
    80004d3c:	04113c23          	sd	ra,88(sp)
    80004d40:	00013423          	sd	zero,8(sp)
    80004d44:	00013823          	sd	zero,16(sp)
    80004d48:	db1ff0ef          	jal	ra,80004af8 <gmtime_r>
    80004d4c:	01812703          	lw	a4,24(sp)
    80004d50:	02812783          	lw	a5,40(sp)
    80004d54:	05813083          	ld	ra,88(sp)
    80004d58:	00e42a23          	sw	a4,20(s0)
    80004d5c:	01c12703          	lw	a4,28(sp)
    80004d60:	0017879b          	addiw	a5,a5,1
    80004d64:	00f42223          	sw	a5,4(s0)
    80004d68:	00e42823          	sw	a4,16(s0)
    80004d6c:	02012703          	lw	a4,32(sp)
    80004d70:	02c12783          	lw	a5,44(sp)
    80004d74:	00e42623          	sw	a4,12(s0)
    80004d78:	02412703          	lw	a4,36(sp)
    80004d7c:	00f42023          	sw	a5,0(s0)
    80004d80:	00e42423          	sw	a4,8(s0)
    80004d84:	05013403          	ld	s0,80(sp)
    80004d88:	06010113          	addi	sp,sp,96
    80004d8c:	00008067          	ret

0000000080004d90 <__am_input_keybrd>:
    80004d90:	00050023          	sb	zero,0(a0)
    80004d94:	00052223          	sw	zero,4(a0)
    80004d98:	00008067          	ret

0000000080004d9c <strcmp>:
    80004d9c:	00054783          	lbu	a5,0(a0)
    80004da0:	00158593          	addi	a1,a1,1
    80004da4:	00150513          	addi	a0,a0,1
    80004da8:	fff5c703          	lbu	a4,-1(a1)
    80004dac:	00078863          	beqz	a5,80004dbc <strcmp+0x20>
    80004db0:	fee786e3          	beq	a5,a4,80004d9c <strcmp>
    80004db4:	40e7853b          	subw	a0,a5,a4
    80004db8:	00008067          	ret
    80004dbc:	40e0053b          	negw	a0,a4
    80004dc0:	00008067          	ret

0000000080004dc4 <heap_init>:
    80004dc4:	00002797          	auipc	a5,0x2
    80004dc8:	70c78793          	addi	a5,a5,1804 # 800074d0 <heap>
    80004dcc:	0007b503          	ld	a0,0(a5)
    80004dd0:	0087b583          	ld	a1,8(a5)
    80004dd4:	ff010113          	addi	sp,sp,-16
    80004dd8:	00000693          	li	a3,0
    80004ddc:	00000613          	li	a2,0
    80004de0:	40a585b3          	sub	a1,a1,a0
    80004de4:	00113423          	sd	ra,8(sp)
    80004de8:	224010ef          	jal	ra,8000600c <o1heapInit>
    80004dec:	00813083          	ld	ra,8(sp)
    80004df0:	00003797          	auipc	a5,0x3
    80004df4:	c0a7bc23          	sd	a0,-1000(a5) # 80007a08 <heap_inst>
    80004df8:	01010113          	addi	sp,sp,16
    80004dfc:	00008067          	ret

0000000080004e00 <_out_buffer>:
    80004e00:	00d67663          	bgeu	a2,a3,80004e0c <_out_buffer+0xc>
    80004e04:	00c585b3          	add	a1,a1,a2
    80004e08:	00a58023          	sb	a0,0(a1)
    80004e0c:	00008067          	ret

0000000080004e10 <_out_null>:
    80004e10:	00008067          	ret

0000000080004e14 <_ntoa_format>:
    80004e14:	fa010113          	addi	sp,sp,-96
    80004e18:	07012303          	lw	t1,112(sp)
    80004e1c:	03313c23          	sd	s3,56(sp)
    80004e20:	03413823          	sd	s4,48(sp)
    80004e24:	03513423          	sd	s5,40(sp)
    80004e28:	03613023          	sd	s6,32(sp)
    80004e2c:	01713c23          	sd	s7,24(sp)
    80004e30:	01813823          	sd	s8,16(sp)
    80004e34:	01913423          	sd	s9,8(sp)
    80004e38:	00237e13          	andi	t3,t1,2
    80004e3c:	01037e93          	andi	t4,t1,16
    80004e40:	04113c23          	sd	ra,88(sp)
    80004e44:	04813823          	sd	s0,80(sp)
    80004e48:	04913423          	sd	s1,72(sp)
    80004e4c:	05213023          	sd	s2,64(sp)
    80004e50:	06012f03          	lw	t5,96(sp)
    80004e54:	06812c03          	lw	s8,104(sp)
    80004e58:	00050a13          	mv	s4,a0
    80004e5c:	00058a93          	mv	s5,a1
    80004e60:	00060b93          	mv	s7,a2
    80004e64:	00068b13          	mv	s6,a3
    80004e68:	00070993          	mv	s3,a4
    80004e6c:	000e0c9b          	sext.w	s9,t3
    80004e70:	000e8e9b          	sext.w	t4,t4
    80004e74:	060e1c63          	bnez	t3,80004eec <_ntoa_format+0xd8>
    80004e78:	020f1693          	slli	a3,t5,0x20
    80004e7c:	00137513          	andi	a0,t1,1
    80004e80:	0206d693          	srli	a3,a3,0x20
    80004e84:	180c1e63          	bnez	s8,80005020 <_ntoa_format+0x20c>
    80004e88:	02d7f663          	bgeu	a5,a3,80004eb4 <_ntoa_format+0xa0>
    80004e8c:	02000713          	li	a4,32
    80004e90:	36e78e63          	beq	a5,a4,8000520c <_ntoa_format+0x3f8>
    80004e94:	03000613          	li	a2,48
    80004e98:	02000593          	li	a1,32
    80004e9c:	0080006f          	j	80004ea4 <_ntoa_format+0x90>
    80004ea0:	00b78a63          	beq	a5,a1,80004eb4 <_ntoa_format+0xa0>
    80004ea4:	00178793          	addi	a5,a5,1
    80004ea8:	00f98733          	add	a4,s3,a5
    80004eac:	fec70fa3          	sb	a2,-1(a4)
    80004eb0:	fed7e8e3          	bltu	a5,a3,80004ea0 <_ntoa_format+0x8c>
    80004eb4:	02050c63          	beqz	a0,80004eec <_ntoa_format+0xd8>
    80004eb8:	020c1913          	slli	s2,s8,0x20
    80004ebc:	02095913          	srli	s2,s2,0x20
    80004ec0:	0327f663          	bgeu	a5,s2,80004eec <_ntoa_format+0xd8>
    80004ec4:	02000713          	li	a4,32
    80004ec8:	36e78863          	beq	a5,a4,80005238 <_ntoa_format+0x424>
    80004ecc:	03000693          	li	a3,48
    80004ed0:	02000613          	li	a2,32
    80004ed4:	0080006f          	j	80004edc <_ntoa_format+0xc8>
    80004ed8:	16c78463          	beq	a5,a2,80005040 <_ntoa_format+0x22c>
    80004edc:	00178793          	addi	a5,a5,1
    80004ee0:	00f98733          	add	a4,s3,a5
    80004ee4:	fed70fa3          	sb	a3,-1(a4)
    80004ee8:	ff2798e3          	bne	a5,s2,80004ed8 <_ntoa_format+0xc4>
    80004eec:	1a0e8663          	beqz	t4,80005098 <_ntoa_format+0x284>
    80004ef0:	40037713          	andi	a4,t1,1024
    80004ef4:	20071463          	bnez	a4,800050fc <_ntoa_format+0x2e8>
    80004ef8:	1e079663          	bnez	a5,800050e4 <_ntoa_format+0x2d0>
    80004efc:	01000793          	li	a5,16
    80004f00:	2af88863          	beq	a7,a5,800051b0 <_ntoa_format+0x39c>
    80004f04:	00200793          	li	a5,2
    80004f08:	2ef88a63          	beq	a7,a5,800051fc <_ntoa_format+0x3e8>
    80004f0c:	03000793          	li	a5,48
    80004f10:	00f98023          	sb	a5,0(s3)
    80004f14:	00100793          	li	a5,1
    80004f18:	1a080463          	beqz	a6,800050c0 <_ntoa_format+0x2ac>
    80004f1c:	00f98733          	add	a4,s3,a5
    80004f20:	00178413          	addi	s0,a5,1
    80004f24:	02d00793          	li	a5,45
    80004f28:	00f70023          	sb	a5,0(a4)
    80004f2c:	00337313          	andi	t1,t1,3
    80004f30:	20031263          	bnez	t1,80005134 <_ntoa_format+0x320>
    80004f34:	020c1913          	slli	s2,s8,0x20
    80004f38:	02095913          	srli	s2,s2,0x20
    80004f3c:	1f247c63          	bgeu	s0,s2,80005134 <_ntoa_format+0x320>
    80004f40:	40890933          	sub	s2,s2,s0
    80004f44:	01790933          	add	s2,s2,s7
    80004f48:	000b8493          	mv	s1,s7
    80004f4c:	00048613          	mv	a2,s1
    80004f50:	000b0693          	mv	a3,s6
    80004f54:	00148493          	addi	s1,s1,1
    80004f58:	000a8593          	mv	a1,s5
    80004f5c:	02000513          	li	a0,32
    80004f60:	000a00e7          	jalr	s4
    80004f64:	ff2494e3          	bne	s1,s2,80004f4c <_ntoa_format+0x138>
    80004f68:	02040663          	beqz	s0,80004f94 <_ntoa_format+0x180>
    80004f6c:	01240933          	add	s2,s0,s2
    80004f70:	012984b3          	add	s1,s3,s2
    80004f74:	00898433          	add	s0,s3,s0
    80004f78:	fff44503          	lbu	a0,-1(s0)
    80004f7c:	40848633          	sub	a2,s1,s0
    80004f80:	000b0693          	mv	a3,s6
    80004f84:	fff40413          	addi	s0,s0,-1
    80004f88:	000a8593          	mv	a1,s5
    80004f8c:	000a00e7          	jalr	s4
    80004f90:	fe8994e3          	bne	s3,s0,80004f78 <_ntoa_format+0x164>
    80004f94:	040c8a63          	beqz	s9,80004fe8 <_ntoa_format+0x1d4>
    80004f98:	020c1c13          	slli	s8,s8,0x20
    80004f9c:	41790433          	sub	s0,s2,s7
    80004fa0:	020c5c13          	srli	s8,s8,0x20
    80004fa4:	05847263          	bgeu	s0,s8,80004fe8 <_ntoa_format+0x1d4>
    80004fa8:	01740633          	add	a2,s0,s7
    80004fac:	000b0693          	mv	a3,s6
    80004fb0:	00140413          	addi	s0,s0,1
    80004fb4:	000a8593          	mv	a1,s5
    80004fb8:	02000513          	li	a0,32
    80004fbc:	000a00e7          	jalr	s4
    80004fc0:	ff8464e3          	bltu	s0,s8,80004fa8 <_ntoa_format+0x194>
    80004fc4:	41790733          	sub	a4,s2,s7
    80004fc8:	00170713          	addi	a4,a4,1
    80004fcc:	00000793          	li	a5,0
    80004fd0:	00ec6863          	bltu	s8,a4,80004fe0 <_ntoa_format+0x1cc>
    80004fd4:	fffb8793          	addi	a5,s7,-1 # ffff <_entry_offset+0xffff>
    80004fd8:	01878c33          	add	s8,a5,s8
    80004fdc:	412c07b3          	sub	a5,s8,s2
    80004fe0:	00190913          	addi	s2,s2,1
    80004fe4:	00f90933          	add	s2,s2,a5
    80004fe8:	05813083          	ld	ra,88(sp)
    80004fec:	05013403          	ld	s0,80(sp)
    80004ff0:	04813483          	ld	s1,72(sp)
    80004ff4:	03813983          	ld	s3,56(sp)
    80004ff8:	03013a03          	ld	s4,48(sp)
    80004ffc:	02813a83          	ld	s5,40(sp)
    80005000:	02013b03          	ld	s6,32(sp)
    80005004:	01813b83          	ld	s7,24(sp)
    80005008:	01013c03          	ld	s8,16(sp)
    8000500c:	00813c83          	ld	s9,8(sp)
    80005010:	00090513          	mv	a0,s2
    80005014:	04013903          	ld	s2,64(sp)
    80005018:	06010113          	addi	sp,sp,96
    8000501c:	00008067          	ret
    80005020:	12050863          	beqz	a0,80005150 <_ntoa_format+0x33c>
    80005024:	00081663          	bnez	a6,80005030 <_ntoa_format+0x21c>
    80005028:	00c37713          	andi	a4,t1,12
    8000502c:	00070463          	beqz	a4,80005034 <_ntoa_format+0x220>
    80005030:	fffc0c1b          	addiw	s8,s8,-1
    80005034:	e8d7f2e3          	bgeu	a5,a3,80004eb8 <_ntoa_format+0xa4>
    80005038:	02000713          	li	a4,32
    8000503c:	e4e79ce3          	bne	a5,a4,80004e94 <_ntoa_format+0x80>
    80005040:	0e0e8063          	beqz	t4,80005120 <_ntoa_format+0x30c>
    80005044:	40037793          	andi	a5,t1,1024
    80005048:	04079c63          	bnez	a5,800050a0 <_ntoa_format+0x28c>
    8000504c:	02000793          	li	a5,32
    80005050:	0aff1063          	bne	t5,a5,800050f0 <_ntoa_format+0x2dc>
    80005054:	02000793          	li	a5,32
    80005058:	01f00713          	li	a4,31
    8000505c:	01000693          	li	a3,16
    80005060:	1ad88c63          	beq	a7,a3,80005218 <_ntoa_format+0x404>
    80005064:	00200693          	li	a3,2
    80005068:	00070793          	mv	a5,a4
    8000506c:	00d89e63          	bne	a7,a3,80005088 <_ntoa_format+0x274>
    80005070:	00e986b3          	add	a3,s3,a4
    80005074:	00170793          	addi	a5,a4,1
    80005078:	06200713          	li	a4,98
    8000507c:	00e68023          	sb	a4,0(a3)
    80005080:	02000713          	li	a4,32
    80005084:	00e78e63          	beq	a5,a4,800050a0 <_ntoa_format+0x28c>
    80005088:	00f98733          	add	a4,s3,a5
    8000508c:	03000693          	li	a3,48
    80005090:	00d70023          	sb	a3,0(a4)
    80005094:	00178793          	addi	a5,a5,1
    80005098:	02000713          	li	a4,32
    8000509c:	e6e79ee3          	bne	a5,a4,80004f18 <_ntoa_format+0x104>
    800050a0:	00337313          	andi	t1,t1,3
    800050a4:	08031263          	bnez	t1,80005128 <_ntoa_format+0x314>
    800050a8:	02000413          	li	s0,32
    800050ac:	020c1913          	slli	s2,s8,0x20
    800050b0:	02095913          	srli	s2,s2,0x20
    800050b4:	e92466e3          	bltu	s0,s2,80004f40 <_ntoa_format+0x12c>
    800050b8:	000b8913          	mv	s2,s7
    800050bc:	eadff06f          	j	80004f68 <_ntoa_format+0x154>
    800050c0:	00437713          	andi	a4,t1,4
    800050c4:	06071c63          	bnez	a4,8000513c <_ntoa_format+0x328>
    800050c8:	00837713          	andi	a4,t1,8
    800050cc:	0c071863          	bnez	a4,8000519c <_ntoa_format+0x388>
    800050d0:	00337313          	andi	t1,t1,3
    800050d4:	00078413          	mv	s0,a5
    800050d8:	fc030ae3          	beqz	t1,800050ac <_ntoa_format+0x298>
    800050dc:	000b8913          	mv	s2,s7
    800050e0:	e89ff06f          	j	80004f68 <_ntoa_format+0x154>
    800050e4:	020f1f13          	slli	t5,t5,0x20
    800050e8:	020f5f13          	srli	t5,t5,0x20
    800050ec:	0aff0263          	beq	t5,a5,80005190 <_ntoa_format+0x37c>
    800050f0:	020c1913          	slli	s2,s8,0x20
    800050f4:	02095913          	srli	s2,s2,0x20
    800050f8:	08f90c63          	beq	s2,a5,80005190 <_ntoa_format+0x37c>
    800050fc:	01000713          	li	a4,16
    80005100:	06e88663          	beq	a7,a4,8000516c <_ntoa_format+0x358>
    80005104:	00200713          	li	a4,2
    80005108:	f6e89ce3          	bne	a7,a4,80005080 <_ntoa_format+0x26c>
    8000510c:	02000713          	li	a4,32
    80005110:	f8e788e3          	beq	a5,a4,800050a0 <_ntoa_format+0x28c>
    80005114:	00f986b3          	add	a3,s3,a5
    80005118:	00178793          	addi	a5,a5,1
    8000511c:	f5dff06f          	j	80005078 <_ntoa_format+0x264>
    80005120:	00337313          	andi	t1,t1,3
    80005124:	0c030063          	beqz	t1,800051e4 <_ntoa_format+0x3d0>
    80005128:	000b8913          	mv	s2,s7
    8000512c:	02000413          	li	s0,32
    80005130:	e3dff06f          	j	80004f6c <_ntoa_format+0x158>
    80005134:	000b8913          	mv	s2,s7
    80005138:	e35ff06f          	j	80004f6c <_ntoa_format+0x158>
    8000513c:	00f98733          	add	a4,s3,a5
    80005140:	00178413          	addi	s0,a5,1
    80005144:	02b00793          	li	a5,43
    80005148:	00f70023          	sb	a5,0(a4)
    8000514c:	de1ff06f          	j	80004f2c <_ntoa_format+0x118>
    80005150:	d8d7fee3          	bgeu	a5,a3,80004eec <_ntoa_format+0xd8>
    80005154:	02000713          	li	a4,32
    80005158:	d2e79ee3          	bne	a5,a4,80004e94 <_ntoa_format+0x80>
    8000515c:	0e0e8c63          	beqz	t4,80005254 <_ntoa_format+0x440>
    80005160:	40037793          	andi	a5,t1,1024
    80005164:	f2079ee3          	bnez	a5,800050a0 <_ntoa_format+0x28c>
    80005168:	ee5ff06f          	j	8000504c <_ntoa_format+0x238>
    8000516c:	02037713          	andi	a4,t1,32
    80005170:	04071c63          	bnez	a4,800051c8 <_ntoa_format+0x3b4>
    80005174:	02000713          	li	a4,32
    80005178:	f2e784e3          	beq	a5,a4,800050a0 <_ntoa_format+0x28c>
    8000517c:	00f98733          	add	a4,s3,a5
    80005180:	00178793          	addi	a5,a5,1
    80005184:	07800693          	li	a3,120
    80005188:	00d70023          	sb	a3,0(a4)
    8000518c:	ef5ff06f          	j	80005080 <_ntoa_format+0x26c>
    80005190:	fff78713          	addi	a4,a5,-1
    80005194:	d60704e3          	beqz	a4,80004efc <_ntoa_format+0xe8>
    80005198:	ec5ff06f          	j	8000505c <_ntoa_format+0x248>
    8000519c:	00f98733          	add	a4,s3,a5
    800051a0:	00178413          	addi	s0,a5,1
    800051a4:	02000793          	li	a5,32
    800051a8:	00f70023          	sb	a5,0(a4)
    800051ac:	d81ff06f          	j	80004f2c <_ntoa_format+0x118>
    800051b0:	02037793          	andi	a5,t1,32
    800051b4:	02079c63          	bnez	a5,800051ec <_ntoa_format+0x3d8>
    800051b8:	07800793          	li	a5,120
    800051bc:	00f98023          	sb	a5,0(s3)
    800051c0:	00100793          	li	a5,1
    800051c4:	ec5ff06f          	j	80005088 <_ntoa_format+0x274>
    800051c8:	02000713          	li	a4,32
    800051cc:	ece78ae3          	beq	a5,a4,800050a0 <_ntoa_format+0x28c>
    800051d0:	00f98733          	add	a4,s3,a5
    800051d4:	05800693          	li	a3,88
    800051d8:	00d70023          	sb	a3,0(a4)
    800051dc:	00178793          	addi	a5,a5,1
    800051e0:	ea1ff06f          	j	80005080 <_ntoa_format+0x26c>
    800051e4:	02000413          	li	s0,32
    800051e8:	d4dff06f          	j	80004f34 <_ntoa_format+0x120>
    800051ec:	05800793          	li	a5,88
    800051f0:	00f98023          	sb	a5,0(s3)
    800051f4:	00100793          	li	a5,1
    800051f8:	e91ff06f          	j	80005088 <_ntoa_format+0x274>
    800051fc:	06200793          	li	a5,98
    80005200:	00f98023          	sb	a5,0(s3)
    80005204:	00100793          	li	a5,1
    80005208:	e81ff06f          	j	80005088 <_ntoa_format+0x274>
    8000520c:	e2051ae3          	bnez	a0,80005040 <_ntoa_format+0x22c>
    80005210:	000c8c13          	mv	s8,s9
    80005214:	f49ff06f          	j	8000515c <_ntoa_format+0x348>
    80005218:	02037693          	andi	a3,t1,32
    8000521c:	ffe78713          	addi	a4,a5,-2
    80005220:	00069863          	bnez	a3,80005230 <_ntoa_format+0x41c>
    80005224:	00e98733          	add	a4,s3,a4
    80005228:	fff78793          	addi	a5,a5,-1
    8000522c:	f59ff06f          	j	80005184 <_ntoa_format+0x370>
    80005230:	00070793          	mv	a5,a4
    80005234:	f9dff06f          	j	800051d0 <_ntoa_format+0x3bc>
    80005238:	000e8e63          	beqz	t4,80005254 <_ntoa_format+0x440>
    8000523c:	40037713          	andi	a4,t1,1024
    80005240:	00071e63          	bnez	a4,8000525c <_ntoa_format+0x448>
    80005244:	02ff0e63          	beq	t5,a5,80005280 <_ntoa_format+0x46c>
    80005248:	e4fc1ce3          	bne	s8,a5,800050a0 <_ntoa_format+0x28c>
    8000524c:	01f00713          	li	a4,31
    80005250:	e0dff06f          	j	8000505c <_ntoa_format+0x248>
    80005254:	02000413          	li	s0,32
    80005258:	cd5ff06f          	j	80004f2c <_ntoa_format+0x118>
    8000525c:	01000793          	li	a5,16
    80005260:	02f88c63          	beq	a7,a5,80005298 <_ntoa_format+0x484>
    80005264:	00200793          	li	a5,2
    80005268:	e2f88ce3          	beq	a7,a5,800050a0 <_ntoa_format+0x28c>
    8000526c:	00337313          	andi	t1,t1,3
    80005270:	ea031ce3          	bnez	t1,80005128 <_ntoa_format+0x314>
    80005274:	02000413          	li	s0,32
    80005278:	cd2464e3          	bltu	s0,s2,80004f40 <_ntoa_format+0x12c>
    8000527c:	e3dff06f          	j	800050b8 <_ntoa_format+0x2a4>
    80005280:	01000713          	li	a4,16
    80005284:	f8e88ae3          	beq	a7,a4,80005218 <_ntoa_format+0x404>
    80005288:	00200793          	li	a5,2
    8000528c:	00f88c63          	beq	a7,a5,800052a4 <_ntoa_format+0x490>
    80005290:	01f00793          	li	a5,31
    80005294:	df5ff06f          	j	80005088 <_ntoa_format+0x274>
    80005298:	02037793          	andi	a5,t1,32
    8000529c:	fc0788e3          	beqz	a5,8000526c <_ntoa_format+0x458>
    800052a0:	e01ff06f          	j	800050a0 <_ntoa_format+0x28c>
    800052a4:	01f00713          	li	a4,31
    800052a8:	dc9ff06f          	j	80005070 <_ntoa_format+0x25c>

00000000800052ac <_ntoa_long>:
    800052ac:	f4010113          	addi	sp,sp,-192
    800052b0:	09413823          	sd	s4,144(sp)
    800052b4:	09513423          	sd	s5,136(sp)
    800052b8:	09613023          	sd	s6,128(sp)
    800052bc:	07713c23          	sd	s7,120(sp)
    800052c0:	07813823          	sd	s8,112(sp)
    800052c4:	07913423          	sd	s9,104(sp)
    800052c8:	05b13c23          	sd	s11,88(sp)
    800052cc:	0a113c23          	sd	ra,184(sp)
    800052d0:	0a813823          	sd	s0,176(sp)
    800052d4:	0a913423          	sd	s1,168(sp)
    800052d8:	0b213023          	sd	s2,160(sp)
    800052dc:	09313c23          	sd	s3,152(sp)
    800052e0:	07a13023          	sd	s10,96(sp)
    800052e4:	02a13023          	sd	a0,32(sp)
    800052e8:	03113423          	sd	a7,40(sp)
    800052ec:	0c812a03          	lw	s4,200(sp)
    800052f0:	00070d93          	mv	s11,a4
    800052f4:	00058b13          	mv	s6,a1
    800052f8:	00060b93          	mv	s7,a2
    800052fc:	00068c13          	mv	s8,a3
    80005300:	00078c93          	mv	s9,a5
    80005304:	00080a93          	mv	s5,a6
    80005308:	00071863          	bnez	a4,80005318 <_ntoa_long+0x6c>
    8000530c:	400a7793          	andi	a5,s4,1024
    80005310:	fefa7a13          	andi	s4,s4,-17
    80005314:	0e079663          	bnez	a5,80005400 <_ntoa_long+0x154>
    80005318:	020a7793          	andi	a5,s4,32
    8000531c:	06100413          	li	s0,97
    80005320:	0c079c63          	bnez	a5,800053f8 <_ntoa_long+0x14c>
    80005324:	00000d13          	li	s10,0
    80005328:	03010493          	addi	s1,sp,48
    8000532c:	00900913          	li	s2,9
    80005330:	ff64041b          	addiw	s0,s0,-10
    80005334:	02000993          	li	s3,32
    80005338:	00c0006f          	j	80005344 <_ntoa_long+0x98>
    8000533c:	053d0463          	beq	s10,s3,80005384 <_ntoa_long+0xd8>
    80005340:	00050d93          	mv	s11,a0
    80005344:	000a8593          	mv	a1,s5
    80005348:	000d8513          	mv	a0,s11
    8000534c:	e3cff0ef          	jal	ra,80004988 <__umoddi3>
    80005350:	0ff57313          	andi	t1,a0,255
    80005354:	0303071b          	addiw	a4,t1,48
    80005358:	0064033b          	addw	t1,s0,t1
    8000535c:	0ff37313          	andi	t1,t1,255
    80005360:	00a96463          	bltu	s2,a0,80005368 <_ntoa_long+0xbc>
    80005364:	0ff77313          	andi	t1,a4,255
    80005368:	001d0d13          	addi	s10,s10,1
    8000536c:	01a48733          	add	a4,s1,s10
    80005370:	000d8513          	mv	a0,s11
    80005374:	000a8593          	mv	a1,s5
    80005378:	fe670fa3          	sb	t1,-1(a4)
    8000537c:	dc4ff0ef          	jal	ra,80004940 <__udivdi3>
    80005380:	fb5dfee3          	bgeu	s11,s5,8000533c <_ntoa_long+0x90>
    80005384:	0c012703          	lw	a4,192(sp)
    80005388:	02813783          	ld	a5,40(sp)
    8000538c:	02013503          	ld	a0,32(sp)
    80005390:	01413823          	sd	s4,16(sp)
    80005394:	00e13423          	sd	a4,8(sp)
    80005398:	00f13023          	sd	a5,0(sp)
    8000539c:	000a889b          	sext.w	a7,s5
    800053a0:	000c8813          	mv	a6,s9
    800053a4:	000d0793          	mv	a5,s10
    800053a8:	00048713          	mv	a4,s1
    800053ac:	000c0693          	mv	a3,s8
    800053b0:	000b8613          	mv	a2,s7
    800053b4:	000b0593          	mv	a1,s6
    800053b8:	a5dff0ef          	jal	ra,80004e14 <_ntoa_format>
    800053bc:	0b813083          	ld	ra,184(sp)
    800053c0:	0b013403          	ld	s0,176(sp)
    800053c4:	0a813483          	ld	s1,168(sp)
    800053c8:	0a013903          	ld	s2,160(sp)
    800053cc:	09813983          	ld	s3,152(sp)
    800053d0:	09013a03          	ld	s4,144(sp)
    800053d4:	08813a83          	ld	s5,136(sp)
    800053d8:	08013b03          	ld	s6,128(sp)
    800053dc:	07813b83          	ld	s7,120(sp)
    800053e0:	07013c03          	ld	s8,112(sp)
    800053e4:	06813c83          	ld	s9,104(sp)
    800053e8:	06013d03          	ld	s10,96(sp)
    800053ec:	05813d83          	ld	s11,88(sp)
    800053f0:	0c010113          	addi	sp,sp,192
    800053f4:	00008067          	ret
    800053f8:	04100413          	li	s0,65
    800053fc:	f29ff06f          	j	80005324 <_ntoa_long+0x78>
    80005400:	00000d13          	li	s10,0
    80005404:	03010493          	addi	s1,sp,48
    80005408:	f7dff06f          	j	80005384 <_ntoa_long+0xd8>

000000008000540c <_ntoa_long_long>:
    8000540c:	f4010113          	addi	sp,sp,-192
    80005410:	09413823          	sd	s4,144(sp)
    80005414:	09513423          	sd	s5,136(sp)
    80005418:	09613023          	sd	s6,128(sp)
    8000541c:	07713c23          	sd	s7,120(sp)
    80005420:	07813823          	sd	s8,112(sp)
    80005424:	07913423          	sd	s9,104(sp)
    80005428:	05b13c23          	sd	s11,88(sp)
    8000542c:	0a113c23          	sd	ra,184(sp)
    80005430:	0a813823          	sd	s0,176(sp)
    80005434:	0a913423          	sd	s1,168(sp)
    80005438:	0b213023          	sd	s2,160(sp)
    8000543c:	09313c23          	sd	s3,152(sp)
    80005440:	07a13023          	sd	s10,96(sp)
    80005444:	02a13023          	sd	a0,32(sp)
    80005448:	03113423          	sd	a7,40(sp)
    8000544c:	0c812a03          	lw	s4,200(sp)
    80005450:	00070d93          	mv	s11,a4
    80005454:	00058b13          	mv	s6,a1
    80005458:	00060b93          	mv	s7,a2
    8000545c:	00068c13          	mv	s8,a3
    80005460:	00078c93          	mv	s9,a5
    80005464:	00080a93          	mv	s5,a6
    80005468:	00071863          	bnez	a4,80005478 <_ntoa_long_long+0x6c>
    8000546c:	400a7793          	andi	a5,s4,1024
    80005470:	fefa7a13          	andi	s4,s4,-17
    80005474:	0e079663          	bnez	a5,80005560 <_ntoa_long_long+0x154>
    80005478:	020a7793          	andi	a5,s4,32
    8000547c:	06100413          	li	s0,97
    80005480:	0c079c63          	bnez	a5,80005558 <_ntoa_long_long+0x14c>
    80005484:	00000d13          	li	s10,0
    80005488:	03010493          	addi	s1,sp,48
    8000548c:	00900913          	li	s2,9
    80005490:	ff64041b          	addiw	s0,s0,-10
    80005494:	02000993          	li	s3,32
    80005498:	00c0006f          	j	800054a4 <_ntoa_long_long+0x98>
    8000549c:	053d0463          	beq	s10,s3,800054e4 <_ntoa_long_long+0xd8>
    800054a0:	00050d93          	mv	s11,a0
    800054a4:	000a8593          	mv	a1,s5
    800054a8:	000d8513          	mv	a0,s11
    800054ac:	cdcff0ef          	jal	ra,80004988 <__umoddi3>
    800054b0:	0ff57313          	andi	t1,a0,255
    800054b4:	0303071b          	addiw	a4,t1,48
    800054b8:	0064033b          	addw	t1,s0,t1
    800054bc:	0ff37313          	andi	t1,t1,255
    800054c0:	00a96463          	bltu	s2,a0,800054c8 <_ntoa_long_long+0xbc>
    800054c4:	0ff77313          	andi	t1,a4,255
    800054c8:	001d0d13          	addi	s10,s10,1
    800054cc:	01a48733          	add	a4,s1,s10
    800054d0:	000d8513          	mv	a0,s11
    800054d4:	000a8593          	mv	a1,s5
    800054d8:	fe670fa3          	sb	t1,-1(a4)
    800054dc:	c64ff0ef          	jal	ra,80004940 <__udivdi3>
    800054e0:	fb5dfee3          	bgeu	s11,s5,8000549c <_ntoa_long_long+0x90>
    800054e4:	0c012703          	lw	a4,192(sp)
    800054e8:	02813783          	ld	a5,40(sp)
    800054ec:	02013503          	ld	a0,32(sp)
    800054f0:	01413823          	sd	s4,16(sp)
    800054f4:	00e13423          	sd	a4,8(sp)
    800054f8:	00f13023          	sd	a5,0(sp)
    800054fc:	000a889b          	sext.w	a7,s5
    80005500:	000c8813          	mv	a6,s9
    80005504:	000d0793          	mv	a5,s10
    80005508:	00048713          	mv	a4,s1
    8000550c:	000c0693          	mv	a3,s8
    80005510:	000b8613          	mv	a2,s7
    80005514:	000b0593          	mv	a1,s6
    80005518:	8fdff0ef          	jal	ra,80004e14 <_ntoa_format>
    8000551c:	0b813083          	ld	ra,184(sp)
    80005520:	0b013403          	ld	s0,176(sp)
    80005524:	0a813483          	ld	s1,168(sp)
    80005528:	0a013903          	ld	s2,160(sp)
    8000552c:	09813983          	ld	s3,152(sp)
    80005530:	09013a03          	ld	s4,144(sp)
    80005534:	08813a83          	ld	s5,136(sp)
    80005538:	08013b03          	ld	s6,128(sp)
    8000553c:	07813b83          	ld	s7,120(sp)
    80005540:	07013c03          	ld	s8,112(sp)
    80005544:	06813c83          	ld	s9,104(sp)
    80005548:	06013d03          	ld	s10,96(sp)
    8000554c:	05813d83          	ld	s11,88(sp)
    80005550:	0c010113          	addi	sp,sp,192
    80005554:	00008067          	ret
    80005558:	04100413          	li	s0,65
    8000555c:	f29ff06f          	j	80005484 <_ntoa_long_long+0x78>
    80005560:	00000d13          	li	s10,0
    80005564:	03010493          	addi	s1,sp,48
    80005568:	f7dff06f          	j	800054e4 <_ntoa_long_long+0xd8>

000000008000556c <_vsnprintf>:
    8000556c:	f6010113          	addi	sp,sp,-160
    80005570:	08913423          	sd	s1,136(sp)
    80005574:	09213023          	sd	s2,128(sp)
    80005578:	07313c23          	sd	s3,120(sp)
    8000557c:	05713c23          	sd	s7,88(sp)
    80005580:	05813823          	sd	s8,80(sp)
    80005584:	08113c23          	sd	ra,152(sp)
    80005588:	08813823          	sd	s0,144(sp)
    8000558c:	07413823          	sd	s4,112(sp)
    80005590:	07513423          	sd	s5,104(sp)
    80005594:	07613023          	sd	s6,96(sp)
    80005598:	05913423          	sd	s9,72(sp)
    8000559c:	05a13023          	sd	s10,64(sp)
    800055a0:	03b13c23          	sd	s11,56(sp)
    800055a4:	00058493          	mv	s1,a1
    800055a8:	00060c13          	mv	s8,a2
    800055ac:	00068b93          	mv	s7,a3
    800055b0:	00070993          	mv	s3,a4
    800055b4:	00000917          	auipc	s2,0x0
    800055b8:	85c90913          	addi	s2,s2,-1956 # 80004e10 <_out_null>
    800055bc:	00058463          	beqz	a1,800055c4 <_vsnprintf+0x58>
    800055c0:	00050913          	mv	s2,a0
    800055c4:	000bc503          	lbu	a0,0(s7)
    800055c8:	00000d13          	li	s10,0
    800055cc:	66050663          	beqz	a0,80005c38 <_vsnprintf+0x6cc>
    800055d0:	000107b7          	lui	a5,0x10
    800055d4:	fff78793          	addi	a5,a5,-1 # ffff <_entry_offset+0xffff>
    800055d8:	02500a13          	li	s4,37
    800055dc:	00001417          	auipc	s0,0x1
    800055e0:	56c40413          	addi	s0,s0,1388 # 80006b48 <t.1857+0x30>
    800055e4:	00f13c23          	sd	a5,24(sp)
    800055e8:	0200006f          	j	80005608 <_vsnprintf+0x9c>
    800055ec:	000d0613          	mv	a2,s10
    800055f0:	000c0693          	mv	a3,s8
    800055f4:	00048593          	mv	a1,s1
    800055f8:	001d0d13          	addi	s10,s10,1
    800055fc:	000900e7          	jalr	s2
    80005600:	000bc503          	lbu	a0,0(s7)
    80005604:	1c050263          	beqz	a0,800057c8 <_vsnprintf+0x25c>
    80005608:	001b8b93          	addi	s7,s7,1
    8000560c:	ff4510e3          	bne	a0,s4,800055ec <_vsnprintf+0x80>
    80005610:	00000593          	li	a1,0
    80005614:	01000813          	li	a6,16
    80005618:	000bc503          	lbu	a0,0(s7)
    8000561c:	001b8713          	addi	a4,s7,1
    80005620:	00070613          	mv	a2,a4
    80005624:	fe05079b          	addiw	a5,a0,-32
    80005628:	0ff7f793          	andi	a5,a5,255
    8000562c:	00f86c63          	bltu	a6,a5,80005644 <_vsnprintf+0xd8>
    80005630:	00279793          	slli	a5,a5,0x2
    80005634:	008787b3          	add	a5,a5,s0
    80005638:	0007a783          	lw	a5,0(a5)
    8000563c:	008787b3          	add	a5,a5,s0
    80005640:	00078067          	jr	a5
    80005644:	fd05079b          	addiw	a5,a0,-48
    80005648:	0ff7f793          	andi	a5,a5,255
    8000564c:	00900813          	li	a6,9
    80005650:	0ef87c63          	bgeu	a6,a5,80005748 <_vsnprintf+0x1dc>
    80005654:	02a00793          	li	a5,42
    80005658:	20f50463          	beq	a0,a5,80005860 <_vsnprintf+0x2f4>
    8000565c:	000b8613          	mv	a2,s7
    80005660:	00000d93          	li	s11,0
    80005664:	00070b93          	mv	s7,a4
    80005668:	02e00793          	li	a5,46
    8000566c:	00000c93          	li	s9,0
    80005670:	12f50463          	beq	a0,a5,80005798 <_vsnprintf+0x22c>
    80005674:	f985079b          	addiw	a5,a0,-104
    80005678:	0ff7f793          	andi	a5,a5,255
    8000567c:	01200713          	li	a4,18
    80005680:	08f76463          	bltu	a4,a5,80005708 <_vsnprintf+0x19c>
    80005684:	00001717          	auipc	a4,0x1
    80005688:	50870713          	addi	a4,a4,1288 # 80006b8c <t.1857+0x74>
    8000568c:	00279793          	slli	a5,a5,0x2
    80005690:	00e787b3          	add	a5,a5,a4
    80005694:	0007a783          	lw	a5,0(a5)
    80005698:	00e787b3          	add	a5,a5,a4
    8000569c:	00078067          	jr	a5
    800056a0:	0015e593          	ori	a1,a1,1
    800056a4:	0005859b          	sext.w	a1,a1
    800056a8:	00070b93          	mv	s7,a4
    800056ac:	f6dff06f          	j	80005618 <_vsnprintf+0xac>
    800056b0:	0025e593          	ori	a1,a1,2
    800056b4:	0005859b          	sext.w	a1,a1
    800056b8:	00070b93          	mv	s7,a4
    800056bc:	f5dff06f          	j	80005618 <_vsnprintf+0xac>
    800056c0:	0045e593          	ori	a1,a1,4
    800056c4:	0005859b          	sext.w	a1,a1
    800056c8:	00070b93          	mv	s7,a4
    800056cc:	f4dff06f          	j	80005618 <_vsnprintf+0xac>
    800056d0:	0105e593          	ori	a1,a1,16
    800056d4:	0005859b          	sext.w	a1,a1
    800056d8:	00070b93          	mv	s7,a4
    800056dc:	f3dff06f          	j	80005618 <_vsnprintf+0xac>
    800056e0:	0085e593          	ori	a1,a1,8
    800056e4:	0005859b          	sext.w	a1,a1
    800056e8:	00070b93          	mv	s7,a4
    800056ec:	f2dff06f          	j	80005618 <_vsnprintf+0xac>
    800056f0:	00164503          	lbu	a0,1(a2)
    800056f4:	06800793          	li	a5,104
    800056f8:	52f50663          	beq	a0,a5,80005c24 <_vsnprintf+0x6b8>
    800056fc:	0805e593          	ori	a1,a1,128
    80005700:	0005859b          	sext.w	a1,a1
    80005704:	001b8b93          	addi	s7,s7,1
    80005708:	fdb5079b          	addiw	a5,a0,-37
    8000570c:	0ff7f793          	andi	a5,a5,255
    80005710:	05300713          	li	a4,83
    80005714:	ecf76ce3          	bltu	a4,a5,800055ec <_vsnprintf+0x80>
    80005718:	00001717          	auipc	a4,0x1
    8000571c:	4c070713          	addi	a4,a4,1216 # 80006bd8 <t.1857+0xc0>
    80005720:	00279793          	slli	a5,a5,0x2
    80005724:	00e787b3          	add	a5,a5,a4
    80005728:	0007a783          	lw	a5,0(a5)
    8000572c:	00e787b3          	add	a5,a5,a4
    80005730:	00078067          	jr	a5
    80005734:	00164503          	lbu	a0,1(a2)
    80005738:	1005e593          	ori	a1,a1,256
    8000573c:	0005859b          	sext.w	a1,a1
    80005740:	001b8b93          	addi	s7,s7,1
    80005744:	fc5ff06f          	j	80005708 <_vsnprintf+0x19c>
    80005748:	00000d93          	li	s11,0
    8000574c:	00900813          	li	a6,9
    80005750:	0080006f          	j	80005758 <_vsnprintf+0x1ec>
    80005754:	00170713          	addi	a4,a4,1
    80005758:	002d979b          	slliw	a5,s11,0x2
    8000575c:	01b787bb          	addw	a5,a5,s11
    80005760:	0017979b          	slliw	a5,a5,0x1
    80005764:	00a787bb          	addw	a5,a5,a0
    80005768:	00074503          	lbu	a0,0(a4)
    8000576c:	000b8893          	mv	a7,s7
    80005770:	fd078d9b          	addiw	s11,a5,-48
    80005774:	fd05061b          	addiw	a2,a0,-48
    80005778:	0ff67613          	andi	a2,a2,255
    8000577c:	00070b93          	mv	s7,a4
    80005780:	fcc87ae3          	bgeu	a6,a2,80005754 <_vsnprintf+0x1e8>
    80005784:	02e00793          	li	a5,46
    80005788:	00070613          	mv	a2,a4
    8000578c:	00288b93          	addi	s7,a7,2
    80005790:	00000c93          	li	s9,0
    80005794:	eef510e3          	bne	a0,a5,80005674 <_vsnprintf+0x108>
    80005798:	00164503          	lbu	a0,1(a2)
    8000579c:	4005e593          	ori	a1,a1,1024
    800057a0:	00900713          	li	a4,9
    800057a4:	fd05079b          	addiw	a5,a0,-48
    800057a8:	0ff7f793          	andi	a5,a5,255
    800057ac:	0005859b          	sext.w	a1,a1
    800057b0:	06f77c63          	bgeu	a4,a5,80005828 <_vsnprintf+0x2bc>
    800057b4:	02a00793          	li	a5,42
    800057b8:	32f50e63          	beq	a0,a5,80005af4 <_vsnprintf+0x588>
    800057bc:	000b8613          	mv	a2,s7
    800057c0:	001b8b93          	addi	s7,s7,1
    800057c4:	eb1ff06f          	j	80005674 <_vsnprintf+0x108>
    800057c8:	000d041b          	sext.w	s0,s10
    800057cc:	018d6463          	bltu	s10,s8,800057d4 <_vsnprintf+0x268>
    800057d0:	fffc0d13          	addi	s10,s8,-1
    800057d4:	000c0693          	mv	a3,s8
    800057d8:	000d0613          	mv	a2,s10
    800057dc:	00048593          	mv	a1,s1
    800057e0:	00000513          	li	a0,0
    800057e4:	000900e7          	jalr	s2
    800057e8:	09813083          	ld	ra,152(sp)
    800057ec:	00040513          	mv	a0,s0
    800057f0:	09013403          	ld	s0,144(sp)
    800057f4:	08813483          	ld	s1,136(sp)
    800057f8:	08013903          	ld	s2,128(sp)
    800057fc:	07813983          	ld	s3,120(sp)
    80005800:	07013a03          	ld	s4,112(sp)
    80005804:	06813a83          	ld	s5,104(sp)
    80005808:	06013b03          	ld	s6,96(sp)
    8000580c:	05813b83          	ld	s7,88(sp)
    80005810:	05013c03          	ld	s8,80(sp)
    80005814:	04813c83          	ld	s9,72(sp)
    80005818:	04013d03          	ld	s10,64(sp)
    8000581c:	03813d83          	ld	s11,56(sp)
    80005820:	0a010113          	addi	sp,sp,160
    80005824:	00008067          	ret
    80005828:	002c979b          	slliw	a5,s9,0x2
    8000582c:	019788bb          	addw	a7,a5,s9
    80005830:	000b8813          	mv	a6,s7
    80005834:	0018989b          	slliw	a7,a7,0x1
    80005838:	001b8b93          	addi	s7,s7,1
    8000583c:	00a888bb          	addw	a7,a7,a0
    80005840:	000bc503          	lbu	a0,0(s7)
    80005844:	fd088c9b          	addiw	s9,a7,-48
    80005848:	fd05079b          	addiw	a5,a0,-48
    8000584c:	0ff7f793          	andi	a5,a5,255
    80005850:	fcf77ce3          	bgeu	a4,a5,80005828 <_vsnprintf+0x2bc>
    80005854:	000b8613          	mv	a2,s7
    80005858:	00280b93          	addi	s7,a6,2
    8000585c:	e19ff06f          	j	80005674 <_vsnprintf+0x108>
    80005860:	0009a783          	lw	a5,0(s3)
    80005864:	00898993          	addi	s3,s3,8
    80005868:	00078d9b          	sext.w	s11,a5
    8000586c:	0007c863          	bltz	a5,8000587c <_vsnprintf+0x310>
    80005870:	001bc503          	lbu	a0,1(s7)
    80005874:	002b8b93          	addi	s7,s7,2
    80005878:	df1ff06f          	j	80005668 <_vsnprintf+0xfc>
    8000587c:	0025e593          	ori	a1,a1,2
    80005880:	001bc503          	lbu	a0,1(s7)
    80005884:	0005859b          	sext.w	a1,a1
    80005888:	40f00dbb          	negw	s11,a5
    8000588c:	002b8b93          	addi	s7,s7,2
    80005890:	dd9ff06f          	j	80005668 <_vsnprintf+0xfc>
    80005894:	07800793          	li	a5,120
    80005898:	00898a93          	addi	s5,s3,8
    8000589c:	56f50063          	beq	a0,a5,80005dfc <_vsnprintf+0x890>
    800058a0:	05800793          	li	a5,88
    800058a4:	28f50463          	beq	a0,a5,80005b2c <_vsnprintf+0x5c0>
    800058a8:	06f00793          	li	a5,111
    800058ac:	4af50c63          	beq	a0,a5,80005d64 <_vsnprintf+0x7f8>
    800058b0:	06200793          	li	a5,98
    800058b4:	54f50063          	beq	a0,a5,80005df4 <_vsnprintf+0x888>
    800058b8:	fef5ff13          	andi	t5,a1,-17
    800058bc:	4005f793          	andi	a5,a1,1024
    800058c0:	06900713          	li	a4,105
    800058c4:	000f0f1b          	sext.w	t5,t5
    800058c8:	0007879b          	sext.w	a5,a5
    800058cc:	5ae51063          	bne	a0,a4,80005e6c <_vsnprintf+0x900>
    800058d0:	48079663          	bnez	a5,80005d5c <_vsnprintf+0x7f0>
    800058d4:	2005f593          	andi	a1,a1,512
    800058d8:	0005879b          	sext.w	a5,a1
    800058dc:	00a00813          	li	a6,10
    800058e0:	42079663          	bnez	a5,80005d0c <_vsnprintf+0x7a0>
    800058e4:	100f7793          	andi	a5,t5,256
    800058e8:	000f0613          	mv	a2,t5
    800058ec:	4e079063          	bnez	a5,80005dcc <_vsnprintf+0x860>
    800058f0:	040f7713          	andi	a4,t5,64
    800058f4:	0009a783          	lw	a5,0(s3)
    800058f8:	4a071a63          	bnez	a4,80005dac <_vsnprintf+0x840>
    800058fc:	08067613          	andi	a2,a2,128
    80005900:	52060a63          	beqz	a2,80005e34 <_vsnprintf+0x8c8>
    80005904:	0107979b          	slliw	a5,a5,0x10
    80005908:	4107d79b          	sraiw	a5,a5,0x10
    8000590c:	40f7d61b          	sraiw	a2,a5,0xf
    80005910:	00c7c733          	xor	a4,a5,a2
    80005914:	40c7073b          	subw	a4,a4,a2
    80005918:	03071713          	slli	a4,a4,0x30
    8000591c:	03075713          	srli	a4,a4,0x30
    80005920:	000d0613          	mv	a2,s10
    80005924:	01e13423          	sd	t5,8(sp)
    80005928:	01b13023          	sd	s11,0(sp)
    8000592c:	000c8893          	mv	a7,s9
    80005930:	01f7d79b          	srliw	a5,a5,0x1f
    80005934:	000c0693          	mv	a3,s8
    80005938:	00048593          	mv	a1,s1
    8000593c:	00090513          	mv	a0,s2
    80005940:	96dff0ef          	jal	ra,800052ac <_ntoa_long>
    80005944:	00050d13          	mv	s10,a0
    80005948:	000a8993          	mv	s3,s5
    8000594c:	cb5ff06f          	j	80005600 <_vsnprintf+0x94>
    80005950:	00164503          	lbu	a0,1(a2)
    80005954:	06c00793          	li	a5,108
    80005958:	def510e3          	bne	a0,a5,80005738 <_vsnprintf+0x1cc>
    8000595c:	3005e593          	ori	a1,a1,768
    80005960:	00264503          	lbu	a0,2(a2)
    80005964:	0005859b          	sext.w	a1,a1
    80005968:	00360b93          	addi	s7,a2,3
    8000596c:	d9dff06f          	j	80005708 <_vsnprintf+0x19c>
    80005970:	00898793          	addi	a5,s3,8
    80005974:	001d0813          	addi	a6,s10,1
    80005978:	0025f593          	andi	a1,a1,2
    8000597c:	02f13023          	sd	a5,32(sp)
    80005980:	00080b13          	mv	s6,a6
    80005984:	32058263          	beqz	a1,80005ca8 <_vsnprintf+0x73c>
    80005988:	0009c503          	lbu	a0,0(s3)
    8000598c:	000c0693          	mv	a3,s8
    80005990:	000d0613          	mv	a2,s10
    80005994:	00048593          	mv	a1,s1
    80005998:	000900e7          	jalr	s2
    8000599c:	00100793          	li	a5,1
    800059a0:	43b7f063          	bgeu	a5,s11,80005dc0 <_vsnprintf+0x854>
    800059a4:	ffed879b          	addiw	a5,s11,-2
    800059a8:	02079a93          	slli	s5,a5,0x20
    800059ac:	020ada93          	srli	s5,s5,0x20
    800059b0:	002d0d13          	addi	s10,s10,2
    800059b4:	015d0cb3          	add	s9,s10,s5
    800059b8:	000b0613          	mv	a2,s6
    800059bc:	000c0693          	mv	a3,s8
    800059c0:	001b0b13          	addi	s6,s6,1
    800059c4:	00048593          	mv	a1,s1
    800059c8:	02000513          	li	a0,32
    800059cc:	000900e7          	jalr	s2
    800059d0:	ff6c94e3          	bne	s9,s6,800059b8 <_vsnprintf+0x44c>
    800059d4:	02013983          	ld	s3,32(sp)
    800059d8:	015d0d33          	add	s10,s10,s5
    800059dc:	c25ff06f          	j	80005600 <_vsnprintf+0x94>
    800059e0:	000d0613          	mv	a2,s10
    800059e4:	000c0693          	mv	a3,s8
    800059e8:	00048593          	mv	a1,s1
    800059ec:	02500513          	li	a0,37
    800059f0:	001d0d13          	addi	s10,s10,1
    800059f4:	000900e7          	jalr	s2
    800059f8:	c09ff06f          	j	80005600 <_vsnprintf+0x94>
    800059fc:	0009ba83          	ld	s5,0(s3)
    80005a00:	00898793          	addi	a5,s3,8
    80005a04:	02f13023          	sd	a5,32(sp)
    80005a08:	000ac503          	lbu	a0,0(s5)
    80005a0c:	100c9663          	bnez	s9,80005b18 <_vsnprintf+0x5ac>
    80005a10:	ffe00793          	li	a5,-2
    80005a14:	42050863          	beqz	a0,80005e44 <_vsnprintf+0x8d8>
    80005a18:	00178693          	addi	a3,a5,1
    80005a1c:	00da8633          	add	a2,s5,a3
    80005a20:	000a8793          	mv	a5,s5
    80005a24:	0080006f          	j	80005a2c <_vsnprintf+0x4c0>
    80005a28:	1ec78863          	beq	a5,a2,80005c18 <_vsnprintf+0x6ac>
    80005a2c:	0017c703          	lbu	a4,1(a5)
    80005a30:	00178793          	addi	a5,a5,1
    80005a34:	fe071ae3          	bnez	a4,80005a28 <_vsnprintf+0x4bc>
    80005a38:	415787bb          	subw	a5,a5,s5
    80005a3c:	00f13823          	sd	a5,16(sp)
    80005a40:	4005f793          	andi	a5,a1,1024
    80005a44:	0007899b          	sext.w	s3,a5
    80005a48:	00078c63          	beqz	a5,80005a60 <_vsnprintf+0x4f4>
    80005a4c:	01013703          	ld	a4,16(sp)
    80005a50:	000c879b          	sext.w	a5,s9
    80005a54:	01977463          	bgeu	a4,s9,80005a5c <_vsnprintf+0x4f0>
    80005a58:	0007079b          	sext.w	a5,a4
    80005a5c:	00f13823          	sd	a5,16(sp)
    80005a60:	0025f593          	andi	a1,a1,2
    80005a64:	0005879b          	sext.w	a5,a1
    80005a68:	02f13423          	sd	a5,40(sp)
    80005a6c:	1c058a63          	beqz	a1,80005c40 <_vsnprintf+0x6d4>
    80005a70:	14050863          	beqz	a0,80005bc0 <_vsnprintf+0x654>
    80005a74:	000d0613          	mv	a2,s10
    80005a78:	00098863          	beqz	s3,80005a88 <_vsnprintf+0x51c>
    80005a7c:	fffc879b          	addiw	a5,s9,-1
    80005a80:	120c8863          	beqz	s9,80005bb0 <_vsnprintf+0x644>
    80005a84:	00078c93          	mv	s9,a5
    80005a88:	000c0693          	mv	a3,s8
    80005a8c:	00048593          	mv	a1,s1
    80005a90:	00160b13          	addi	s6,a2,1
    80005a94:	000900e7          	jalr	s2
    80005a98:	41ab07b3          	sub	a5,s6,s10
    80005a9c:	00fa87b3          	add	a5,s5,a5
    80005aa0:	0007c503          	lbu	a0,0(a5)
    80005aa4:	10050863          	beqz	a0,80005bb4 <_vsnprintf+0x648>
    80005aa8:	000b0613          	mv	a2,s6
    80005aac:	fcdff06f          	j	80005a78 <_vsnprintf+0x50c>
    80005ab0:	0009b703          	ld	a4,0(s3)
    80005ab4:	0215e593          	ori	a1,a1,33
    80005ab8:	0005859b          	sext.w	a1,a1
    80005abc:	01000793          	li	a5,16
    80005ac0:	000d0613          	mv	a2,s10
    80005ac4:	00b13423          	sd	a1,8(sp)
    80005ac8:	00f13023          	sd	a5,0(sp)
    80005acc:	000c8893          	mv	a7,s9
    80005ad0:	01000813          	li	a6,16
    80005ad4:	00000793          	li	a5,0
    80005ad8:	000c0693          	mv	a3,s8
    80005adc:	00048593          	mv	a1,s1
    80005ae0:	00090513          	mv	a0,s2
    80005ae4:	929ff0ef          	jal	ra,8000540c <_ntoa_long_long>
    80005ae8:	00898993          	addi	s3,s3,8
    80005aec:	00050d13          	mv	s10,a0
    80005af0:	b11ff06f          	j	80005600 <_vsnprintf+0x94>
    80005af4:	0009a883          	lw	a7,0(s3)
    80005af8:	00264503          	lbu	a0,2(a2)
    80005afc:	00360b93          	addi	s7,a2,3
    80005b00:	fff8c793          	not	a5,a7
    80005b04:	43f7d793          	srai	a5,a5,0x3f
    80005b08:	00f8fcb3          	and	s9,a7,a5
    80005b0c:	00898993          	addi	s3,s3,8
    80005b10:	00260613          	addi	a2,a2,2
    80005b14:	b61ff06f          	j	80005674 <_vsnprintf+0x108>
    80005b18:	020c9793          	slli	a5,s9,0x20
    80005b1c:	0207d793          	srli	a5,a5,0x20
    80005b20:	32050263          	beqz	a0,80005e44 <_vsnprintf+0x8d8>
    80005b24:	fff78793          	addi	a5,a5,-1
    80005b28:	ef1ff06f          	j	80005a18 <_vsnprintf+0x4ac>
    80005b2c:	ff35ff13          	andi	t5,a1,-13
    80005b30:	000f0f1b          	sext.w	t5,t5
    80005b34:	4005f793          	andi	a5,a1,1024
    80005b38:	020f6f13          	ori	t5,t5,32
    80005b3c:	20078863          	beqz	a5,80005d4c <_vsnprintf+0x7e0>
    80005b40:	01000813          	li	a6,16
    80005b44:	ffef7f13          	andi	t5,t5,-2
    80005b48:	000f0f1b          	sext.w	t5,t5
    80005b4c:	200f7793          	andi	a5,t5,512
    80005b50:	06900713          	li	a4,105
    80005b54:	0007879b          	sext.w	a5,a5
    80005b58:	d8e504e3          	beq	a0,a4,800058e0 <_vsnprintf+0x374>
    80005b5c:	06400713          	li	a4,100
    80005b60:	d8e500e3          	beq	a0,a4,800058e0 <_vsnprintf+0x374>
    80005b64:	22079663          	bnez	a5,80005d90 <_vsnprintf+0x824>
    80005b68:	100f7793          	andi	a5,t5,256
    80005b6c:	000f0713          	mv	a4,t5
    80005b70:	2a079463          	bnez	a5,80005e18 <_vsnprintf+0x8ac>
    80005b74:	040f7793          	andi	a5,t5,64
    80005b78:	24079063          	bnez	a5,80005db8 <_vsnprintf+0x84c>
    80005b7c:	08077713          	andi	a4,a4,128
    80005b80:	2c070663          	beqz	a4,80005e4c <_vsnprintf+0x8e0>
    80005b84:	0009a703          	lw	a4,0(s3)
    80005b88:	01813783          	ld	a5,24(sp)
    80005b8c:	00e7f733          	and	a4,a5,a4
    80005b90:	02071713          	slli	a4,a4,0x20
    80005b94:	000d0613          	mv	a2,s10
    80005b98:	01e13423          	sd	t5,8(sp)
    80005b9c:	01b13023          	sd	s11,0(sp)
    80005ba0:	000c8893          	mv	a7,s9
    80005ba4:	00000793          	li	a5,0
    80005ba8:	02075713          	srli	a4,a4,0x20
    80005bac:	d89ff06f          	j	80005934 <_vsnprintf+0x3c8>
    80005bb0:	00060b13          	mv	s6,a2
    80005bb4:	02813783          	ld	a5,40(sp)
    80005bb8:	04078a63          	beqz	a5,80005c0c <_vsnprintf+0x6a0>
    80005bbc:	000b0d13          	mv	s10,s6
    80005bc0:	01013703          	ld	a4,16(sp)
    80005bc4:	0db77e63          	bgeu	a4,s11,80005ca0 <_vsnprintf+0x734>
    80005bc8:	fffd879b          	addiw	a5,s11,-1
    80005bcc:	40e7873b          	subw	a4,a5,a4
    80005bd0:	02071713          	slli	a4,a4,0x20
    80005bd4:	02075713          	srli	a4,a4,0x20
    80005bd8:	001d0813          	addi	a6,s10,1
    80005bdc:	01070b33          	add	s6,a4,a6
    80005be0:	0080006f          	j	80005be8 <_vsnprintf+0x67c>
    80005be4:	00180813          	addi	a6,a6,1
    80005be8:	000d0613          	mv	a2,s10
    80005bec:	01013823          	sd	a6,16(sp)
    80005bf0:	000c0693          	mv	a3,s8
    80005bf4:	00048593          	mv	a1,s1
    80005bf8:	02000513          	li	a0,32
    80005bfc:	00080d13          	mv	s10,a6
    80005c00:	000900e7          	jalr	s2
    80005c04:	01013803          	ld	a6,16(sp)
    80005c08:	fd0b1ee3          	bne	s6,a6,80005be4 <_vsnprintf+0x678>
    80005c0c:	02013983          	ld	s3,32(sp)
    80005c10:	000b0d13          	mv	s10,s6
    80005c14:	9edff06f          	j	80005600 <_vsnprintf+0x94>
    80005c18:	0006879b          	sext.w	a5,a3
    80005c1c:	00f13823          	sd	a5,16(sp)
    80005c20:	e21ff06f          	j	80005a40 <_vsnprintf+0x4d4>
    80005c24:	0c05e593          	ori	a1,a1,192
    80005c28:	00264503          	lbu	a0,2(a2)
    80005c2c:	0005859b          	sext.w	a1,a1
    80005c30:	00360b93          	addi	s7,a2,3
    80005c34:	ad5ff06f          	j	80005708 <_vsnprintf+0x19c>
    80005c38:	00000413          	li	s0,0
    80005c3c:	b91ff06f          	j	800057cc <_vsnprintf+0x260>
    80005c40:	01013703          	ld	a4,16(sp)
    80005c44:	0017079b          	addiw	a5,a4,1
    80005c48:	21b77c63          	bgeu	a4,s11,80005e60 <_vsnprintf+0x8f4>
    80005c4c:	fffd879b          	addiw	a5,s11,-1
    80005c50:	40e787bb          	subw	a5,a5,a4
    80005c54:	02079793          	slli	a5,a5,0x20
    80005c58:	0207d793          	srli	a5,a5,0x20
    80005c5c:	001d0813          	addi	a6,s10,1
    80005c60:	01078b33          	add	s6,a5,a6
    80005c64:	00c0006f          	j	80005c70 <_vsnprintf+0x704>
    80005c68:	01013803          	ld	a6,16(sp)
    80005c6c:	00180813          	addi	a6,a6,1
    80005c70:	000d0613          	mv	a2,s10
    80005c74:	000c0693          	mv	a3,s8
    80005c78:	00080d13          	mv	s10,a6
    80005c7c:	01013823          	sd	a6,16(sp)
    80005c80:	00048593          	mv	a1,s1
    80005c84:	02000513          	li	a0,32
    80005c88:	000900e7          	jalr	s2
    80005c8c:	fd6d1ee3          	bne	s10,s6,80005c68 <_vsnprintf+0x6fc>
    80005c90:	000ac503          	lbu	a0,0(s5)
    80005c94:	001d879b          	addiw	a5,s11,1
    80005c98:	00f13823          	sd	a5,16(sp)
    80005c9c:	dc051ce3          	bnez	a0,80005a74 <_vsnprintf+0x508>
    80005ca0:	000d0b13          	mv	s6,s10
    80005ca4:	f69ff06f          	j	80005c0c <_vsnprintf+0x6a0>
    80005ca8:	00100793          	li	a5,1
    80005cac:	1bb7f463          	bgeu	a5,s11,80005e54 <_vsnprintf+0x8e8>
    80005cb0:	ffed879b          	addiw	a5,s11,-2
    80005cb4:	02079a93          	slli	s5,a5,0x20
    80005cb8:	020ada93          	srli	s5,s5,0x20
    80005cbc:	010a8ab3          	add	s5,s5,a6
    80005cc0:	00c0006f          	j	80005ccc <_vsnprintf+0x760>
    80005cc4:	01013803          	ld	a6,16(sp)
    80005cc8:	00180813          	addi	a6,a6,1
    80005ccc:	000d0613          	mv	a2,s10
    80005cd0:	000c0693          	mv	a3,s8
    80005cd4:	00080d13          	mv	s10,a6
    80005cd8:	01013823          	sd	a6,16(sp)
    80005cdc:	00048593          	mv	a1,s1
    80005ce0:	02000513          	li	a0,32
    80005ce4:	000900e7          	jalr	s2
    80005ce8:	fdaa9ee3          	bne	s5,s10,80005cc4 <_vsnprintf+0x758>
    80005cec:	001a8d13          	addi	s10,s5,1
    80005cf0:	0009c503          	lbu	a0,0(s3)
    80005cf4:	000c0693          	mv	a3,s8
    80005cf8:	000a8613          	mv	a2,s5
    80005cfc:	00048593          	mv	a1,s1
    80005d00:	000900e7          	jalr	s2
    80005d04:	02013983          	ld	s3,32(sp)
    80005d08:	8f9ff06f          	j	80005600 <_vsnprintf+0x94>
    80005d0c:	0009b783          	ld	a5,0(s3)
    80005d10:	000d0613          	mv	a2,s10
    80005d14:	01e13423          	sd	t5,8(sp)
    80005d18:	43f7d713          	srai	a4,a5,0x3f
    80005d1c:	00f745b3          	xor	a1,a4,a5
    80005d20:	01b13023          	sd	s11,0(sp)
    80005d24:	000c8893          	mv	a7,s9
    80005d28:	03f7d793          	srli	a5,a5,0x3f
    80005d2c:	40e58733          	sub	a4,a1,a4
    80005d30:	000c0693          	mv	a3,s8
    80005d34:	00048593          	mv	a1,s1
    80005d38:	00090513          	mv	a0,s2
    80005d3c:	ed0ff0ef          	jal	ra,8000540c <_ntoa_long_long>
    80005d40:	00050d13          	mv	s10,a0
    80005d44:	000a8993          	mv	s3,s5
    80005d48:	8b9ff06f          	j	80005600 <_vsnprintf+0x94>
    80005d4c:	2005f793          	andi	a5,a1,512
    80005d50:	0007879b          	sext.w	a5,a5
    80005d54:	01000813          	li	a6,16
    80005d58:	e0dff06f          	j	80005b64 <_vsnprintf+0x5f8>
    80005d5c:	00a00813          	li	a6,10
    80005d60:	de5ff06f          	j	80005b44 <_vsnprintf+0x5d8>
    80005d64:	00800813          	li	a6,8
    80005d68:	00058f13          	mv	t5,a1
    80005d6c:	400f7713          	andi	a4,t5,1024
    80005d70:	06400613          	li	a2,100
    80005d74:	000f0793          	mv	a5,t5
    80005d78:	0007071b          	sext.w	a4,a4
    80005d7c:	0ec51c63          	bne	a0,a2,80005e74 <_vsnprintf+0x908>
    80005d80:	dc0712e3          	bnez	a4,80005b44 <_vsnprintf+0x5d8>
    80005d84:	2007f793          	andi	a5,a5,512
    80005d88:	0007879b          	sext.w	a5,a5
    80005d8c:	b55ff06f          	j	800058e0 <_vsnprintf+0x374>
    80005d90:	0009b703          	ld	a4,0(s3)
    80005d94:	000d0613          	mv	a2,s10
    80005d98:	01e13423          	sd	t5,8(sp)
    80005d9c:	01b13023          	sd	s11,0(sp)
    80005da0:	000c8893          	mv	a7,s9
    80005da4:	00000793          	li	a5,0
    80005da8:	f89ff06f          	j	80005d30 <_vsnprintf+0x7c4>
    80005dac:	0ff7f793          	andi	a5,a5,255
    80005db0:	00078713          	mv	a4,a5
    80005db4:	b6dff06f          	j	80005920 <_vsnprintf+0x3b4>
    80005db8:	0009c703          	lbu	a4,0(s3)
    80005dbc:	dd5ff06f          	j	80005b90 <_vsnprintf+0x624>
    80005dc0:	02013983          	ld	s3,32(sp)
    80005dc4:	000b0d13          	mv	s10,s6
    80005dc8:	839ff06f          	j	80005600 <_vsnprintf+0x94>
    80005dcc:	0009b783          	ld	a5,0(s3)
    80005dd0:	000d0613          	mv	a2,s10
    80005dd4:	01e13423          	sd	t5,8(sp)
    80005dd8:	43f7d713          	srai	a4,a5,0x3f
    80005ddc:	00f745b3          	xor	a1,a4,a5
    80005de0:	01b13023          	sd	s11,0(sp)
    80005de4:	000c8893          	mv	a7,s9
    80005de8:	03f7d793          	srli	a5,a5,0x3f
    80005dec:	40e58733          	sub	a4,a1,a4
    80005df0:	b45ff06f          	j	80005934 <_vsnprintf+0x3c8>
    80005df4:	00200813          	li	a6,2
    80005df8:	f71ff06f          	j	80005d68 <_vsnprintf+0x7fc>
    80005dfc:	4005f713          	andi	a4,a1,1024
    80005e00:	0007071b          	sext.w	a4,a4
    80005e04:	01000813          	li	a6,16
    80005e08:	ff35f593          	andi	a1,a1,-13
    80005e0c:	00058f1b          	sext.w	t5,a1
    80005e10:	d2071ae3          	bnez	a4,80005b44 <_vsnprintf+0x5d8>
    80005e14:	d39ff06f          	j	80005b4c <_vsnprintf+0x5e0>
    80005e18:	0009b703          	ld	a4,0(s3)
    80005e1c:	000d0613          	mv	a2,s10
    80005e20:	01e13423          	sd	t5,8(sp)
    80005e24:	01b13023          	sd	s11,0(sp)
    80005e28:	000c8893          	mv	a7,s9
    80005e2c:	00000793          	li	a5,0
    80005e30:	b05ff06f          	j	80005934 <_vsnprintf+0x3c8>
    80005e34:	41f7d61b          	sraiw	a2,a5,0x1f
    80005e38:	00c7c733          	xor	a4,a5,a2
    80005e3c:	40c7073b          	subw	a4,a4,a2
    80005e40:	ae1ff06f          	j	80005920 <_vsnprintf+0x3b4>
    80005e44:	00013823          	sd	zero,16(sp)
    80005e48:	bf9ff06f          	j	80005a40 <_vsnprintf+0x4d4>
    80005e4c:	0009a703          	lw	a4,0(s3)
    80005e50:	d41ff06f          	j	80005b90 <_vsnprintf+0x624>
    80005e54:	000d0a93          	mv	s5,s10
    80005e58:	00080d13          	mv	s10,a6
    80005e5c:	e95ff06f          	j	80005cf0 <_vsnprintf+0x784>
    80005e60:	00f13823          	sd	a5,16(sp)
    80005e64:	c00518e3          	bnez	a0,80005a74 <_vsnprintf+0x508>
    80005e68:	e39ff06f          	j	80005ca0 <_vsnprintf+0x734>
    80005e6c:	00a00813          	li	a6,10
    80005e70:	efdff06f          	j	80005d6c <_vsnprintf+0x800>
    80005e74:	000f0593          	mv	a1,t5
    80005e78:	f91ff06f          	j	80005e08 <_vsnprintf+0x89c>

0000000080005e7c <_out_char>:
    80005e7c:	00051463          	bnez	a0,80005e84 <_out_char+0x8>
    80005e80:	00008067          	ret
    80005e84:	a05fe06f          	j	80004888 <putch>

0000000080005e88 <printf_>:
    80005e88:	fa010113          	addi	sp,sp,-96
    80005e8c:	02810313          	addi	t1,sp,40
    80005e90:	02b13423          	sd	a1,40(sp)
    80005e94:	02c13823          	sd	a2,48(sp)
    80005e98:	02d13c23          	sd	a3,56(sp)
    80005e9c:	04e13023          	sd	a4,64(sp)
    80005ea0:	00050693          	mv	a3,a0
    80005ea4:	00010593          	mv	a1,sp
    80005ea8:	00030713          	mv	a4,t1
    80005eac:	fff00613          	li	a2,-1
    80005eb0:	00000517          	auipc	a0,0x0
    80005eb4:	fcc50513          	addi	a0,a0,-52 # 80005e7c <_out_char>
    80005eb8:	00113c23          	sd	ra,24(sp)
    80005ebc:	04f13423          	sd	a5,72(sp)
    80005ec0:	05013823          	sd	a6,80(sp)
    80005ec4:	05113c23          	sd	a7,88(sp)
    80005ec8:	00613423          	sd	t1,8(sp)
    80005ecc:	ea0ff0ef          	jal	ra,8000556c <_vsnprintf>
    80005ed0:	01813083          	ld	ra,24(sp)
    80005ed4:	06010113          	addi	sp,sp,96
    80005ed8:	00008067          	ret

0000000080005edc <sprintf_>:
    80005edc:	fb010113          	addi	sp,sp,-80
    80005ee0:	02010313          	addi	t1,sp,32
    80005ee4:	02c13023          	sd	a2,32(sp)
    80005ee8:	02d13423          	sd	a3,40(sp)
    80005eec:	02e13823          	sd	a4,48(sp)
    80005ef0:	00058693          	mv	a3,a1
    80005ef4:	00030713          	mv	a4,t1
    80005ef8:	00050593          	mv	a1,a0
    80005efc:	fff00613          	li	a2,-1
    80005f00:	fffff517          	auipc	a0,0xfffff
    80005f04:	f0050513          	addi	a0,a0,-256 # 80004e00 <_out_buffer>
    80005f08:	00113c23          	sd	ra,24(sp)
    80005f0c:	02f13c23          	sd	a5,56(sp)
    80005f10:	05013023          	sd	a6,64(sp)
    80005f14:	05113423          	sd	a7,72(sp)
    80005f18:	00613423          	sd	t1,8(sp)
    80005f1c:	e50ff0ef          	jal	ra,8000556c <_vsnprintf>
    80005f20:	01813083          	ld	ra,24(sp)
    80005f24:	05010113          	addi	sp,sp,80
    80005f28:	00008067          	ret

0000000080005f2c <memset>:
    80005f2c:	00700713          	li	a4,7
    80005f30:	00050793          	mv	a5,a0
    80005f34:	0ac77a63          	bgeu	a4,a2,80005fe8 <memset+0xbc>
    80005f38:	0ff5f893          	andi	a7,a1,255
    80005f3c:	00889693          	slli	a3,a7,0x8
    80005f40:	0116e6b3          	or	a3,a3,a7
    80005f44:	01069713          	slli	a4,a3,0x10
    80005f48:	00d766b3          	or	a3,a4,a3
    80005f4c:	02069713          	slli	a4,a3,0x20
    80005f50:	00757813          	andi	a6,a0,7
    80005f54:	00d76733          	or	a4,a4,a3
    80005f58:	0a080663          	beqz	a6,80006004 <memset+0xd8>
    80005f5c:	00c50633          	add	a2,a0,a2
    80005f60:	01178023          	sb	a7,0(a5)
    80005f64:	00178793          	addi	a5,a5,1
    80005f68:	0077f813          	andi	a6,a5,7
    80005f6c:	40f606b3          	sub	a3,a2,a5
    80005f70:	fe0818e3          	bnez	a6,80005f60 <memset+0x34>
    80005f74:	0066d813          	srli	a6,a3,0x6
    80005f78:	04080063          	beqz	a6,80005fb8 <memset+0x8c>
    80005f7c:	00681613          	slli	a2,a6,0x6
    80005f80:	00078893          	mv	a7,a5
    80005f84:	00f60633          	add	a2,a2,a5
    80005f88:	00e7b023          	sd	a4,0(a5)
    80005f8c:	00e7b423          	sd	a4,8(a5)
    80005f90:	00e7b823          	sd	a4,16(a5)
    80005f94:	00e7bc23          	sd	a4,24(a5)
    80005f98:	02e7b023          	sd	a4,32(a5)
    80005f9c:	02e7b423          	sd	a4,40(a5)
    80005fa0:	02e7b823          	sd	a4,48(a5)
    80005fa4:	02e7bc23          	sd	a4,56(a5)
    80005fa8:	04078793          	addi	a5,a5,64
    80005fac:	fcf61ee3          	bne	a2,a5,80005f88 <memset+0x5c>
    80005fb0:	00681793          	slli	a5,a6,0x6
    80005fb4:	011787b3          	add	a5,a5,a7
    80005fb8:	0036d813          	srli	a6,a3,0x3
    80005fbc:	00787813          	andi	a6,a6,7
    80005fc0:	02080263          	beqz	a6,80005fe4 <memset+0xb8>
    80005fc4:	00381613          	slli	a2,a6,0x3
    80005fc8:	00078893          	mv	a7,a5
    80005fcc:	00f60633          	add	a2,a2,a5
    80005fd0:	00e7b023          	sd	a4,0(a5)
    80005fd4:	00878793          	addi	a5,a5,8
    80005fd8:	fef61ce3          	bne	a2,a5,80005fd0 <memset+0xa4>
    80005fdc:	00381793          	slli	a5,a6,0x3
    80005fe0:	011787b3          	add	a5,a5,a7
    80005fe4:	0076f613          	andi	a2,a3,7
    80005fe8:	0ff5f593          	andi	a1,a1,255
    80005fec:	00c78733          	add	a4,a5,a2
    80005ff0:	00060863          	beqz	a2,80006000 <memset+0xd4>
    80005ff4:	00b78023          	sb	a1,0(a5)
    80005ff8:	00178793          	addi	a5,a5,1
    80005ffc:	fef71ce3          	bne	a4,a5,80005ff4 <memset+0xc8>
    80006000:	00008067          	ret
    80006004:	00060693          	mv	a3,a2
    80006008:	f6dff06f          	j	80005f74 <memset+0x48>

000000008000600c <o1heapInit>:
    8000600c:	1a050e63          	beqz	a0,800061c8 <o1heapInit+0x1bc>
    80006010:	fd010113          	addi	sp,sp,-48
    80006014:	02813023          	sd	s0,32(sp)
    80006018:	00913c23          	sd	s1,24(sp)
    8000601c:	01f57793          	andi	a5,a0,31
    80006020:	02113423          	sd	ra,40(sp)
    80006024:	01213823          	sd	s2,16(sp)
    80006028:	01313423          	sd	s3,8(sp)
    8000602c:	01413023          	sd	s4,0(sp)
    80006030:	00050493          	mv	s1,a0
    80006034:	00050413          	mv	s0,a0
    80006038:	00000513          	li	a0,0
    8000603c:	14079a63          	bnez	a5,80006190 <o1heapInit+0x184>
    80006040:	27f00713          	li	a4,639
    80006044:	00058913          	mv	s2,a1
    80006048:	00078513          	mv	a0,a5
    8000604c:	14b77263          	bgeu	a4,a1,80006190 <o1heapInit+0x184>
    80006050:	0074f513          	andi	a0,s1,7
    80006054:	00153513          	seqz	a0,a0
    80006058:	00060a13          	mv	s4,a2
    8000605c:	00068993          	mv	s3,a3
    80006060:	839fe0ef          	jal	ra,80004898 <_assert>
    80006064:	20048793          	addi	a5,s1,512
    80006068:	2004b023          	sd	zero,512(s1)
    8000606c:	2144b423          	sd	s4,520(s1)
    80006070:	2134b823          	sd	s3,528(s1)
    80006074:	00043023          	sd	zero,0(s0)
    80006078:	00840413          	addi	s0,s0,8
    8000607c:	fe879ce3          	bne	a5,s0,80006074 <o1heapInit+0x68>
    80006080:	fff00793          	li	a5,-1
    80006084:	dc090413          	addi	s0,s2,-576
    80006088:	03f79793          	slli	a5,a5,0x3f
    8000608c:	1287f863          	bgeu	a5,s0,800061bc <o1heapInit+0x1b0>
    80006090:	00078413          	mv	s0,a5
    80006094:	00100513          	li	a0,1
    80006098:	801fe0ef          	jal	ra,80004898 <_assert>
    8000609c:	f8300793          	li	a5,-125
    800060a0:	0017d793          	srli	a5,a5,0x1
    800060a4:	fc040513          	addi	a0,s0,-64
    800060a8:	00f53533          	sltu	a0,a0,a5
    800060ac:	fecfe0ef          	jal	ra,80004898 <_assert>
    800060b0:	01f4f513          	andi	a0,s1,31
    800060b4:	00153513          	seqz	a0,a0
    800060b8:	fe0fe0ef          	jal	ra,80004898 <_assert>
    800060bc:	00100513          	li	a0,1
    800060c0:	2404b023          	sd	zero,576(s1)
    800060c4:	2404b423          	sd	zero,584(s1)
    800060c8:	2484b823          	sd	s0,592(s1)
    800060cc:	24048c23          	sb	zero,600(s1)
    800060d0:	2604b023          	sd	zero,608(s1)
    800060d4:	2604b423          	sd	zero,616(s1)
    800060d8:	fc0fe0ef          	jal	ra,80004898 <_assert>
    800060dc:	00100513          	li	a0,1
    800060e0:	fb8fe0ef          	jal	ra,80004898 <_assert>
    800060e4:	2504b503          	ld	a0,592(s1)
    800060e8:	24048a13          	addi	s4,s1,576
    800060ec:	04053513          	sltiu	a0,a0,64
    800060f0:	00154513          	xori	a0,a0,1
    800060f4:	00157513          	andi	a0,a0,1
    800060f8:	fa0fe0ef          	jal	ra,80004898 <_assert>
    800060fc:	2504b503          	ld	a0,592(s1)
    80006100:	03f57513          	andi	a0,a0,63
    80006104:	00153513          	seqz	a0,a0
    80006108:	f90fe0ef          	jal	ra,80004898 <_assert>
    8000610c:	2504b703          	ld	a4,592(s1)
    80006110:	00100793          	li	a5,1
    80006114:	00675713          	srli	a4,a4,0x6
    80006118:	0ae7fc63          	bgeu	a5,a4,800061d0 <o1heapInit+0x1c4>
    8000611c:	00000793          	li	a5,0
    80006120:	00100693          	li	a3,1
    80006124:	0017879b          	addiw	a5,a5,1
    80006128:	00175713          	srli	a4,a4,0x1
    8000612c:	0ff7f793          	andi	a5,a5,255
    80006130:	fed71ae3          	bne	a4,a3,80006124 <o1heapInit+0x118>
    80006134:	00078993          	mv	s3,a5
    80006138:	0407b513          	sltiu	a0,a5,64
    8000613c:	00f71933          	sll	s2,a4,a5
    80006140:	f58fe0ef          	jal	ra,80004898 <_assert>
    80006144:	00399793          	slli	a5,s3,0x3
    80006148:	00f487b3          	add	a5,s1,a5
    8000614c:	0007b703          	ld	a4,0(a5)
    80006150:	2604b423          	sd	zero,616(s1)
    80006154:	26e4b023          	sd	a4,608(s1)
    80006158:	00070463          	beqz	a4,80006160 <o1heapInit+0x154>
    8000615c:	03473423          	sd	s4,40(a4)
    80006160:	0147b023          	sd	s4,0(a5)
    80006164:	2004b503          	ld	a0,512(s1)
    80006168:	00a96533          	or	a0,s2,a0
    8000616c:	20a4b023          	sd	a0,512(s1)
    80006170:	00a03533          	snez	a0,a0
    80006174:	f24fe0ef          	jal	ra,80004898 <_assert>
    80006178:	00048513          	mv	a0,s1
    8000617c:	2084bc23          	sd	s0,536(s1)
    80006180:	2204b023          	sd	zero,544(s1)
    80006184:	2204b423          	sd	zero,552(s1)
    80006188:	2204b823          	sd	zero,560(s1)
    8000618c:	2204bc23          	sd	zero,568(s1)
    80006190:	02813083          	ld	ra,40(sp)
    80006194:	02013403          	ld	s0,32(sp)
    80006198:	01813483          	ld	s1,24(sp)
    8000619c:	01013903          	ld	s2,16(sp)
    800061a0:	00813983          	ld	s3,8(sp)
    800061a4:	00013a03          	ld	s4,0(sp)
    800061a8:	03010113          	addi	sp,sp,48
    800061ac:	00008067          	ret
    800061b0:	00100513          	li	a0,1
    800061b4:	fff40413          	addi	s0,s0,-1
    800061b8:	ee0fe0ef          	jal	ra,80004898 <_assert>
    800061bc:	03f47793          	andi	a5,s0,63
    800061c0:	fe0798e3          	bnez	a5,800061b0 <o1heapInit+0x1a4>
    800061c4:	ed1ff06f          	j	80006094 <o1heapInit+0x88>
    800061c8:	00000513          	li	a0,0
    800061cc:	00008067          	ret
    800061d0:	00100913          	li	s2,1
    800061d4:	00000993          	li	s3,0
    800061d8:	00100513          	li	a0,1
    800061dc:	f65ff06f          	j	80006140 <o1heapInit+0x134>
